ARM GAS  C:\Users\bccho\AppData\Local\Temp\ccKnmnRf.s 			page 1


   1              		.syntax unified
   2              		.cpu cortex-m3
   3              		.fpu softvfp
   4              		.eabi_attribute 20, 1
   5              		.eabi_attribute 21, 1
   6              		.eabi_attribute 23, 3
   7              		.eabi_attribute 24, 1
   8              		.eabi_attribute 25, 1
   9              		.eabi_attribute 26, 1
  10              		.eabi_attribute 30, 6
  11              		.eabi_attribute 18, 4
  12              		.thumb
  13              		.file	"Counter_Tick_Timeout_PM.c"
  20 0000 DF000000 		.text
  20      02008A00 
  20      00000201 
  20      FB0E0D00 
  20      01010101 
  21              	.Ltext0:
  22              		.cfi_sections	.debug_frame
  23              		.bss
  24              		.align	2
  25              	Counter_Tick_Timeout_backup:
  26 0000 00000000 		.space	6
  26      0000
  27 0006 0000     		.section	.text.Counter_Tick_Timeout_SaveConfig,"ax",%progbits
  28              		.align	2
  29              		.global	Counter_Tick_Timeout_SaveConfig
  30              		.thumb
  31              		.thumb_func
  32              		.type	Counter_Tick_Timeout_SaveConfig, %function
  33              	Counter_Tick_Timeout_SaveConfig:
  34              	.LFB0:
  35              		.file 1 ".\\Generated_Source\\PSoC5\\Counter_Tick_Timeout_PM.c"
   1:.\Generated_Source\PSoC5/Counter_Tick_Timeout_PM.c **** /*******************************************************************************
   2:.\Generated_Source\PSoC5/Counter_Tick_Timeout_PM.c **** * File Name: Counter_Tick_Timeout_PM.c  
   3:.\Generated_Source\PSoC5/Counter_Tick_Timeout_PM.c **** * Version 2.20
   4:.\Generated_Source\PSoC5/Counter_Tick_Timeout_PM.c **** *
   5:.\Generated_Source\PSoC5/Counter_Tick_Timeout_PM.c **** *  Description:
   6:.\Generated_Source\PSoC5/Counter_Tick_Timeout_PM.c **** *    This file provides the power management source code to API for the
   7:.\Generated_Source\PSoC5/Counter_Tick_Timeout_PM.c **** *    Counter.  
   8:.\Generated_Source\PSoC5/Counter_Tick_Timeout_PM.c **** *
   9:.\Generated_Source\PSoC5/Counter_Tick_Timeout_PM.c **** *   Note:
  10:.\Generated_Source\PSoC5/Counter_Tick_Timeout_PM.c **** *     None
  11:.\Generated_Source\PSoC5/Counter_Tick_Timeout_PM.c **** *
  12:.\Generated_Source\PSoC5/Counter_Tick_Timeout_PM.c **** *******************************************************************************
  13:.\Generated_Source\PSoC5/Counter_Tick_Timeout_PM.c **** * Copyright 2008-2012, Cypress Semiconductor Corporation.  All rights reserved.
  14:.\Generated_Source\PSoC5/Counter_Tick_Timeout_PM.c **** * You may use this file only in accordance with the license, terms, conditions, 
  15:.\Generated_Source\PSoC5/Counter_Tick_Timeout_PM.c **** * disclaimers, and limitations in the end user license agreement accompanying 
  16:.\Generated_Source\PSoC5/Counter_Tick_Timeout_PM.c **** * the software package with which this file was provided.
  17:.\Generated_Source\PSoC5/Counter_Tick_Timeout_PM.c **** ********************************************************************************/
ARM GAS  C:\Users\bccho\AppData\Local\Temp\ccKnmnRf.s 			page 2


  18:.\Generated_Source\PSoC5/Counter_Tick_Timeout_PM.c **** 
  19:.\Generated_Source\PSoC5/Counter_Tick_Timeout_PM.c **** #include "Counter_Tick_Timeout.h"
  20:.\Generated_Source\PSoC5/Counter_Tick_Timeout_PM.c **** 
  21:.\Generated_Source\PSoC5/Counter_Tick_Timeout_PM.c **** static Counter_Tick_Timeout_backupStruct Counter_Tick_Timeout_backup;
  22:.\Generated_Source\PSoC5/Counter_Tick_Timeout_PM.c **** 
  23:.\Generated_Source\PSoC5/Counter_Tick_Timeout_PM.c **** 
  24:.\Generated_Source\PSoC5/Counter_Tick_Timeout_PM.c **** /*******************************************************************************
  25:.\Generated_Source\PSoC5/Counter_Tick_Timeout_PM.c **** * Function Name: Counter_Tick_Timeout_SaveConfig
  26:.\Generated_Source\PSoC5/Counter_Tick_Timeout_PM.c **** ********************************************************************************
  27:.\Generated_Source\PSoC5/Counter_Tick_Timeout_PM.c **** * Summary:
  28:.\Generated_Source\PSoC5/Counter_Tick_Timeout_PM.c **** *     Save the current user configuration
  29:.\Generated_Source\PSoC5/Counter_Tick_Timeout_PM.c **** *
  30:.\Generated_Source\PSoC5/Counter_Tick_Timeout_PM.c **** * Parameters:  
  31:.\Generated_Source\PSoC5/Counter_Tick_Timeout_PM.c **** *  void
  32:.\Generated_Source\PSoC5/Counter_Tick_Timeout_PM.c **** *
  33:.\Generated_Source\PSoC5/Counter_Tick_Timeout_PM.c **** * Return: 
  34:.\Generated_Source\PSoC5/Counter_Tick_Timeout_PM.c **** *  void
  35:.\Generated_Source\PSoC5/Counter_Tick_Timeout_PM.c **** *
  36:.\Generated_Source\PSoC5/Counter_Tick_Timeout_PM.c **** * Global variables:
  37:.\Generated_Source\PSoC5/Counter_Tick_Timeout_PM.c **** *  Counter_Tick_Timeout_backup:  Variables of this global structure are modified to 
  38:.\Generated_Source\PSoC5/Counter_Tick_Timeout_PM.c **** *  store the values of non retention configuration registers when Sleep() API is 
  39:.\Generated_Source\PSoC5/Counter_Tick_Timeout_PM.c **** *  called.
  40:.\Generated_Source\PSoC5/Counter_Tick_Timeout_PM.c **** *
  41:.\Generated_Source\PSoC5/Counter_Tick_Timeout_PM.c **** *******************************************************************************/
  42:.\Generated_Source\PSoC5/Counter_Tick_Timeout_PM.c **** void Counter_Tick_Timeout_SaveConfig(void) 
  43:.\Generated_Source\PSoC5/Counter_Tick_Timeout_PM.c **** {
  36              		.loc 1 43 0
  37              		.cfi_startproc
  38              		@ args = 0, pretend = 0, frame = 0
  39              		@ frame_needed = 1, uses_anonymous_args = 0
  40              		@ link register save eliminated.
  41 0000 80B4     		push	{r7}
  42              	.LCFI0:
  43              		.cfi_def_cfa_offset 4
  44 0002 00AF     		add	r7, sp, #0
  45              		.cfi_offset 7, -4
  46              	.LCFI1:
  47              		.cfi_def_cfa_register 7
  44:.\Generated_Source\PSoC5/Counter_Tick_Timeout_PM.c ****     #if (!Counter_Tick_Timeout_UsingFixedFunction)
  45:.\Generated_Source\PSoC5/Counter_Tick_Timeout_PM.c ****         /* Backup the UDB non-rentention registers for PSoC5A */
  46:.\Generated_Source\PSoC5/Counter_Tick_Timeout_PM.c ****         #if (CY_PSOC5A)
  47:.\Generated_Source\PSoC5/Counter_Tick_Timeout_PM.c ****             Counter_Tick_Timeout_backup.CounterUdb = Counter_Tick_Timeout_ReadCounter();
  48:.\Generated_Source\PSoC5/Counter_Tick_Timeout_PM.c ****             Counter_Tick_Timeout_backup.CounterPeriod = Counter_Tick_Timeout_ReadPeriod();
  49:.\Generated_Source\PSoC5/Counter_Tick_Timeout_PM.c ****             Counter_Tick_Timeout_backup.CompareValue = Counter_Tick_Timeout_ReadCompare();
  50:.\Generated_Source\PSoC5/Counter_Tick_Timeout_PM.c ****             Counter_Tick_Timeout_backup.InterruptMaskValue = Counter_Tick_Timeout_STATUS_MASK;
  51:.\Generated_Source\PSoC5/Counter_Tick_Timeout_PM.c ****         #endif /* (CY_PSOC5A) */
  52:.\Generated_Source\PSoC5/Counter_Tick_Timeout_PM.c ****         
  53:.\Generated_Source\PSoC5/Counter_Tick_Timeout_PM.c ****         #if (CY_PSOC3 || CY_PSOC5LP)
  54:.\Generated_Source\PSoC5/Counter_Tick_Timeout_PM.c ****             Counter_Tick_Timeout_backup.CounterUdb = Counter_Tick_Timeout_ReadCounter();
  55:.\Generated_Source\PSoC5/Counter_Tick_Timeout_PM.c ****             Counter_Tick_Timeout_backup.InterruptMaskValue = Counter_Tick_Timeout_STATUS_MASK;
  56:.\Generated_Source\PSoC5/Counter_Tick_Timeout_PM.c ****         #endif /* (CY_PSOC3 || CY_PSOC5LP) */
  57:.\Generated_Source\PSoC5/Counter_Tick_Timeout_PM.c ****         
  58:.\Generated_Source\PSoC5/Counter_Tick_Timeout_PM.c ****         #if(!Counter_Tick_Timeout_ControlRegRemoved)
  59:.\Generated_Source\PSoC5/Counter_Tick_Timeout_PM.c ****             Counter_Tick_Timeout_backup.CounterControlRegister = Counter_Tick_Timeout_ReadControlRe
  60:.\Generated_Source\PSoC5/Counter_Tick_Timeout_PM.c ****         #endif /* (!Counter_Tick_Timeout_ControlRegRemoved) */
  61:.\Generated_Source\PSoC5/Counter_Tick_Timeout_PM.c ****     #endif /* (!Counter_Tick_Timeout_UsingFixedFunction) */
  62:.\Generated_Source\PSoC5/Counter_Tick_Timeout_PM.c **** }
ARM GAS  C:\Users\bccho\AppData\Local\Temp\ccKnmnRf.s 			page 3


  48              		.loc 1 62 0
  49 0004 BD46     		mov	sp, r7
  50 0006 80BC     		pop	{r7}
  51 0008 7047     		bx	lr
  52              		.cfi_endproc
  53              	.LFE0:
  54              		.size	Counter_Tick_Timeout_SaveConfig, .-Counter_Tick_Timeout_SaveConfig
  55 000a 00BF     		.section	.text.Counter_Tick_Timeout_RestoreConfig,"ax",%progbits
  56              		.align	2
  57              		.global	Counter_Tick_Timeout_RestoreConfig
  58              		.thumb
  59              		.thumb_func
  60              		.type	Counter_Tick_Timeout_RestoreConfig, %function
  61              	Counter_Tick_Timeout_RestoreConfig:
  62              	.LFB1:
  63:.\Generated_Source\PSoC5/Counter_Tick_Timeout_PM.c **** 
  64:.\Generated_Source\PSoC5/Counter_Tick_Timeout_PM.c **** 
  65:.\Generated_Source\PSoC5/Counter_Tick_Timeout_PM.c **** /*******************************************************************************
  66:.\Generated_Source\PSoC5/Counter_Tick_Timeout_PM.c **** * Function Name: Counter_Tick_Timeout_RestoreConfig
  67:.\Generated_Source\PSoC5/Counter_Tick_Timeout_PM.c **** ********************************************************************************
  68:.\Generated_Source\PSoC5/Counter_Tick_Timeout_PM.c **** *
  69:.\Generated_Source\PSoC5/Counter_Tick_Timeout_PM.c **** * Summary:
  70:.\Generated_Source\PSoC5/Counter_Tick_Timeout_PM.c **** *  Restores the current user configuration.
  71:.\Generated_Source\PSoC5/Counter_Tick_Timeout_PM.c **** *
  72:.\Generated_Source\PSoC5/Counter_Tick_Timeout_PM.c **** * Parameters:  
  73:.\Generated_Source\PSoC5/Counter_Tick_Timeout_PM.c **** *  void
  74:.\Generated_Source\PSoC5/Counter_Tick_Timeout_PM.c **** *
  75:.\Generated_Source\PSoC5/Counter_Tick_Timeout_PM.c **** * Return: 
  76:.\Generated_Source\PSoC5/Counter_Tick_Timeout_PM.c **** *  void
  77:.\Generated_Source\PSoC5/Counter_Tick_Timeout_PM.c **** *
  78:.\Generated_Source\PSoC5/Counter_Tick_Timeout_PM.c **** * Global variables:
  79:.\Generated_Source\PSoC5/Counter_Tick_Timeout_PM.c **** *  Counter_Tick_Timeout_backup:  Variables of this global structure are used to 
  80:.\Generated_Source\PSoC5/Counter_Tick_Timeout_PM.c **** *  restore the values of non retention registers on wakeup from sleep mode.
  81:.\Generated_Source\PSoC5/Counter_Tick_Timeout_PM.c **** *
  82:.\Generated_Source\PSoC5/Counter_Tick_Timeout_PM.c **** *******************************************************************************/
  83:.\Generated_Source\PSoC5/Counter_Tick_Timeout_PM.c **** void Counter_Tick_Timeout_RestoreConfig(void) 
  84:.\Generated_Source\PSoC5/Counter_Tick_Timeout_PM.c **** {      
  63              		.loc 1 84 0
  64              		.cfi_startproc
  65              		@ args = 0, pretend = 0, frame = 0
  66              		@ frame_needed = 1, uses_anonymous_args = 0
  67              		@ link register save eliminated.
  68 0000 80B4     		push	{r7}
  69              	.LCFI2:
  70              		.cfi_def_cfa_offset 4
  71 0002 00AF     		add	r7, sp, #0
  72              		.cfi_offset 7, -4
  73              	.LCFI3:
  74              		.cfi_def_cfa_register 7
  85:.\Generated_Source\PSoC5/Counter_Tick_Timeout_PM.c ****     #if (!Counter_Tick_Timeout_UsingFixedFunction)     
  86:.\Generated_Source\PSoC5/Counter_Tick_Timeout_PM.c ****         /* Restore the UDB non-rentention registers for PSoC5A */
  87:.\Generated_Source\PSoC5/Counter_Tick_Timeout_PM.c ****         #if (CY_PSOC5A)
  88:.\Generated_Source\PSoC5/Counter_Tick_Timeout_PM.c ****             /* Interrupt State Backup for Critical Region*/
  89:.\Generated_Source\PSoC5/Counter_Tick_Timeout_PM.c ****             uint8 Counter_Tick_Timeout_interruptState;
  90:.\Generated_Source\PSoC5/Counter_Tick_Timeout_PM.c ****         
  91:.\Generated_Source\PSoC5/Counter_Tick_Timeout_PM.c ****             Counter_Tick_Timeout_WriteCounter(Counter_Tick_Timeout_backup.CounterUdb);
  92:.\Generated_Source\PSoC5/Counter_Tick_Timeout_PM.c ****             Counter_Tick_Timeout_WritePeriod(Counter_Tick_Timeout_backup.CounterPeriod);
ARM GAS  C:\Users\bccho\AppData\Local\Temp\ccKnmnRf.s 			page 4


  93:.\Generated_Source\PSoC5/Counter_Tick_Timeout_PM.c ****             Counter_Tick_Timeout_WriteCompare(Counter_Tick_Timeout_backup.CompareValue);
  94:.\Generated_Source\PSoC5/Counter_Tick_Timeout_PM.c ****             /* Enter Critical Region*/
  95:.\Generated_Source\PSoC5/Counter_Tick_Timeout_PM.c ****             Counter_Tick_Timeout_interruptState = CyEnterCriticalSection();
  96:.\Generated_Source\PSoC5/Counter_Tick_Timeout_PM.c ****         
  97:.\Generated_Source\PSoC5/Counter_Tick_Timeout_PM.c ****             Counter_Tick_Timeout_STATUS_AUX_CTRL |= Counter_Tick_Timeout_STATUS_ACTL_INT_EN_MASK;
  98:.\Generated_Source\PSoC5/Counter_Tick_Timeout_PM.c ****             /* Exit Critical Region*/
  99:.\Generated_Source\PSoC5/Counter_Tick_Timeout_PM.c ****             CyExitCriticalSection(Counter_Tick_Timeout_interruptState);
 100:.\Generated_Source\PSoC5/Counter_Tick_Timeout_PM.c ****             Counter_Tick_Timeout_STATUS_MASK = Counter_Tick_Timeout_backup.InterruptMaskValue;
 101:.\Generated_Source\PSoC5/Counter_Tick_Timeout_PM.c ****         #endif  /* (CY_PSOC5A) */
 102:.\Generated_Source\PSoC5/Counter_Tick_Timeout_PM.c ****         
 103:.\Generated_Source\PSoC5/Counter_Tick_Timeout_PM.c ****         #if (CY_PSOC3 || CY_PSOC5LP)
 104:.\Generated_Source\PSoC5/Counter_Tick_Timeout_PM.c ****             Counter_Tick_Timeout_WriteCounter(Counter_Tick_Timeout_backup.CounterUdb);
 105:.\Generated_Source\PSoC5/Counter_Tick_Timeout_PM.c ****             Counter_Tick_Timeout_STATUS_MASK = Counter_Tick_Timeout_backup.InterruptMaskValue;
 106:.\Generated_Source\PSoC5/Counter_Tick_Timeout_PM.c ****         #endif /* (CY_PSOC3 || CY_PSOC5LP) */
 107:.\Generated_Source\PSoC5/Counter_Tick_Timeout_PM.c ****         
 108:.\Generated_Source\PSoC5/Counter_Tick_Timeout_PM.c ****         #if(!Counter_Tick_Timeout_ControlRegRemoved)
 109:.\Generated_Source\PSoC5/Counter_Tick_Timeout_PM.c ****             Counter_Tick_Timeout_WriteControlRegister(Counter_Tick_Timeout_backup.CounterControlReg
 110:.\Generated_Source\PSoC5/Counter_Tick_Timeout_PM.c ****         #endif /* (!Counter_Tick_Timeout_ControlRegRemoved) */
 111:.\Generated_Source\PSoC5/Counter_Tick_Timeout_PM.c ****     #endif /* (!Counter_Tick_Timeout_UsingFixedFunction) */
 112:.\Generated_Source\PSoC5/Counter_Tick_Timeout_PM.c **** }
  75              		.loc 1 112 0
  76 0004 BD46     		mov	sp, r7
  77 0006 80BC     		pop	{r7}
  78 0008 7047     		bx	lr
  79              		.cfi_endproc
  80              	.LFE1:
  81              		.size	Counter_Tick_Timeout_RestoreConfig, .-Counter_Tick_Timeout_RestoreConfig
  82 000a 00BF     		.section	.text.Counter_Tick_Timeout_Sleep,"ax",%progbits
  83              		.align	2
  84              		.global	Counter_Tick_Timeout_Sleep
  85              		.thumb
  86              		.thumb_func
  87              		.type	Counter_Tick_Timeout_Sleep, %function
  88              	Counter_Tick_Timeout_Sleep:
  89              	.LFB2:
 113:.\Generated_Source\PSoC5/Counter_Tick_Timeout_PM.c **** 
 114:.\Generated_Source\PSoC5/Counter_Tick_Timeout_PM.c **** 
 115:.\Generated_Source\PSoC5/Counter_Tick_Timeout_PM.c **** /*******************************************************************************
 116:.\Generated_Source\PSoC5/Counter_Tick_Timeout_PM.c **** * Function Name: Counter_Tick_Timeout_Sleep
 117:.\Generated_Source\PSoC5/Counter_Tick_Timeout_PM.c **** ********************************************************************************
 118:.\Generated_Source\PSoC5/Counter_Tick_Timeout_PM.c **** * Summary:
 119:.\Generated_Source\PSoC5/Counter_Tick_Timeout_PM.c **** *     Stop and Save the user configuration
 120:.\Generated_Source\PSoC5/Counter_Tick_Timeout_PM.c **** *
 121:.\Generated_Source\PSoC5/Counter_Tick_Timeout_PM.c **** * Parameters:  
 122:.\Generated_Source\PSoC5/Counter_Tick_Timeout_PM.c **** *  void
 123:.\Generated_Source\PSoC5/Counter_Tick_Timeout_PM.c **** *
 124:.\Generated_Source\PSoC5/Counter_Tick_Timeout_PM.c **** * Return: 
 125:.\Generated_Source\PSoC5/Counter_Tick_Timeout_PM.c **** *  void
 126:.\Generated_Source\PSoC5/Counter_Tick_Timeout_PM.c **** *
 127:.\Generated_Source\PSoC5/Counter_Tick_Timeout_PM.c **** * Global variables:
 128:.\Generated_Source\PSoC5/Counter_Tick_Timeout_PM.c **** *  Counter_Tick_Timeout_backup.enableState:  Is modified depending on the enable 
 129:.\Generated_Source\PSoC5/Counter_Tick_Timeout_PM.c **** *  state of the block before entering sleep mode.
 130:.\Generated_Source\PSoC5/Counter_Tick_Timeout_PM.c **** *
 131:.\Generated_Source\PSoC5/Counter_Tick_Timeout_PM.c **** *******************************************************************************/
 132:.\Generated_Source\PSoC5/Counter_Tick_Timeout_PM.c **** void Counter_Tick_Timeout_Sleep(void) 
 133:.\Generated_Source\PSoC5/Counter_Tick_Timeout_PM.c **** {
  90              		.loc 1 133 0
ARM GAS  C:\Users\bccho\AppData\Local\Temp\ccKnmnRf.s 			page 5


  91              		.cfi_startproc
  92              		@ args = 0, pretend = 0, frame = 0
  93              		@ frame_needed = 1, uses_anonymous_args = 0
  94 0000 80B5     		push	{r7, lr}
  95              	.LCFI4:
  96              		.cfi_def_cfa_offset 8
  97 0002 00AF     		add	r7, sp, #0
  98              		.cfi_offset 14, -4
  99              		.cfi_offset 7, -8
 100              	.LCFI5:
 101              		.cfi_def_cfa_register 7
 134:.\Generated_Source\PSoC5/Counter_Tick_Timeout_PM.c ****     #if(!Counter_Tick_Timeout_ControlRegRemoved)
 135:.\Generated_Source\PSoC5/Counter_Tick_Timeout_PM.c ****         /* Save Counter's enable state */
 136:.\Generated_Source\PSoC5/Counter_Tick_Timeout_PM.c ****         if(Counter_Tick_Timeout_CTRL_ENABLE == (Counter_Tick_Timeout_CONTROL & Counter_Tick_Timeout
 102              		.loc 1 136 0
 103 0004 44F60C73 		movw	r3, #:lower16:1073762060
 104 0008 C4F20003 		movt	r3, #:upper16:1073762060
 105 000c 1B78     		ldrb	r3, [r3, #0]
 106 000e DBB2     		uxtb	r3, r3
 107 0010 03F00103 		and	r3, r3, #1
 108 0014 DBB2     		uxtb	r3, r3
 109 0016 002B     		cmp	r3, #0
 110 0018 07D0     		beq	.L6
 137:.\Generated_Source\PSoC5/Counter_Tick_Timeout_PM.c ****         {
 138:.\Generated_Source\PSoC5/Counter_Tick_Timeout_PM.c ****             /* Counter is enabled */
 139:.\Generated_Source\PSoC5/Counter_Tick_Timeout_PM.c ****             Counter_Tick_Timeout_backup.CounterEnableState = 1u;
 111              		.loc 1 139 0
 112 001a 40F20003 		movw	r3, #:lower16:Counter_Tick_Timeout_backup
 113 001e C0F20003 		movt	r3, #:upper16:Counter_Tick_Timeout_backup
 114 0022 4FF00102 		mov	r2, #1
 115 0026 1A70     		strb	r2, [r3, #0]
 116 0028 06E0     		b	.L7
 117              	.L6:
 140:.\Generated_Source\PSoC5/Counter_Tick_Timeout_PM.c ****         }
 141:.\Generated_Source\PSoC5/Counter_Tick_Timeout_PM.c ****         else
 142:.\Generated_Source\PSoC5/Counter_Tick_Timeout_PM.c ****         {
 143:.\Generated_Source\PSoC5/Counter_Tick_Timeout_PM.c ****             /* Counter is disabled */
 144:.\Generated_Source\PSoC5/Counter_Tick_Timeout_PM.c ****             Counter_Tick_Timeout_backup.CounterEnableState = 0u;
 118              		.loc 1 144 0
 119 002a 40F20003 		movw	r3, #:lower16:Counter_Tick_Timeout_backup
 120 002e C0F20003 		movt	r3, #:upper16:Counter_Tick_Timeout_backup
 121 0032 4FF00002 		mov	r2, #0
 122 0036 1A70     		strb	r2, [r3, #0]
 123              	.L7:
 145:.\Generated_Source\PSoC5/Counter_Tick_Timeout_PM.c ****         }
 146:.\Generated_Source\PSoC5/Counter_Tick_Timeout_PM.c ****     #endif /* (!Counter_Tick_Timeout_ControlRegRemoved) */
 147:.\Generated_Source\PSoC5/Counter_Tick_Timeout_PM.c ****     Counter_Tick_Timeout_Stop();
 124              		.loc 1 147 0
 125 0038 FFF7FEFF 		bl	Counter_Tick_Timeout_Stop
 148:.\Generated_Source\PSoC5/Counter_Tick_Timeout_PM.c ****     Counter_Tick_Timeout_SaveConfig();
 126              		.loc 1 148 0
 127 003c FFF7FEFF 		bl	Counter_Tick_Timeout_SaveConfig
 149:.\Generated_Source\PSoC5/Counter_Tick_Timeout_PM.c **** }
 128              		.loc 1 149 0
 129 0040 80BD     		pop	{r7, pc}
 130              		.cfi_endproc
 131              	.LFE2:
ARM GAS  C:\Users\bccho\AppData\Local\Temp\ccKnmnRf.s 			page 6


 132              		.size	Counter_Tick_Timeout_Sleep, .-Counter_Tick_Timeout_Sleep
 133 0042 00BF     		.section	.text.Counter_Tick_Timeout_Wakeup,"ax",%progbits
 134              		.align	2
 135              		.global	Counter_Tick_Timeout_Wakeup
 136              		.thumb
 137              		.thumb_func
 138              		.type	Counter_Tick_Timeout_Wakeup, %function
 139              	Counter_Tick_Timeout_Wakeup:
 140              	.LFB3:
 150:.\Generated_Source\PSoC5/Counter_Tick_Timeout_PM.c **** 
 151:.\Generated_Source\PSoC5/Counter_Tick_Timeout_PM.c **** 
 152:.\Generated_Source\PSoC5/Counter_Tick_Timeout_PM.c **** /*******************************************************************************
 153:.\Generated_Source\PSoC5/Counter_Tick_Timeout_PM.c **** * Function Name: Counter_Tick_Timeout_Wakeup
 154:.\Generated_Source\PSoC5/Counter_Tick_Timeout_PM.c **** ********************************************************************************
 155:.\Generated_Source\PSoC5/Counter_Tick_Timeout_PM.c **** *
 156:.\Generated_Source\PSoC5/Counter_Tick_Timeout_PM.c **** * Summary:
 157:.\Generated_Source\PSoC5/Counter_Tick_Timeout_PM.c **** *  Restores and enables the user configuration
 158:.\Generated_Source\PSoC5/Counter_Tick_Timeout_PM.c **** *  
 159:.\Generated_Source\PSoC5/Counter_Tick_Timeout_PM.c **** * Parameters:  
 160:.\Generated_Source\PSoC5/Counter_Tick_Timeout_PM.c **** *  void
 161:.\Generated_Source\PSoC5/Counter_Tick_Timeout_PM.c **** *
 162:.\Generated_Source\PSoC5/Counter_Tick_Timeout_PM.c **** * Return: 
 163:.\Generated_Source\PSoC5/Counter_Tick_Timeout_PM.c **** *  void
 164:.\Generated_Source\PSoC5/Counter_Tick_Timeout_PM.c **** *
 165:.\Generated_Source\PSoC5/Counter_Tick_Timeout_PM.c **** * Global variables:
 166:.\Generated_Source\PSoC5/Counter_Tick_Timeout_PM.c **** *  Counter_Tick_Timeout_backup.enableState:  Is used to restore the enable state of 
 167:.\Generated_Source\PSoC5/Counter_Tick_Timeout_PM.c **** *  block on wakeup from sleep mode.
 168:.\Generated_Source\PSoC5/Counter_Tick_Timeout_PM.c **** *
 169:.\Generated_Source\PSoC5/Counter_Tick_Timeout_PM.c **** *******************************************************************************/
 170:.\Generated_Source\PSoC5/Counter_Tick_Timeout_PM.c **** void Counter_Tick_Timeout_Wakeup(void) 
 171:.\Generated_Source\PSoC5/Counter_Tick_Timeout_PM.c **** {
 141              		.loc 1 171 0
 142              		.cfi_startproc
 143              		@ args = 0, pretend = 0, frame = 0
 144              		@ frame_needed = 1, uses_anonymous_args = 0
 145 0000 80B5     		push	{r7, lr}
 146              	.LCFI6:
 147              		.cfi_def_cfa_offset 8
 148 0002 00AF     		add	r7, sp, #0
 149              		.cfi_offset 14, -4
 150              		.cfi_offset 7, -8
 151              	.LCFI7:
 152              		.cfi_def_cfa_register 7
 172:.\Generated_Source\PSoC5/Counter_Tick_Timeout_PM.c ****     Counter_Tick_Timeout_RestoreConfig();
 153              		.loc 1 172 0
 154 0004 FFF7FEFF 		bl	Counter_Tick_Timeout_RestoreConfig
 173:.\Generated_Source\PSoC5/Counter_Tick_Timeout_PM.c ****     #if(!Counter_Tick_Timeout_ControlRegRemoved)
 174:.\Generated_Source\PSoC5/Counter_Tick_Timeout_PM.c ****         if(Counter_Tick_Timeout_backup.CounterEnableState == 1u)
 155              		.loc 1 174 0
 156 0008 40F20003 		movw	r3, #:lower16:Counter_Tick_Timeout_backup
 157 000c C0F20003 		movt	r3, #:upper16:Counter_Tick_Timeout_backup
 158 0010 1B78     		ldrb	r3, [r3, #0]	@ zero_extendqisi2
 159 0012 012B     		cmp	r3, #1
 160 0014 01D1     		bne	.L11
 175:.\Generated_Source\PSoC5/Counter_Tick_Timeout_PM.c ****         {
 176:.\Generated_Source\PSoC5/Counter_Tick_Timeout_PM.c ****             /* Enable Counter's operation */
 177:.\Generated_Source\PSoC5/Counter_Tick_Timeout_PM.c ****             Counter_Tick_Timeout_Enable();
ARM GAS  C:\Users\bccho\AppData\Local\Temp\ccKnmnRf.s 			page 7


 161              		.loc 1 177 0
 162 0016 FFF7FEFF 		bl	Counter_Tick_Timeout_Enable
 163              	.L11:
 178:.\Generated_Source\PSoC5/Counter_Tick_Timeout_PM.c ****         } /* Do nothing if Counter was disabled before */    
 179:.\Generated_Source\PSoC5/Counter_Tick_Timeout_PM.c ****     #endif /* (!Counter_Tick_Timeout_ControlRegRemoved) */
 180:.\Generated_Source\PSoC5/Counter_Tick_Timeout_PM.c ****     
 181:.\Generated_Source\PSoC5/Counter_Tick_Timeout_PM.c **** }
 164              		.loc 1 181 0
 165 001a 80BD     		pop	{r7, pc}
 166              		.cfi_endproc
 167              	.LFE3:
 168              		.size	Counter_Tick_Timeout_Wakeup, .-Counter_Tick_Timeout_Wakeup
 169              		.text
 170              	.Letext0: