ARM GAS  C:\Users\bccho\AppData\Local\Temp\ccSh2Rm7.s 			page 1


   1              		.syntax unified
   2              		.cpu cortex-m3
   3              		.fpu softvfp
   4              		.eabi_attribute 20, 1
   5              		.eabi_attribute 21, 1
   6              		.eabi_attribute 23, 3
   7              		.eabi_attribute 24, 1
   8              		.eabi_attribute 25, 1
   9              		.eabi_attribute 26, 1
  10              		.eabi_attribute 30, 6
  11              		.eabi_attribute 18, 4
  12              		.thumb
  13              		.file	"Counter_First_Row.c"
  20 0000 A7010000 		.text
  20      02006A00 
  20      00000201 
  20      FB0E0D00 
  20      01010101 
  21              	.Ltext0:
  22              		.cfi_sections	.debug_frame
  23              		.global	Counter_First_Row_initVar
  24              		.bss
  25              		.type	Counter_First_Row_initVar, %object
  26              		.size	Counter_First_Row_initVar, 1
  27              	Counter_First_Row_initVar:
  28 0000 00       		.space	1
  29              		.section	.text.Counter_First_Row_Init,"ax",%progbits
  30              		.align	2
  31              		.global	Counter_First_Row_Init
  32              		.thumb
  33              		.thumb_func
  34              		.type	Counter_First_Row_Init, %function
  35              	Counter_First_Row_Init:
  36              	.LFB0:
  37              		.file 1 ".\\Generated_Source\\PSoC5\\Counter_First_Row.c"
   1:.\Generated_Source\PSoC5/Counter_First_Row.c **** /*******************************************************************************
   2:.\Generated_Source\PSoC5/Counter_First_Row.c **** * File Name: Counter_First_Row.c  
   3:.\Generated_Source\PSoC5/Counter_First_Row.c **** * Version 2.20
   4:.\Generated_Source\PSoC5/Counter_First_Row.c **** *
   5:.\Generated_Source\PSoC5/Counter_First_Row.c **** *  Description:
   6:.\Generated_Source\PSoC5/Counter_First_Row.c **** *     The Counter component consists of a 8, 16, 24 or 32-bit counter with
   7:.\Generated_Source\PSoC5/Counter_First_Row.c **** *     a selectable period between 2 and 2^Width - 1.  
   8:.\Generated_Source\PSoC5/Counter_First_Row.c **** *
   9:.\Generated_Source\PSoC5/Counter_First_Row.c **** *   Note:
  10:.\Generated_Source\PSoC5/Counter_First_Row.c **** *     None
  11:.\Generated_Source\PSoC5/Counter_First_Row.c **** *
  12:.\Generated_Source\PSoC5/Counter_First_Row.c **** *******************************************************************************
  13:.\Generated_Source\PSoC5/Counter_First_Row.c **** * Copyright 2008-2012, Cypress Semiconductor Corporation.  All rights reserved.
  14:.\Generated_Source\PSoC5/Counter_First_Row.c **** * You may use this file only in accordance with the license, terms, conditions, 
  15:.\Generated_Source\PSoC5/Counter_First_Row.c **** * disclaimers, and limitations in the end user license agreement accompanying 
  16:.\Generated_Source\PSoC5/Counter_First_Row.c **** * the software package with which this file was provided.
ARM GAS  C:\Users\bccho\AppData\Local\Temp\ccSh2Rm7.s 			page 2


  17:.\Generated_Source\PSoC5/Counter_First_Row.c **** ********************************************************************************/
  18:.\Generated_Source\PSoC5/Counter_First_Row.c **** 
  19:.\Generated_Source\PSoC5/Counter_First_Row.c **** #include "Counter_First_Row.h"
  20:.\Generated_Source\PSoC5/Counter_First_Row.c **** 
  21:.\Generated_Source\PSoC5/Counter_First_Row.c **** uint8 Counter_First_Row_initVar = 0u;
  22:.\Generated_Source\PSoC5/Counter_First_Row.c **** 
  23:.\Generated_Source\PSoC5/Counter_First_Row.c **** 
  24:.\Generated_Source\PSoC5/Counter_First_Row.c **** /*******************************************************************************
  25:.\Generated_Source\PSoC5/Counter_First_Row.c **** * Function Name: Counter_First_Row_Init
  26:.\Generated_Source\PSoC5/Counter_First_Row.c **** ********************************************************************************
  27:.\Generated_Source\PSoC5/Counter_First_Row.c **** * Summary:
  28:.\Generated_Source\PSoC5/Counter_First_Row.c **** *     Initialize to the schematic state
  29:.\Generated_Source\PSoC5/Counter_First_Row.c **** * 
  30:.\Generated_Source\PSoC5/Counter_First_Row.c **** * Parameters:  
  31:.\Generated_Source\PSoC5/Counter_First_Row.c **** *  void  
  32:.\Generated_Source\PSoC5/Counter_First_Row.c **** *
  33:.\Generated_Source\PSoC5/Counter_First_Row.c **** * Return: 
  34:.\Generated_Source\PSoC5/Counter_First_Row.c **** *  void
  35:.\Generated_Source\PSoC5/Counter_First_Row.c **** *
  36:.\Generated_Source\PSoC5/Counter_First_Row.c **** *******************************************************************************/
  37:.\Generated_Source\PSoC5/Counter_First_Row.c **** void Counter_First_Row_Init(void) 
  38:.\Generated_Source\PSoC5/Counter_First_Row.c **** {
  38              		.loc 1 38 0
  39              		.cfi_startproc
  40              		@ args = 0, pretend = 0, frame = 8
  41              		@ frame_needed = 1, uses_anonymous_args = 0
  42 0000 80B5     		push	{r7, lr}
  43              	.LCFI0:
  44              		.cfi_def_cfa_offset 8
  45 0002 82B0     		sub	sp, sp, #8
  46              	.LCFI1:
  47              		.cfi_def_cfa_offset 16
  48 0004 00AF     		add	r7, sp, #0
  49              		.cfi_offset 14, -4
  50              		.cfi_offset 7, -8
  51              	.LCFI2:
  52              		.cfi_def_cfa_register 7
  39:.\Generated_Source\PSoC5/Counter_First_Row.c ****         #if (!Counter_First_Row_UsingFixedFunction && !Counter_First_Row_ControlRegRemoved)
  40:.\Generated_Source\PSoC5/Counter_First_Row.c ****             uint8 ctrl;
  41:.\Generated_Source\PSoC5/Counter_First_Row.c ****         #endif /* (!Counter_First_Row_UsingFixedFunction && !Counter_First_Row_ControlRegRemoved) *
  42:.\Generated_Source\PSoC5/Counter_First_Row.c ****         
  43:.\Generated_Source\PSoC5/Counter_First_Row.c ****         #if(!Counter_First_Row_UsingFixedFunction) 
  44:.\Generated_Source\PSoC5/Counter_First_Row.c ****             /* Interrupt State Backup for Critical Region*/
  45:.\Generated_Source\PSoC5/Counter_First_Row.c ****             uint8 Counter_First_Row_interruptState;
  46:.\Generated_Source\PSoC5/Counter_First_Row.c ****         #endif /* (!Counter_First_Row_UsingFixedFunction) */
  47:.\Generated_Source\PSoC5/Counter_First_Row.c ****         
  48:.\Generated_Source\PSoC5/Counter_First_Row.c ****         #if (Counter_First_Row_UsingFixedFunction)
  49:.\Generated_Source\PSoC5/Counter_First_Row.c ****             /* Clear all bits but the enable bit (if it's already set for Timer operation */
  50:.\Generated_Source\PSoC5/Counter_First_Row.c ****             Counter_First_Row_CONTROL &= Counter_First_Row_CTRL_ENABLE;
  51:.\Generated_Source\PSoC5/Counter_First_Row.c ****             
  52:.\Generated_Source\PSoC5/Counter_First_Row.c ****             /* Clear the mode bits for continuous run mode */
  53:.\Generated_Source\PSoC5/Counter_First_Row.c ****             #if (CY_PSOC5A)
  54:.\Generated_Source\PSoC5/Counter_First_Row.c ****                 Counter_First_Row_CONTROL2 &= ~Counter_First_Row_CTRL_MODE_MASK;
  55:.\Generated_Source\PSoC5/Counter_First_Row.c ****             #endif /* (CY_PSOC5A) */
  56:.\Generated_Source\PSoC5/Counter_First_Row.c ****             #if (CY_PSOC3 || CY_PSOC5LP)
  57:.\Generated_Source\PSoC5/Counter_First_Row.c ****                 Counter_First_Row_CONTROL3 &= ~Counter_First_Row_CTRL_MODE_MASK;                
  58:.\Generated_Source\PSoC5/Counter_First_Row.c ****             #endif /* (CY_PSOC3 || CY_PSOC5LP) */
ARM GAS  C:\Users\bccho\AppData\Local\Temp\ccSh2Rm7.s 			page 3


  59:.\Generated_Source\PSoC5/Counter_First_Row.c ****             /* Check if One Shot mode is enabled i.e. RunMode !=0*/
  60:.\Generated_Source\PSoC5/Counter_First_Row.c ****             #if (Counter_First_Row_RunModeUsed != 0x0u)
  61:.\Generated_Source\PSoC5/Counter_First_Row.c ****                 /* Set 3rd bit of Control register to enable one shot mode */
  62:.\Generated_Source\PSoC5/Counter_First_Row.c ****                 Counter_First_Row_CONTROL |= Counter_First_Row_ONESHOT;
  63:.\Generated_Source\PSoC5/Counter_First_Row.c ****             #endif /* (Counter_First_Row_RunModeUsed != 0x0u) */
  64:.\Generated_Source\PSoC5/Counter_First_Row.c ****             
  65:.\Generated_Source\PSoC5/Counter_First_Row.c ****             /* Set the IRQ to use the status register interrupts */
  66:.\Generated_Source\PSoC5/Counter_First_Row.c ****             Counter_First_Row_CONTROL2 |= Counter_First_Row_CTRL2_IRQ_SEL;
  67:.\Generated_Source\PSoC5/Counter_First_Row.c ****             
  68:.\Generated_Source\PSoC5/Counter_First_Row.c ****             /* Clear and Set SYNCTC and SYNCCMP bits of RT1 register */
  69:.\Generated_Source\PSoC5/Counter_First_Row.c ****             Counter_First_Row_RT1 &= ~Counter_First_Row_RT1_MASK;
  70:.\Generated_Source\PSoC5/Counter_First_Row.c ****             Counter_First_Row_RT1 |= Counter_First_Row_SYNC;     
  71:.\Generated_Source\PSoC5/Counter_First_Row.c ****                     
  72:.\Generated_Source\PSoC5/Counter_First_Row.c ****             /*Enable DSI Sync all all inputs of the Timer*/
  73:.\Generated_Source\PSoC5/Counter_First_Row.c ****             Counter_First_Row_RT1 &= ~(Counter_First_Row_SYNCDSI_MASK);
  74:.\Generated_Source\PSoC5/Counter_First_Row.c ****             Counter_First_Row_RT1 |= Counter_First_Row_SYNCDSI_EN;
  75:.\Generated_Source\PSoC5/Counter_First_Row.c **** 
  76:.\Generated_Source\PSoC5/Counter_First_Row.c ****         #else
  77:.\Generated_Source\PSoC5/Counter_First_Row.c ****             #if(!Counter_First_Row_ControlRegRemoved)
  78:.\Generated_Source\PSoC5/Counter_First_Row.c ****             /* Set the default compare mode defined in the parameter */
  79:.\Generated_Source\PSoC5/Counter_First_Row.c ****             ctrl = Counter_First_Row_CONTROL & ~Counter_First_Row_CTRL_CMPMODE_MASK;
  53              		.loc 1 79 0
  54 0006 46F27853 		movw	r3, #:lower16:1073767800
  55 000a C4F20003 		movt	r3, #:upper16:1073767800
  56 000e 1B78     		ldrb	r3, [r3, #0]
  57 0010 DBB2     		uxtb	r3, r3
  58 0012 23F00703 		bic	r3, r3, #7
  59 0016 BB71     		strb	r3, [r7, #6]
  80:.\Generated_Source\PSoC5/Counter_First_Row.c ****             Counter_First_Row_CONTROL = ctrl | Counter_First_Row_DEFAULT_COMPARE_MODE;
  60              		.loc 1 80 0
  61 0018 46F27853 		movw	r3, #:lower16:1073767800
  62 001c C4F20003 		movt	r3, #:upper16:1073767800
  63 0020 BA79     		ldrb	r2, [r7, #6]
  64 0022 1A70     		strb	r2, [r3, #0]
  81:.\Generated_Source\PSoC5/Counter_First_Row.c ****             
  82:.\Generated_Source\PSoC5/Counter_First_Row.c ****             /* Set the default capture mode defined in the parameter */
  83:.\Generated_Source\PSoC5/Counter_First_Row.c ****             ctrl = Counter_First_Row_CONTROL & ~Counter_First_Row_CTRL_CAPMODE_MASK;
  65              		.loc 1 83 0
  66 0024 46F27853 		movw	r3, #:lower16:1073767800
  67 0028 C4F20003 		movt	r3, #:upper16:1073767800
  68 002c 1B78     		ldrb	r3, [r3, #0]
  69 002e DBB2     		uxtb	r3, r3
  70 0030 23F01803 		bic	r3, r3, #24
  71 0034 BB71     		strb	r3, [r7, #6]
  84:.\Generated_Source\PSoC5/Counter_First_Row.c ****             Counter_First_Row_CONTROL = ctrl | Counter_First_Row_DEFAULT_CAPTURE_MODE;
  72              		.loc 1 84 0
  73 0036 46F27853 		movw	r3, #:lower16:1073767800
  74 003a C4F20003 		movt	r3, #:upper16:1073767800
  75 003e BA79     		ldrb	r2, [r7, #6]
  76 0040 1A70     		strb	r2, [r3, #0]
  85:.\Generated_Source\PSoC5/Counter_First_Row.c ****             #endif /* (!Counter_First_Row_ControlRegRemoved) */
  86:.\Generated_Source\PSoC5/Counter_First_Row.c ****         #endif /* (Counter_First_Row_UsingFixedFunction) */
  87:.\Generated_Source\PSoC5/Counter_First_Row.c ****         
  88:.\Generated_Source\PSoC5/Counter_First_Row.c ****         /* Clear all data in the FIFO's */
  89:.\Generated_Source\PSoC5/Counter_First_Row.c ****         #if (!Counter_First_Row_UsingFixedFunction)
  90:.\Generated_Source\PSoC5/Counter_First_Row.c ****             Counter_First_Row_ClearFIFO();
  77              		.loc 1 90 0
ARM GAS  C:\Users\bccho\AppData\Local\Temp\ccSh2Rm7.s 			page 4


  78 0042 FFF7FEFF 		bl	Counter_First_Row_ClearFIFO
  91:.\Generated_Source\PSoC5/Counter_First_Row.c ****         #endif /* (!Counter_First_Row_UsingFixedFunction) */
  92:.\Generated_Source\PSoC5/Counter_First_Row.c ****         
  93:.\Generated_Source\PSoC5/Counter_First_Row.c ****         /* Set Initial values from Configuration */
  94:.\Generated_Source\PSoC5/Counter_First_Row.c ****         Counter_First_Row_WritePeriod(Counter_First_Row_INIT_PERIOD_VALUE);
  79              		.loc 1 94 0
  80 0046 4FF0FF00 		mov	r0, #255
  81 004a FFF7FEFF 		bl	Counter_First_Row_WritePeriod
  95:.\Generated_Source\PSoC5/Counter_First_Row.c ****         #if (!(Counter_First_Row_UsingFixedFunction && (CY_PSOC5A)))
  96:.\Generated_Source\PSoC5/Counter_First_Row.c ****             Counter_First_Row_WriteCounter(Counter_First_Row_INIT_COUNTER_VALUE);
  82              		.loc 1 96 0
  83 004e 4FF00000 		mov	r0, #0
  84 0052 FFF7FEFF 		bl	Counter_First_Row_WriteCounter
  97:.\Generated_Source\PSoC5/Counter_First_Row.c ****         #endif /* (!(Counter_First_Row_UsingFixedFunction && (CY_PSOC5A))) */
  98:.\Generated_Source\PSoC5/Counter_First_Row.c ****         Counter_First_Row_SetInterruptMode(Counter_First_Row_INIT_INTERRUPTS_MASK);
  85              		.loc 1 98 0
  86 0056 4FF00100 		mov	r0, #1
  87 005a FFF7FEFF 		bl	Counter_First_Row_SetInterruptMode
  99:.\Generated_Source\PSoC5/Counter_First_Row.c ****         
 100:.\Generated_Source\PSoC5/Counter_First_Row.c ****         #if (!Counter_First_Row_UsingFixedFunction)
 101:.\Generated_Source\PSoC5/Counter_First_Row.c ****             /* Read the status register to clear the unwanted interrupts */
 102:.\Generated_Source\PSoC5/Counter_First_Row.c ****             Counter_First_Row_ReadStatusRegister();
  88              		.loc 1 102 0
  89 005e FFF7FEFF 		bl	Counter_First_Row_ReadStatusRegister
 103:.\Generated_Source\PSoC5/Counter_First_Row.c ****             /* Set the compare value (only available to non-fixed function implementation */
 104:.\Generated_Source\PSoC5/Counter_First_Row.c ****             Counter_First_Row_WriteCompare(Counter_First_Row_INIT_COMPARE_VALUE);
  90              		.loc 1 104 0
  91 0062 4FF00500 		mov	r0, #5
  92 0066 FFF7FEFF 		bl	Counter_First_Row_WriteCompare
 105:.\Generated_Source\PSoC5/Counter_First_Row.c ****             /* Use the interrupt output of the status register for IRQ output */
 106:.\Generated_Source\PSoC5/Counter_First_Row.c ****             
 107:.\Generated_Source\PSoC5/Counter_First_Row.c ****             /* CyEnterCriticalRegion and CyExitCriticalRegion are used to mark following region cri
 108:.\Generated_Source\PSoC5/Counter_First_Row.c ****             /* Enter Critical Region*/
 109:.\Generated_Source\PSoC5/Counter_First_Row.c ****             Counter_First_Row_interruptState = CyEnterCriticalSection();
  93              		.loc 1 109 0
  94 006a FFF7FEFF 		bl	CyEnterCriticalSection
  95 006e 0346     		mov	r3, r0
  96 0070 FB71     		strb	r3, [r7, #7]
 110:.\Generated_Source\PSoC5/Counter_First_Row.c ****             
 111:.\Generated_Source\PSoC5/Counter_First_Row.c ****             Counter_First_Row_STATUS_AUX_CTRL |= Counter_First_Row_STATUS_ACTL_INT_EN_MASK;
  97              		.loc 1 111 0
  98 0072 46F29B53 		movw	r3, #:lower16:1073767835
  99 0076 C4F20003 		movt	r3, #:upper16:1073767835
 100 007a 46F29B52 		movw	r2, #:lower16:1073767835
 101 007e C4F20002 		movt	r2, #:upper16:1073767835
 102 0082 1278     		ldrb	r2, [r2, #0]
 103 0084 D2B2     		uxtb	r2, r2
 104 0086 42F01002 		orr	r2, r2, #16
 105 008a D2B2     		uxtb	r2, r2
 106 008c 1A70     		strb	r2, [r3, #0]
 112:.\Generated_Source\PSoC5/Counter_First_Row.c ****             
 113:.\Generated_Source\PSoC5/Counter_First_Row.c ****             /* Exit Critical Region*/
 114:.\Generated_Source\PSoC5/Counter_First_Row.c ****             CyExitCriticalSection(Counter_First_Row_interruptState);
 107              		.loc 1 114 0
 108 008e FB79     		ldrb	r3, [r7, #7]	@ zero_extendqisi2
 109 0090 1846     		mov	r0, r3
 110 0092 FFF7FEFF 		bl	CyExitCriticalSection
ARM GAS  C:\Users\bccho\AppData\Local\Temp\ccSh2Rm7.s 			page 5


 115:.\Generated_Source\PSoC5/Counter_First_Row.c ****             
 116:.\Generated_Source\PSoC5/Counter_First_Row.c ****         #endif /* (!Counter_First_Row_UsingFixedFunction) */
 117:.\Generated_Source\PSoC5/Counter_First_Row.c **** }
 111              		.loc 1 117 0
 112 0096 07F10807 		add	r7, r7, #8
 113 009a BD46     		mov	sp, r7
 114 009c 80BD     		pop	{r7, pc}
 115              		.cfi_endproc
 116              	.LFE0:
 117              		.size	Counter_First_Row_Init, .-Counter_First_Row_Init
 118 009e 00BF     		.section	.text.Counter_First_Row_Enable,"ax",%progbits
 119              		.align	2
 120              		.global	Counter_First_Row_Enable
 121              		.thumb
 122              		.thumb_func
 123              		.type	Counter_First_Row_Enable, %function
 124              	Counter_First_Row_Enable:
 125              	.LFB1:
 118:.\Generated_Source\PSoC5/Counter_First_Row.c **** 
 119:.\Generated_Source\PSoC5/Counter_First_Row.c **** 
 120:.\Generated_Source\PSoC5/Counter_First_Row.c **** /*******************************************************************************
 121:.\Generated_Source\PSoC5/Counter_First_Row.c **** * Function Name: Counter_First_Row_Enable
 122:.\Generated_Source\PSoC5/Counter_First_Row.c **** ********************************************************************************
 123:.\Generated_Source\PSoC5/Counter_First_Row.c **** * Summary:
 124:.\Generated_Source\PSoC5/Counter_First_Row.c **** *     Enable the Counter
 125:.\Generated_Source\PSoC5/Counter_First_Row.c **** * 
 126:.\Generated_Source\PSoC5/Counter_First_Row.c **** * Parameters:  
 127:.\Generated_Source\PSoC5/Counter_First_Row.c **** *  void  
 128:.\Generated_Source\PSoC5/Counter_First_Row.c **** *
 129:.\Generated_Source\PSoC5/Counter_First_Row.c **** * Return: 
 130:.\Generated_Source\PSoC5/Counter_First_Row.c **** *  void
 131:.\Generated_Source\PSoC5/Counter_First_Row.c **** *
 132:.\Generated_Source\PSoC5/Counter_First_Row.c **** * Side Effects: 
 133:.\Generated_Source\PSoC5/Counter_First_Row.c **** *   If the Enable mode is set to Hardware only then this function has no effect 
 134:.\Generated_Source\PSoC5/Counter_First_Row.c **** *   on the operation of the counter.
 135:.\Generated_Source\PSoC5/Counter_First_Row.c **** *
 136:.\Generated_Source\PSoC5/Counter_First_Row.c **** *******************************************************************************/
 137:.\Generated_Source\PSoC5/Counter_First_Row.c **** void Counter_First_Row_Enable(void) 
 138:.\Generated_Source\PSoC5/Counter_First_Row.c **** {
 126              		.loc 1 138 0
 127              		.cfi_startproc
 128              		@ args = 0, pretend = 0, frame = 0
 129              		@ frame_needed = 1, uses_anonymous_args = 0
 130              		@ link register save eliminated.
 131 0000 80B4     		push	{r7}
 132              	.LCFI3:
 133              		.cfi_def_cfa_offset 4
 134 0002 00AF     		add	r7, sp, #0
 135              		.cfi_offset 7, -4
 136              	.LCFI4:
 137              		.cfi_def_cfa_register 7
 139:.\Generated_Source\PSoC5/Counter_First_Row.c ****     /* Globally Enable the Fixed Function Block chosen */
 140:.\Generated_Source\PSoC5/Counter_First_Row.c ****     #if (Counter_First_Row_UsingFixedFunction)
 141:.\Generated_Source\PSoC5/Counter_First_Row.c ****         Counter_First_Row_GLOBAL_ENABLE |= Counter_First_Row_BLOCK_EN_MASK;
 142:.\Generated_Source\PSoC5/Counter_First_Row.c ****         Counter_First_Row_GLOBAL_STBY_ENABLE |= Counter_First_Row_BLOCK_STBY_EN_MASK;
 143:.\Generated_Source\PSoC5/Counter_First_Row.c ****     #endif /* (Counter_First_Row_UsingFixedFunction) */  
 144:.\Generated_Source\PSoC5/Counter_First_Row.c ****         
ARM GAS  C:\Users\bccho\AppData\Local\Temp\ccSh2Rm7.s 			page 6


 145:.\Generated_Source\PSoC5/Counter_First_Row.c ****     /* Enable the counter from the control register  */
 146:.\Generated_Source\PSoC5/Counter_First_Row.c ****     /* If Fixed Function then make sure Mode is set correctly */
 147:.\Generated_Source\PSoC5/Counter_First_Row.c ****     /* else make sure reset is clear */
 148:.\Generated_Source\PSoC5/Counter_First_Row.c ****     #if(!Counter_First_Row_ControlRegRemoved || Counter_First_Row_UsingFixedFunction)
 149:.\Generated_Source\PSoC5/Counter_First_Row.c ****         Counter_First_Row_CONTROL |= Counter_First_Row_CTRL_ENABLE;                
 138              		.loc 1 149 0
 139 0004 46F27853 		movw	r3, #:lower16:1073767800
 140 0008 C4F20003 		movt	r3, #:upper16:1073767800
 141 000c 46F27852 		movw	r2, #:lower16:1073767800
 142 0010 C4F20002 		movt	r2, #:upper16:1073767800
 143 0014 1278     		ldrb	r2, [r2, #0]
 144 0016 D2B2     		uxtb	r2, r2
 145 0018 6FEA4262 		mvn	r2, r2, lsl #25
 146 001c 6FEA5262 		mvn	r2, r2, lsr #25
 147 0020 D2B2     		uxtb	r2, r2
 148 0022 1A70     		strb	r2, [r3, #0]
 150:.\Generated_Source\PSoC5/Counter_First_Row.c ****     #endif /* (!Counter_First_Row_ControlRegRemoved || Counter_First_Row_UsingFixedFunction) */
 151:.\Generated_Source\PSoC5/Counter_First_Row.c ****     
 152:.\Generated_Source\PSoC5/Counter_First_Row.c **** }
 149              		.loc 1 152 0
 150 0024 BD46     		mov	sp, r7
 151 0026 80BC     		pop	{r7}
 152 0028 7047     		bx	lr
 153              		.cfi_endproc
 154              	.LFE1:
 155              		.size	Counter_First_Row_Enable, .-Counter_First_Row_Enable
 156 002a 00BF     		.section	.text.Counter_First_Row_Start,"ax",%progbits
 157              		.align	2
 158              		.global	Counter_First_Row_Start
 159              		.thumb
 160              		.thumb_func
 161              		.type	Counter_First_Row_Start, %function
 162              	Counter_First_Row_Start:
 163              	.LFB2:
 153:.\Generated_Source\PSoC5/Counter_First_Row.c **** 
 154:.\Generated_Source\PSoC5/Counter_First_Row.c **** 
 155:.\Generated_Source\PSoC5/Counter_First_Row.c **** /*******************************************************************************
 156:.\Generated_Source\PSoC5/Counter_First_Row.c **** * Function Name: Counter_First_Row_Start
 157:.\Generated_Source\PSoC5/Counter_First_Row.c **** ********************************************************************************
 158:.\Generated_Source\PSoC5/Counter_First_Row.c **** * Summary:
 159:.\Generated_Source\PSoC5/Counter_First_Row.c **** *  Enables the counter for operation 
 160:.\Generated_Source\PSoC5/Counter_First_Row.c **** *
 161:.\Generated_Source\PSoC5/Counter_First_Row.c **** * Parameters:  
 162:.\Generated_Source\PSoC5/Counter_First_Row.c **** *  void  
 163:.\Generated_Source\PSoC5/Counter_First_Row.c **** *
 164:.\Generated_Source\PSoC5/Counter_First_Row.c **** * Return: 
 165:.\Generated_Source\PSoC5/Counter_First_Row.c **** *  void
 166:.\Generated_Source\PSoC5/Counter_First_Row.c **** *
 167:.\Generated_Source\PSoC5/Counter_First_Row.c **** * Global variables:
 168:.\Generated_Source\PSoC5/Counter_First_Row.c **** *  Counter_First_Row_initVar: Is modified when this function is called for the  
 169:.\Generated_Source\PSoC5/Counter_First_Row.c **** *   first time. Is used to ensure that initialization happens only once.
 170:.\Generated_Source\PSoC5/Counter_First_Row.c **** *
 171:.\Generated_Source\PSoC5/Counter_First_Row.c **** *******************************************************************************/
 172:.\Generated_Source\PSoC5/Counter_First_Row.c **** void Counter_First_Row_Start(void) 
 173:.\Generated_Source\PSoC5/Counter_First_Row.c **** {
 164              		.loc 1 173 0
 165              		.cfi_startproc
ARM GAS  C:\Users\bccho\AppData\Local\Temp\ccSh2Rm7.s 			page 7


 166              		@ args = 0, pretend = 0, frame = 0
 167              		@ frame_needed = 1, uses_anonymous_args = 0
 168 0000 80B5     		push	{r7, lr}
 169              	.LCFI5:
 170              		.cfi_def_cfa_offset 8
 171 0002 00AF     		add	r7, sp, #0
 172              		.cfi_offset 14, -4
 173              		.cfi_offset 7, -8
 174              	.LCFI6:
 175              		.cfi_def_cfa_register 7
 174:.\Generated_Source\PSoC5/Counter_First_Row.c ****     if(Counter_First_Row_initVar == 0u)
 176              		.loc 1 174 0
 177 0004 40F20003 		movw	r3, #:lower16:Counter_First_Row_initVar
 178 0008 C0F20003 		movt	r3, #:upper16:Counter_First_Row_initVar
 179 000c 1B78     		ldrb	r3, [r3, #0]	@ zero_extendqisi2
 180 000e 002B     		cmp	r3, #0
 181 0010 08D1     		bne	.L6
 175:.\Generated_Source\PSoC5/Counter_First_Row.c ****     {
 176:.\Generated_Source\PSoC5/Counter_First_Row.c ****         Counter_First_Row_Init();
 182              		.loc 1 176 0
 183 0012 FFF7FEFF 		bl	Counter_First_Row_Init
 177:.\Generated_Source\PSoC5/Counter_First_Row.c ****         
 178:.\Generated_Source\PSoC5/Counter_First_Row.c ****         Counter_First_Row_initVar = 1u; /* Clear this bit for Initialization */        
 184              		.loc 1 178 0
 185 0016 40F20003 		movw	r3, #:lower16:Counter_First_Row_initVar
 186 001a C0F20003 		movt	r3, #:upper16:Counter_First_Row_initVar
 187 001e 4FF00102 		mov	r2, #1
 188 0022 1A70     		strb	r2, [r3, #0]
 189              	.L6:
 179:.\Generated_Source\PSoC5/Counter_First_Row.c ****     }
 180:.\Generated_Source\PSoC5/Counter_First_Row.c ****     
 181:.\Generated_Source\PSoC5/Counter_First_Row.c ****     /* Enable the Counter */
 182:.\Generated_Source\PSoC5/Counter_First_Row.c ****     Counter_First_Row_Enable();        
 190              		.loc 1 182 0
 191 0024 FFF7FEFF 		bl	Counter_First_Row_Enable
 183:.\Generated_Source\PSoC5/Counter_First_Row.c **** }
 192              		.loc 1 183 0
 193 0028 80BD     		pop	{r7, pc}
 194              		.cfi_endproc
 195              	.LFE2:
 196              		.size	Counter_First_Row_Start, .-Counter_First_Row_Start
 197 002a 00BF     		.section	.text.Counter_First_Row_Stop,"ax",%progbits
 198              		.align	2
 199              		.global	Counter_First_Row_Stop
 200              		.thumb
 201              		.thumb_func
 202              		.type	Counter_First_Row_Stop, %function
 203              	Counter_First_Row_Stop:
 204              	.LFB3:
 184:.\Generated_Source\PSoC5/Counter_First_Row.c **** 
 185:.\Generated_Source\PSoC5/Counter_First_Row.c **** 
 186:.\Generated_Source\PSoC5/Counter_First_Row.c **** /*******************************************************************************
 187:.\Generated_Source\PSoC5/Counter_First_Row.c **** * Function Name: Counter_First_Row_Stop
 188:.\Generated_Source\PSoC5/Counter_First_Row.c **** ********************************************************************************
 189:.\Generated_Source\PSoC5/Counter_First_Row.c **** * Summary:
 190:.\Generated_Source\PSoC5/Counter_First_Row.c **** * Halts the counter, but does not change any modes or disable interrupts.
 191:.\Generated_Source\PSoC5/Counter_First_Row.c **** *
ARM GAS  C:\Users\bccho\AppData\Local\Temp\ccSh2Rm7.s 			page 8


 192:.\Generated_Source\PSoC5/Counter_First_Row.c **** * Parameters:  
 193:.\Generated_Source\PSoC5/Counter_First_Row.c **** *  void  
 194:.\Generated_Source\PSoC5/Counter_First_Row.c **** *
 195:.\Generated_Source\PSoC5/Counter_First_Row.c **** * Return: 
 196:.\Generated_Source\PSoC5/Counter_First_Row.c **** *  void
 197:.\Generated_Source\PSoC5/Counter_First_Row.c **** *
 198:.\Generated_Source\PSoC5/Counter_First_Row.c **** * Side Effects: If the Enable mode is set to Hardware only then this function
 199:.\Generated_Source\PSoC5/Counter_First_Row.c **** *               has no effect on the operation of the counter.
 200:.\Generated_Source\PSoC5/Counter_First_Row.c **** *
 201:.\Generated_Source\PSoC5/Counter_First_Row.c **** *******************************************************************************/
 202:.\Generated_Source\PSoC5/Counter_First_Row.c **** void Counter_First_Row_Stop(void) 
 203:.\Generated_Source\PSoC5/Counter_First_Row.c **** {
 205              		.loc 1 203 0
 206              		.cfi_startproc
 207              		@ args = 0, pretend = 0, frame = 0
 208              		@ frame_needed = 1, uses_anonymous_args = 0
 209              		@ link register save eliminated.
 210 0000 80B4     		push	{r7}
 211              	.LCFI7:
 212              		.cfi_def_cfa_offset 4
 213 0002 00AF     		add	r7, sp, #0
 214              		.cfi_offset 7, -4
 215              	.LCFI8:
 216              		.cfi_def_cfa_register 7
 204:.\Generated_Source\PSoC5/Counter_First_Row.c ****     /* Disable Counter */
 205:.\Generated_Source\PSoC5/Counter_First_Row.c ****     #if(!Counter_First_Row_ControlRegRemoved || Counter_First_Row_UsingFixedFunction)
 206:.\Generated_Source\PSoC5/Counter_First_Row.c ****         Counter_First_Row_CONTROL &= ~Counter_First_Row_CTRL_ENABLE;        
 217              		.loc 1 206 0
 218 0004 46F27853 		movw	r3, #:lower16:1073767800
 219 0008 C4F20003 		movt	r3, #:upper16:1073767800
 220 000c 46F27852 		movw	r2, #:lower16:1073767800
 221 0010 C4F20002 		movt	r2, #:upper16:1073767800
 222 0014 1278     		ldrb	r2, [r2, #0]
 223 0016 D2B2     		uxtb	r2, r2
 224 0018 02F07F02 		and	r2, r2, #127
 225 001c 1A70     		strb	r2, [r3, #0]
 207:.\Generated_Source\PSoC5/Counter_First_Row.c ****     #endif /* (!Counter_First_Row_ControlRegRemoved || Counter_First_Row_UsingFixedFunction) */
 208:.\Generated_Source\PSoC5/Counter_First_Row.c ****     
 209:.\Generated_Source\PSoC5/Counter_First_Row.c ****     /* Globally disable the Fixed Function Block chosen */
 210:.\Generated_Source\PSoC5/Counter_First_Row.c ****     #if (Counter_First_Row_UsingFixedFunction)
 211:.\Generated_Source\PSoC5/Counter_First_Row.c ****         Counter_First_Row_GLOBAL_ENABLE &= ~Counter_First_Row_BLOCK_EN_MASK;
 212:.\Generated_Source\PSoC5/Counter_First_Row.c ****         Counter_First_Row_GLOBAL_STBY_ENABLE &= ~Counter_First_Row_BLOCK_STBY_EN_MASK;
 213:.\Generated_Source\PSoC5/Counter_First_Row.c ****     #endif /* (Counter_First_Row_UsingFixedFunction) */
 214:.\Generated_Source\PSoC5/Counter_First_Row.c **** }
 226              		.loc 1 214 0
 227 001e BD46     		mov	sp, r7
 228 0020 80BC     		pop	{r7}
 229 0022 7047     		bx	lr
 230              		.cfi_endproc
 231              	.LFE3:
 232              		.size	Counter_First_Row_Stop, .-Counter_First_Row_Stop
 233              		.section	.text.Counter_First_Row_SetInterruptMode,"ax",%progbits
 234              		.align	2
 235              		.global	Counter_First_Row_SetInterruptMode
 236              		.thumb
 237              		.thumb_func
 238              		.type	Counter_First_Row_SetInterruptMode, %function
ARM GAS  C:\Users\bccho\AppData\Local\Temp\ccSh2Rm7.s 			page 9


 239              	Counter_First_Row_SetInterruptMode:
 240              	.LFB4:
 215:.\Generated_Source\PSoC5/Counter_First_Row.c **** 
 216:.\Generated_Source\PSoC5/Counter_First_Row.c **** 
 217:.\Generated_Source\PSoC5/Counter_First_Row.c **** /*******************************************************************************
 218:.\Generated_Source\PSoC5/Counter_First_Row.c **** * Function Name: Counter_First_Row_SetInterruptMode
 219:.\Generated_Source\PSoC5/Counter_First_Row.c **** ********************************************************************************
 220:.\Generated_Source\PSoC5/Counter_First_Row.c **** * Summary:
 221:.\Generated_Source\PSoC5/Counter_First_Row.c **** * Configures which interrupt sources are enabled to generate the final interrupt
 222:.\Generated_Source\PSoC5/Counter_First_Row.c **** *
 223:.\Generated_Source\PSoC5/Counter_First_Row.c **** * Parameters:  
 224:.\Generated_Source\PSoC5/Counter_First_Row.c **** *  InterruptsMask: This parameter is an or'd collection of the status bits
 225:.\Generated_Source\PSoC5/Counter_First_Row.c **** *                   which will be allowed to generate the counters interrupt.   
 226:.\Generated_Source\PSoC5/Counter_First_Row.c **** *
 227:.\Generated_Source\PSoC5/Counter_First_Row.c **** * Return: 
 228:.\Generated_Source\PSoC5/Counter_First_Row.c **** *  void
 229:.\Generated_Source\PSoC5/Counter_First_Row.c **** *
 230:.\Generated_Source\PSoC5/Counter_First_Row.c **** *******************************************************************************/
 231:.\Generated_Source\PSoC5/Counter_First_Row.c **** void Counter_First_Row_SetInterruptMode(uint8 interruptsMask) 
 232:.\Generated_Source\PSoC5/Counter_First_Row.c **** {
 241              		.loc 1 232 0
 242              		.cfi_startproc
 243              		@ args = 0, pretend = 0, frame = 8
 244              		@ frame_needed = 1, uses_anonymous_args = 0
 245              		@ link register save eliminated.
 246 0000 80B4     		push	{r7}
 247              	.LCFI9:
 248              		.cfi_def_cfa_offset 4
 249 0002 83B0     		sub	sp, sp, #12
 250              	.LCFI10:
 251              		.cfi_def_cfa_offset 16
 252 0004 00AF     		add	r7, sp, #0
 253              		.cfi_offset 7, -4
 254              	.LCFI11:
 255              		.cfi_def_cfa_register 7
 256 0006 0346     		mov	r3, r0
 257 0008 FB71     		strb	r3, [r7, #7]
 233:.\Generated_Source\PSoC5/Counter_First_Row.c ****     Counter_First_Row_STATUS_MASK = interruptsMask;
 258              		.loc 1 233 0
 259 000a 46F28B53 		movw	r3, #:lower16:1073767819
 260 000e C4F20003 		movt	r3, #:upper16:1073767819
 261 0012 FA79     		ldrb	r2, [r7, #7]
 262 0014 1A70     		strb	r2, [r3, #0]
 234:.\Generated_Source\PSoC5/Counter_First_Row.c **** }
 263              		.loc 1 234 0
 264 0016 07F10C07 		add	r7, r7, #12
 265 001a BD46     		mov	sp, r7
 266 001c 80BC     		pop	{r7}
 267 001e 7047     		bx	lr
 268              		.cfi_endproc
 269              	.LFE4:
 270              		.size	Counter_First_Row_SetInterruptMode, .-Counter_First_Row_SetInterruptMode
 271              		.section	.text.Counter_First_Row_ReadStatusRegister,"ax",%progbits
 272              		.align	2
 273              		.global	Counter_First_Row_ReadStatusRegister
 274              		.thumb
 275              		.thumb_func
ARM GAS  C:\Users\bccho\AppData\Local\Temp\ccSh2Rm7.s 			page 10


 276              		.type	Counter_First_Row_ReadStatusRegister, %function
 277              	Counter_First_Row_ReadStatusRegister:
 278              	.LFB5:
 235:.\Generated_Source\PSoC5/Counter_First_Row.c **** 
 236:.\Generated_Source\PSoC5/Counter_First_Row.c **** 
 237:.\Generated_Source\PSoC5/Counter_First_Row.c **** /*******************************************************************************
 238:.\Generated_Source\PSoC5/Counter_First_Row.c **** * Function Name: Counter_First_Row_ReadStatusRegister
 239:.\Generated_Source\PSoC5/Counter_First_Row.c **** ********************************************************************************
 240:.\Generated_Source\PSoC5/Counter_First_Row.c **** * Summary:
 241:.\Generated_Source\PSoC5/Counter_First_Row.c **** *   Reads the status register and returns it's state. This function should use
 242:.\Generated_Source\PSoC5/Counter_First_Row.c **** *       defined types for the bit-field information as the bits in this
 243:.\Generated_Source\PSoC5/Counter_First_Row.c **** *       register may be permuteable.
 244:.\Generated_Source\PSoC5/Counter_First_Row.c **** *
 245:.\Generated_Source\PSoC5/Counter_First_Row.c **** * Parameters:  
 246:.\Generated_Source\PSoC5/Counter_First_Row.c **** *  void
 247:.\Generated_Source\PSoC5/Counter_First_Row.c **** *
 248:.\Generated_Source\PSoC5/Counter_First_Row.c **** * Return: 
 249:.\Generated_Source\PSoC5/Counter_First_Row.c **** *  (uint8) The contents of the status register
 250:.\Generated_Source\PSoC5/Counter_First_Row.c **** *
 251:.\Generated_Source\PSoC5/Counter_First_Row.c **** * Side Effects:
 252:.\Generated_Source\PSoC5/Counter_First_Row.c **** *   Status register bits may be clear on read. 
 253:.\Generated_Source\PSoC5/Counter_First_Row.c **** *
 254:.\Generated_Source\PSoC5/Counter_First_Row.c **** *******************************************************************************/
 255:.\Generated_Source\PSoC5/Counter_First_Row.c **** uint8   Counter_First_Row_ReadStatusRegister(void) 
 256:.\Generated_Source\PSoC5/Counter_First_Row.c **** {
 279              		.loc 1 256 0
 280              		.cfi_startproc
 281              		@ args = 0, pretend = 0, frame = 0
 282              		@ frame_needed = 1, uses_anonymous_args = 0
 283              		@ link register save eliminated.
 284 0000 80B4     		push	{r7}
 285              	.LCFI12:
 286              		.cfi_def_cfa_offset 4
 287 0002 00AF     		add	r7, sp, #0
 288              		.cfi_offset 7, -4
 289              	.LCFI13:
 290              		.cfi_def_cfa_register 7
 257:.\Generated_Source\PSoC5/Counter_First_Row.c ****     return Counter_First_Row_STATUS;
 291              		.loc 1 257 0
 292 0004 46F26B53 		movw	r3, #:lower16:1073767787
 293 0008 C4F20003 		movt	r3, #:upper16:1073767787
 294 000c 1B78     		ldrb	r3, [r3, #0]
 295 000e DBB2     		uxtb	r3, r3
 258:.\Generated_Source\PSoC5/Counter_First_Row.c **** }
 296              		.loc 1 258 0
 297 0010 1846     		mov	r0, r3
 298 0012 BD46     		mov	sp, r7
 299 0014 80BC     		pop	{r7}
 300 0016 7047     		bx	lr
 301              		.cfi_endproc
 302              	.LFE5:
 303              		.size	Counter_First_Row_ReadStatusRegister, .-Counter_First_Row_ReadStatusRegister
 304              		.section	.text.Counter_First_Row_ReadControlRegister,"ax",%progbits
 305              		.align	2
 306              		.global	Counter_First_Row_ReadControlRegister
 307              		.thumb
 308              		.thumb_func
ARM GAS  C:\Users\bccho\AppData\Local\Temp\ccSh2Rm7.s 			page 11


 309              		.type	Counter_First_Row_ReadControlRegister, %function
 310              	Counter_First_Row_ReadControlRegister:
 311              	.LFB6:
 259:.\Generated_Source\PSoC5/Counter_First_Row.c **** 
 260:.\Generated_Source\PSoC5/Counter_First_Row.c **** 
 261:.\Generated_Source\PSoC5/Counter_First_Row.c **** #if(!Counter_First_Row_ControlRegRemoved)
 262:.\Generated_Source\PSoC5/Counter_First_Row.c **** /*******************************************************************************
 263:.\Generated_Source\PSoC5/Counter_First_Row.c **** * Function Name: Counter_First_Row_ReadControlRegister
 264:.\Generated_Source\PSoC5/Counter_First_Row.c **** ********************************************************************************
 265:.\Generated_Source\PSoC5/Counter_First_Row.c **** * Summary:
 266:.\Generated_Source\PSoC5/Counter_First_Row.c **** *   Reads the control register and returns it's state. This function should use
 267:.\Generated_Source\PSoC5/Counter_First_Row.c **** *       defined types for the bit-field information as the bits in this
 268:.\Generated_Source\PSoC5/Counter_First_Row.c **** *       register may be permuteable.
 269:.\Generated_Source\PSoC5/Counter_First_Row.c **** *
 270:.\Generated_Source\PSoC5/Counter_First_Row.c **** * Parameters:  
 271:.\Generated_Source\PSoC5/Counter_First_Row.c **** *  void
 272:.\Generated_Source\PSoC5/Counter_First_Row.c **** *
 273:.\Generated_Source\PSoC5/Counter_First_Row.c **** * Return: 
 274:.\Generated_Source\PSoC5/Counter_First_Row.c **** *  (uint8) The contents of the control register
 275:.\Generated_Source\PSoC5/Counter_First_Row.c **** *
 276:.\Generated_Source\PSoC5/Counter_First_Row.c **** *******************************************************************************/
 277:.\Generated_Source\PSoC5/Counter_First_Row.c **** uint8   Counter_First_Row_ReadControlRegister(void) 
 278:.\Generated_Source\PSoC5/Counter_First_Row.c **** {
 312              		.loc 1 278 0
 313              		.cfi_startproc
 314              		@ args = 0, pretend = 0, frame = 0
 315              		@ frame_needed = 1, uses_anonymous_args = 0
 316              		@ link register save eliminated.
 317 0000 80B4     		push	{r7}
 318              	.LCFI14:
 319              		.cfi_def_cfa_offset 4
 320 0002 00AF     		add	r7, sp, #0
 321              		.cfi_offset 7, -4
 322              	.LCFI15:
 323              		.cfi_def_cfa_register 7
 279:.\Generated_Source\PSoC5/Counter_First_Row.c ****     return Counter_First_Row_CONTROL;
 324              		.loc 1 279 0
 325 0004 46F27853 		movw	r3, #:lower16:1073767800
 326 0008 C4F20003 		movt	r3, #:upper16:1073767800
 327 000c 1B78     		ldrb	r3, [r3, #0]
 328 000e DBB2     		uxtb	r3, r3
 280:.\Generated_Source\PSoC5/Counter_First_Row.c **** }
 329              		.loc 1 280 0
 330 0010 1846     		mov	r0, r3
 331 0012 BD46     		mov	sp, r7
 332 0014 80BC     		pop	{r7}
 333 0016 7047     		bx	lr
 334              		.cfi_endproc
 335              	.LFE6:
 336              		.size	Counter_First_Row_ReadControlRegister, .-Counter_First_Row_ReadControlRegister
 337              		.section	.text.Counter_First_Row_WriteControlRegister,"ax",%progbits
 338              		.align	2
 339              		.global	Counter_First_Row_WriteControlRegister
 340              		.thumb
 341              		.thumb_func
 342              		.type	Counter_First_Row_WriteControlRegister, %function
 343              	Counter_First_Row_WriteControlRegister:
ARM GAS  C:\Users\bccho\AppData\Local\Temp\ccSh2Rm7.s 			page 12


 344              	.LFB7:
 281:.\Generated_Source\PSoC5/Counter_First_Row.c **** 
 282:.\Generated_Source\PSoC5/Counter_First_Row.c **** 
 283:.\Generated_Source\PSoC5/Counter_First_Row.c **** /*******************************************************************************
 284:.\Generated_Source\PSoC5/Counter_First_Row.c **** * Function Name: Counter_First_Row_WriteControlRegister
 285:.\Generated_Source\PSoC5/Counter_First_Row.c **** ********************************************************************************
 286:.\Generated_Source\PSoC5/Counter_First_Row.c **** * Summary:
 287:.\Generated_Source\PSoC5/Counter_First_Row.c **** *   Sets the bit-field of the control register.  This function should use
 288:.\Generated_Source\PSoC5/Counter_First_Row.c **** *       defined types for the bit-field information as the bits in this
 289:.\Generated_Source\PSoC5/Counter_First_Row.c **** *       register may be permuteable.
 290:.\Generated_Source\PSoC5/Counter_First_Row.c **** *
 291:.\Generated_Source\PSoC5/Counter_First_Row.c **** * Parameters:  
 292:.\Generated_Source\PSoC5/Counter_First_Row.c **** *  void
 293:.\Generated_Source\PSoC5/Counter_First_Row.c **** *
 294:.\Generated_Source\PSoC5/Counter_First_Row.c **** * Return: 
 295:.\Generated_Source\PSoC5/Counter_First_Row.c **** *  (uint8) The contents of the control register
 296:.\Generated_Source\PSoC5/Counter_First_Row.c **** *
 297:.\Generated_Source\PSoC5/Counter_First_Row.c **** *******************************************************************************/
 298:.\Generated_Source\PSoC5/Counter_First_Row.c **** void    Counter_First_Row_WriteControlRegister(uint8 control) 
 299:.\Generated_Source\PSoC5/Counter_First_Row.c **** {
 345              		.loc 1 299 0
 346              		.cfi_startproc
 347              		@ args = 0, pretend = 0, frame = 8
 348              		@ frame_needed = 1, uses_anonymous_args = 0
 349              		@ link register save eliminated.
 350 0000 80B4     		push	{r7}
 351              	.LCFI16:
 352              		.cfi_def_cfa_offset 4
 353 0002 83B0     		sub	sp, sp, #12
 354              	.LCFI17:
 355              		.cfi_def_cfa_offset 16
 356 0004 00AF     		add	r7, sp, #0
 357              		.cfi_offset 7, -4
 358              	.LCFI18:
 359              		.cfi_def_cfa_register 7
 360 0006 0346     		mov	r3, r0
 361 0008 FB71     		strb	r3, [r7, #7]
 300:.\Generated_Source\PSoC5/Counter_First_Row.c ****     Counter_First_Row_CONTROL = control;
 362              		.loc 1 300 0
 363 000a 46F27853 		movw	r3, #:lower16:1073767800
 364 000e C4F20003 		movt	r3, #:upper16:1073767800
 365 0012 FA79     		ldrb	r2, [r7, #7]
 366 0014 1A70     		strb	r2, [r3, #0]
 301:.\Generated_Source\PSoC5/Counter_First_Row.c **** }
 367              		.loc 1 301 0
 368 0016 07F10C07 		add	r7, r7, #12
 369 001a BD46     		mov	sp, r7
 370 001c 80BC     		pop	{r7}
 371 001e 7047     		bx	lr
 372              		.cfi_endproc
 373              	.LFE7:
 374              		.size	Counter_First_Row_WriteControlRegister, .-Counter_First_Row_WriteControlRegister
 375              		.section	.text.Counter_First_Row_WriteCounter,"ax",%progbits
 376              		.align	2
 377              		.global	Counter_First_Row_WriteCounter
 378              		.thumb
 379              		.thumb_func
ARM GAS  C:\Users\bccho\AppData\Local\Temp\ccSh2Rm7.s 			page 13


 380              		.type	Counter_First_Row_WriteCounter, %function
 381              	Counter_First_Row_WriteCounter:
 382              	.LFB8:
 302:.\Generated_Source\PSoC5/Counter_First_Row.c **** 
 303:.\Generated_Source\PSoC5/Counter_First_Row.c **** #endif  /* (!Counter_First_Row_ControlRegRemoved) */
 304:.\Generated_Source\PSoC5/Counter_First_Row.c **** 
 305:.\Generated_Source\PSoC5/Counter_First_Row.c **** 
 306:.\Generated_Source\PSoC5/Counter_First_Row.c **** #if (!(Counter_First_Row_UsingFixedFunction && (CY_PSOC5A)))
 307:.\Generated_Source\PSoC5/Counter_First_Row.c **** /*******************************************************************************
 308:.\Generated_Source\PSoC5/Counter_First_Row.c **** * Function Name: Counter_First_Row_WriteCounter
 309:.\Generated_Source\PSoC5/Counter_First_Row.c **** ********************************************************************************
 310:.\Generated_Source\PSoC5/Counter_First_Row.c **** * Summary:
 311:.\Generated_Source\PSoC5/Counter_First_Row.c **** *   This funtion is used to set the counter to a specific value
 312:.\Generated_Source\PSoC5/Counter_First_Row.c **** *
 313:.\Generated_Source\PSoC5/Counter_First_Row.c **** * Parameters:  
 314:.\Generated_Source\PSoC5/Counter_First_Row.c **** *  counter:  New counter value. 
 315:.\Generated_Source\PSoC5/Counter_First_Row.c **** *
 316:.\Generated_Source\PSoC5/Counter_First_Row.c **** * Return: 
 317:.\Generated_Source\PSoC5/Counter_First_Row.c **** *  void 
 318:.\Generated_Source\PSoC5/Counter_First_Row.c **** *
 319:.\Generated_Source\PSoC5/Counter_First_Row.c **** *******************************************************************************/
 320:.\Generated_Source\PSoC5/Counter_First_Row.c **** void Counter_First_Row_WriteCounter(uint8 counter) \
 321:.\Generated_Source\PSoC5/Counter_First_Row.c ****                                    
 322:.\Generated_Source\PSoC5/Counter_First_Row.c **** {
 383              		.loc 1 322 0
 384              		.cfi_startproc
 385              		@ args = 0, pretend = 0, frame = 8
 386              		@ frame_needed = 1, uses_anonymous_args = 0
 387              		@ link register save eliminated.
 388 0000 80B4     		push	{r7}
 389              	.LCFI19:
 390              		.cfi_def_cfa_offset 4
 391 0002 83B0     		sub	sp, sp, #12
 392              	.LCFI20:
 393              		.cfi_def_cfa_offset 16
 394 0004 00AF     		add	r7, sp, #0
 395              		.cfi_offset 7, -4
 396              	.LCFI21:
 397              		.cfi_def_cfa_register 7
 398 0006 0346     		mov	r3, r0
 399 0008 FB71     		strb	r3, [r7, #7]
 323:.\Generated_Source\PSoC5/Counter_First_Row.c ****     #if(Counter_First_Row_UsingFixedFunction)
 324:.\Generated_Source\PSoC5/Counter_First_Row.c ****         /* assert if block is already enabled */
 325:.\Generated_Source\PSoC5/Counter_First_Row.c ****         CYASSERT (!(Counter_First_Row_GLOBAL_ENABLE & Counter_First_Row_BLOCK_EN_MASK));
 326:.\Generated_Source\PSoC5/Counter_First_Row.c ****         /* If block is disabled, enable it and then write the counter */
 327:.\Generated_Source\PSoC5/Counter_First_Row.c ****         Counter_First_Row_GLOBAL_ENABLE |= Counter_First_Row_BLOCK_EN_MASK;
 328:.\Generated_Source\PSoC5/Counter_First_Row.c ****         CY_SET_REG16(Counter_First_Row_COUNTER_LSB_PTR, (uint16)counter);
 329:.\Generated_Source\PSoC5/Counter_First_Row.c ****         Counter_First_Row_GLOBAL_ENABLE &= ~Counter_First_Row_BLOCK_EN_MASK;
 330:.\Generated_Source\PSoC5/Counter_First_Row.c ****     #else
 331:.\Generated_Source\PSoC5/Counter_First_Row.c ****         CY_SET_REG8(Counter_First_Row_COUNTER_LSB_PTR, counter);
 400              		.loc 1 331 0
 401 000a 46F20B53 		movw	r3, #:lower16:1073767691
 402 000e C4F20003 		movt	r3, #:upper16:1073767691
 403 0012 FA79     		ldrb	r2, [r7, #7]
 404 0014 1A70     		strb	r2, [r3, #0]
 332:.\Generated_Source\PSoC5/Counter_First_Row.c ****     #endif /* (Counter_First_Row_UsingFixedFunction) */
 333:.\Generated_Source\PSoC5/Counter_First_Row.c **** }
ARM GAS  C:\Users\bccho\AppData\Local\Temp\ccSh2Rm7.s 			page 14


 405              		.loc 1 333 0
 406 0016 07F10C07 		add	r7, r7, #12
 407 001a BD46     		mov	sp, r7
 408 001c 80BC     		pop	{r7}
 409 001e 7047     		bx	lr
 410              		.cfi_endproc
 411              	.LFE8:
 412              		.size	Counter_First_Row_WriteCounter, .-Counter_First_Row_WriteCounter
 413              		.section	.text.Counter_First_Row_ReadCounter,"ax",%progbits
 414              		.align	2
 415              		.global	Counter_First_Row_ReadCounter
 416              		.thumb
 417              		.thumb_func
 418              		.type	Counter_First_Row_ReadCounter, %function
 419              	Counter_First_Row_ReadCounter:
 420              	.LFB9:
 334:.\Generated_Source\PSoC5/Counter_First_Row.c **** #endif /* (!(Counter_First_Row_UsingFixedFunction && (CY_PSOC5A))) */
 335:.\Generated_Source\PSoC5/Counter_First_Row.c **** 
 336:.\Generated_Source\PSoC5/Counter_First_Row.c **** 
 337:.\Generated_Source\PSoC5/Counter_First_Row.c **** /*******************************************************************************
 338:.\Generated_Source\PSoC5/Counter_First_Row.c **** * Function Name: Counter_First_Row_ReadCounter
 339:.\Generated_Source\PSoC5/Counter_First_Row.c **** ********************************************************************************
 340:.\Generated_Source\PSoC5/Counter_First_Row.c **** * Summary:
 341:.\Generated_Source\PSoC5/Counter_First_Row.c **** * Returns the current value of the counter.  It doesn't matter
 342:.\Generated_Source\PSoC5/Counter_First_Row.c **** * if the counter is enabled or running.
 343:.\Generated_Source\PSoC5/Counter_First_Row.c **** *
 344:.\Generated_Source\PSoC5/Counter_First_Row.c **** * Parameters:  
 345:.\Generated_Source\PSoC5/Counter_First_Row.c **** *  void:  
 346:.\Generated_Source\PSoC5/Counter_First_Row.c **** *
 347:.\Generated_Source\PSoC5/Counter_First_Row.c **** * Return: 
 348:.\Generated_Source\PSoC5/Counter_First_Row.c **** *  (uint8) The present value of the counter.
 349:.\Generated_Source\PSoC5/Counter_First_Row.c **** *
 350:.\Generated_Source\PSoC5/Counter_First_Row.c **** *******************************************************************************/
 351:.\Generated_Source\PSoC5/Counter_First_Row.c **** uint8 Counter_First_Row_ReadCounter(void) 
 352:.\Generated_Source\PSoC5/Counter_First_Row.c **** {
 421              		.loc 1 352 0
 422              		.cfi_startproc
 423              		@ args = 0, pretend = 0, frame = 0
 424              		@ frame_needed = 1, uses_anonymous_args = 0
 425              		@ link register save eliminated.
 426 0000 80B4     		push	{r7}
 427              	.LCFI22:
 428              		.cfi_def_cfa_offset 4
 429 0002 00AF     		add	r7, sp, #0
 430              		.cfi_offset 7, -4
 431              	.LCFI23:
 432              		.cfi_def_cfa_register 7
 353:.\Generated_Source\PSoC5/Counter_First_Row.c ****     /* Force capture by reading Accumulator */
 354:.\Generated_Source\PSoC5/Counter_First_Row.c ****     /* Must first do a software capture to be able to read the counter */
 355:.\Generated_Source\PSoC5/Counter_First_Row.c ****     /* It is up to the user code to make sure there isn't already captured data in the FIFO */
 356:.\Generated_Source\PSoC5/Counter_First_Row.c ****     CY_GET_REG8(Counter_First_Row_COUNTER_LSB_PTR);
 433              		.loc 1 356 0
 434 0004 46F20B53 		movw	r3, #:lower16:1073767691
 435 0008 C4F20003 		movt	r3, #:upper16:1073767691
 436 000c 1B78     		ldrb	r3, [r3, #0]
 357:.\Generated_Source\PSoC5/Counter_First_Row.c ****     
 358:.\Generated_Source\PSoC5/Counter_First_Row.c ****     /* Read the data from the FIFO (or capture register for Fixed Function)*/
ARM GAS  C:\Users\bccho\AppData\Local\Temp\ccSh2Rm7.s 			page 15


 359:.\Generated_Source\PSoC5/Counter_First_Row.c ****     return (CY_GET_REG8(Counter_First_Row_STATICCOUNT_LSB_PTR));
 437              		.loc 1 359 0
 438 000e 46F24B53 		movw	r3, #:lower16:1073767755
 439 0012 C4F20003 		movt	r3, #:upper16:1073767755
 440 0016 1B78     		ldrb	r3, [r3, #0]
 441 0018 DBB2     		uxtb	r3, r3
 360:.\Generated_Source\PSoC5/Counter_First_Row.c **** }
 442              		.loc 1 360 0
 443 001a 1846     		mov	r0, r3
 444 001c BD46     		mov	sp, r7
 445 001e 80BC     		pop	{r7}
 446 0020 7047     		bx	lr
 447              		.cfi_endproc
 448              	.LFE9:
 449              		.size	Counter_First_Row_ReadCounter, .-Counter_First_Row_ReadCounter
 450 0022 00BF     		.section	.text.Counter_First_Row_ReadCapture,"ax",%progbits
 451              		.align	2
 452              		.global	Counter_First_Row_ReadCapture
 453              		.thumb
 454              		.thumb_func
 455              		.type	Counter_First_Row_ReadCapture, %function
 456              	Counter_First_Row_ReadCapture:
 457              	.LFB10:
 361:.\Generated_Source\PSoC5/Counter_First_Row.c **** 
 362:.\Generated_Source\PSoC5/Counter_First_Row.c **** 
 363:.\Generated_Source\PSoC5/Counter_First_Row.c **** /*******************************************************************************
 364:.\Generated_Source\PSoC5/Counter_First_Row.c **** * Function Name: Counter_First_Row_ReadCapture
 365:.\Generated_Source\PSoC5/Counter_First_Row.c **** ********************************************************************************
 366:.\Generated_Source\PSoC5/Counter_First_Row.c **** * Summary:
 367:.\Generated_Source\PSoC5/Counter_First_Row.c **** *   This function returns the last value captured.
 368:.\Generated_Source\PSoC5/Counter_First_Row.c **** *
 369:.\Generated_Source\PSoC5/Counter_First_Row.c **** * Parameters:  
 370:.\Generated_Source\PSoC5/Counter_First_Row.c **** *  void
 371:.\Generated_Source\PSoC5/Counter_First_Row.c **** *
 372:.\Generated_Source\PSoC5/Counter_First_Row.c **** * Return: 
 373:.\Generated_Source\PSoC5/Counter_First_Row.c **** *  (uint8) Present Capture value.
 374:.\Generated_Source\PSoC5/Counter_First_Row.c **** *
 375:.\Generated_Source\PSoC5/Counter_First_Row.c **** *******************************************************************************/
 376:.\Generated_Source\PSoC5/Counter_First_Row.c **** uint8 Counter_First_Row_ReadCapture(void) 
 377:.\Generated_Source\PSoC5/Counter_First_Row.c **** {
 458              		.loc 1 377 0
 459              		.cfi_startproc
 460              		@ args = 0, pretend = 0, frame = 0
 461              		@ frame_needed = 1, uses_anonymous_args = 0
 462              		@ link register save eliminated.
 463 0000 80B4     		push	{r7}
 464              	.LCFI24:
 465              		.cfi_def_cfa_offset 4
 466 0002 00AF     		add	r7, sp, #0
 467              		.cfi_offset 7, -4
 468              	.LCFI25:
 469              		.cfi_def_cfa_register 7
 378:.\Generated_Source\PSoC5/Counter_First_Row.c ****    return ( CY_GET_REG8(Counter_First_Row_STATICCOUNT_LSB_PTR) );  
 470              		.loc 1 378 0
 471 0004 46F24B53 		movw	r3, #:lower16:1073767755
 472 0008 C4F20003 		movt	r3, #:upper16:1073767755
 473 000c 1B78     		ldrb	r3, [r3, #0]
ARM GAS  C:\Users\bccho\AppData\Local\Temp\ccSh2Rm7.s 			page 16


 474 000e DBB2     		uxtb	r3, r3
 379:.\Generated_Source\PSoC5/Counter_First_Row.c **** }
 475              		.loc 1 379 0
 476 0010 1846     		mov	r0, r3
 477 0012 BD46     		mov	sp, r7
 478 0014 80BC     		pop	{r7}
 479 0016 7047     		bx	lr
 480              		.cfi_endproc
 481              	.LFE10:
 482              		.size	Counter_First_Row_ReadCapture, .-Counter_First_Row_ReadCapture
 483              		.section	.text.Counter_First_Row_WritePeriod,"ax",%progbits
 484              		.align	2
 485              		.global	Counter_First_Row_WritePeriod
 486              		.thumb
 487              		.thumb_func
 488              		.type	Counter_First_Row_WritePeriod, %function
 489              	Counter_First_Row_WritePeriod:
 490              	.LFB11:
 380:.\Generated_Source\PSoC5/Counter_First_Row.c **** 
 381:.\Generated_Source\PSoC5/Counter_First_Row.c **** 
 382:.\Generated_Source\PSoC5/Counter_First_Row.c **** /*******************************************************************************
 383:.\Generated_Source\PSoC5/Counter_First_Row.c **** * Function Name: Counter_First_Row_WritePeriod
 384:.\Generated_Source\PSoC5/Counter_First_Row.c **** ********************************************************************************
 385:.\Generated_Source\PSoC5/Counter_First_Row.c **** * Summary:
 386:.\Generated_Source\PSoC5/Counter_First_Row.c **** * Changes the period of the counter.  The new period 
 387:.\Generated_Source\PSoC5/Counter_First_Row.c **** * will be loaded the next time terminal count is detected.
 388:.\Generated_Source\PSoC5/Counter_First_Row.c **** *
 389:.\Generated_Source\PSoC5/Counter_First_Row.c **** * Parameters:  
 390:.\Generated_Source\PSoC5/Counter_First_Row.c **** *  period: (uint8) A value of 0 will result in
 391:.\Generated_Source\PSoC5/Counter_First_Row.c **** *         the counter remaining at zero.  
 392:.\Generated_Source\PSoC5/Counter_First_Row.c **** *
 393:.\Generated_Source\PSoC5/Counter_First_Row.c **** * Return: 
 394:.\Generated_Source\PSoC5/Counter_First_Row.c **** *  void
 395:.\Generated_Source\PSoC5/Counter_First_Row.c **** *
 396:.\Generated_Source\PSoC5/Counter_First_Row.c **** *******************************************************************************/
 397:.\Generated_Source\PSoC5/Counter_First_Row.c **** void Counter_First_Row_WritePeriod(uint8 period) 
 398:.\Generated_Source\PSoC5/Counter_First_Row.c **** {
 491              		.loc 1 398 0
 492              		.cfi_startproc
 493              		@ args = 0, pretend = 0, frame = 8
 494              		@ frame_needed = 1, uses_anonymous_args = 0
 495              		@ link register save eliminated.
 496 0000 80B4     		push	{r7}
 497              	.LCFI26:
 498              		.cfi_def_cfa_offset 4
 499 0002 83B0     		sub	sp, sp, #12
 500              	.LCFI27:
 501              		.cfi_def_cfa_offset 16
 502 0004 00AF     		add	r7, sp, #0
 503              		.cfi_offset 7, -4
 504              	.LCFI28:
 505              		.cfi_def_cfa_register 7
 506 0006 0346     		mov	r3, r0
 507 0008 FB71     		strb	r3, [r7, #7]
 399:.\Generated_Source\PSoC5/Counter_First_Row.c ****     #if(Counter_First_Row_UsingFixedFunction)
 400:.\Generated_Source\PSoC5/Counter_First_Row.c ****         CY_SET_REG16(Counter_First_Row_PERIOD_LSB_PTR,(uint16)period);
 401:.\Generated_Source\PSoC5/Counter_First_Row.c ****     #else
ARM GAS  C:\Users\bccho\AppData\Local\Temp\ccSh2Rm7.s 			page 17


 402:.\Generated_Source\PSoC5/Counter_First_Row.c ****         CY_SET_REG8(Counter_First_Row_PERIOD_LSB_PTR,period);
 508              		.loc 1 402 0
 509 000a 46F22B53 		movw	r3, #:lower16:1073767723
 510 000e C4F20003 		movt	r3, #:upper16:1073767723
 511 0012 FA79     		ldrb	r2, [r7, #7]
 512 0014 1A70     		strb	r2, [r3, #0]
 403:.\Generated_Source\PSoC5/Counter_First_Row.c ****     #endif /* (Counter_First_Row_UsingFixedFunction) */
 404:.\Generated_Source\PSoC5/Counter_First_Row.c **** }
 513              		.loc 1 404 0
 514 0016 07F10C07 		add	r7, r7, #12
 515 001a BD46     		mov	sp, r7
 516 001c 80BC     		pop	{r7}
 517 001e 7047     		bx	lr
 518              		.cfi_endproc
 519              	.LFE11:
 520              		.size	Counter_First_Row_WritePeriod, .-Counter_First_Row_WritePeriod
 521              		.section	.text.Counter_First_Row_ReadPeriod,"ax",%progbits
 522              		.align	2
 523              		.global	Counter_First_Row_ReadPeriod
 524              		.thumb
 525              		.thumb_func
 526              		.type	Counter_First_Row_ReadPeriod, %function
 527              	Counter_First_Row_ReadPeriod:
 528              	.LFB12:
 405:.\Generated_Source\PSoC5/Counter_First_Row.c **** 
 406:.\Generated_Source\PSoC5/Counter_First_Row.c **** 
 407:.\Generated_Source\PSoC5/Counter_First_Row.c **** /*******************************************************************************
 408:.\Generated_Source\PSoC5/Counter_First_Row.c **** * Function Name: Counter_First_Row_ReadPeriod
 409:.\Generated_Source\PSoC5/Counter_First_Row.c **** ********************************************************************************
 410:.\Generated_Source\PSoC5/Counter_First_Row.c **** * Summary:
 411:.\Generated_Source\PSoC5/Counter_First_Row.c **** * Reads the current period value without affecting counter operation.
 412:.\Generated_Source\PSoC5/Counter_First_Row.c **** *
 413:.\Generated_Source\PSoC5/Counter_First_Row.c **** * Parameters:  
 414:.\Generated_Source\PSoC5/Counter_First_Row.c **** *  void:  
 415:.\Generated_Source\PSoC5/Counter_First_Row.c **** *
 416:.\Generated_Source\PSoC5/Counter_First_Row.c **** * Return: 
 417:.\Generated_Source\PSoC5/Counter_First_Row.c **** *  (uint8) Present period value.
 418:.\Generated_Source\PSoC5/Counter_First_Row.c **** *
 419:.\Generated_Source\PSoC5/Counter_First_Row.c **** *******************************************************************************/
 420:.\Generated_Source\PSoC5/Counter_First_Row.c **** uint8 Counter_First_Row_ReadPeriod(void) 
 421:.\Generated_Source\PSoC5/Counter_First_Row.c **** {
 529              		.loc 1 421 0
 530              		.cfi_startproc
 531              		@ args = 0, pretend = 0, frame = 0
 532              		@ frame_needed = 1, uses_anonymous_args = 0
 533              		@ link register save eliminated.
 534 0000 80B4     		push	{r7}
 535              	.LCFI29:
 536              		.cfi_def_cfa_offset 4
 537 0002 00AF     		add	r7, sp, #0
 538              		.cfi_offset 7, -4
 539              	.LCFI30:
 540              		.cfi_def_cfa_register 7
 422:.\Generated_Source\PSoC5/Counter_First_Row.c ****    return ( CY_GET_REG8(Counter_First_Row_PERIOD_LSB_PTR));
 541              		.loc 1 422 0
 542 0004 46F22B53 		movw	r3, #:lower16:1073767723
 543 0008 C4F20003 		movt	r3, #:upper16:1073767723
ARM GAS  C:\Users\bccho\AppData\Local\Temp\ccSh2Rm7.s 			page 18


 544 000c 1B78     		ldrb	r3, [r3, #0]
 545 000e DBB2     		uxtb	r3, r3
 423:.\Generated_Source\PSoC5/Counter_First_Row.c **** }
 546              		.loc 1 423 0
 547 0010 1846     		mov	r0, r3
 548 0012 BD46     		mov	sp, r7
 549 0014 80BC     		pop	{r7}
 550 0016 7047     		bx	lr
 551              		.cfi_endproc
 552              	.LFE12:
 553              		.size	Counter_First_Row_ReadPeriod, .-Counter_First_Row_ReadPeriod
 554              		.section	.text.Counter_First_Row_WriteCompare,"ax",%progbits
 555              		.align	2
 556              		.global	Counter_First_Row_WriteCompare
 557              		.thumb
 558              		.thumb_func
 559              		.type	Counter_First_Row_WriteCompare, %function
 560              	Counter_First_Row_WriteCompare:
 561              	.LFB13:
 424:.\Generated_Source\PSoC5/Counter_First_Row.c **** 
 425:.\Generated_Source\PSoC5/Counter_First_Row.c **** 
 426:.\Generated_Source\PSoC5/Counter_First_Row.c **** #if (!Counter_First_Row_UsingFixedFunction)
 427:.\Generated_Source\PSoC5/Counter_First_Row.c **** /*******************************************************************************
 428:.\Generated_Source\PSoC5/Counter_First_Row.c **** * Function Name: Counter_First_Row_WriteCompare
 429:.\Generated_Source\PSoC5/Counter_First_Row.c **** ********************************************************************************
 430:.\Generated_Source\PSoC5/Counter_First_Row.c **** * Summary:
 431:.\Generated_Source\PSoC5/Counter_First_Row.c **** * Changes the compare value.  The compare output will 
 432:.\Generated_Source\PSoC5/Counter_First_Row.c **** * reflect the new value on the next UDB clock.  The compare output will be 
 433:.\Generated_Source\PSoC5/Counter_First_Row.c **** * driven high when the present counter value compares true based on the 
 434:.\Generated_Source\PSoC5/Counter_First_Row.c **** * configured compare mode setting. 
 435:.\Generated_Source\PSoC5/Counter_First_Row.c **** *
 436:.\Generated_Source\PSoC5/Counter_First_Row.c **** * Parameters:  
 437:.\Generated_Source\PSoC5/Counter_First_Row.c **** *  Compare:  New compare value. 
 438:.\Generated_Source\PSoC5/Counter_First_Row.c **** *
 439:.\Generated_Source\PSoC5/Counter_First_Row.c **** * Return: 
 440:.\Generated_Source\PSoC5/Counter_First_Row.c **** *  void
 441:.\Generated_Source\PSoC5/Counter_First_Row.c **** *
 442:.\Generated_Source\PSoC5/Counter_First_Row.c **** *******************************************************************************/
 443:.\Generated_Source\PSoC5/Counter_First_Row.c **** void Counter_First_Row_WriteCompare(uint8 compare) \
 444:.\Generated_Source\PSoC5/Counter_First_Row.c ****                                    
 445:.\Generated_Source\PSoC5/Counter_First_Row.c **** {
 562              		.loc 1 445 0
 563              		.cfi_startproc
 564              		@ args = 0, pretend = 0, frame = 8
 565              		@ frame_needed = 1, uses_anonymous_args = 0
 566              		@ link register save eliminated.
 567 0000 80B4     		push	{r7}
 568              	.LCFI31:
 569              		.cfi_def_cfa_offset 4
 570 0002 83B0     		sub	sp, sp, #12
 571              	.LCFI32:
 572              		.cfi_def_cfa_offset 16
 573 0004 00AF     		add	r7, sp, #0
 574              		.cfi_offset 7, -4
 575              	.LCFI33:
 576              		.cfi_def_cfa_register 7
 577 0006 0346     		mov	r3, r0
ARM GAS  C:\Users\bccho\AppData\Local\Temp\ccSh2Rm7.s 			page 19


 578 0008 FB71     		strb	r3, [r7, #7]
 446:.\Generated_Source\PSoC5/Counter_First_Row.c ****     #if(Counter_First_Row_UsingFixedFunction)
 447:.\Generated_Source\PSoC5/Counter_First_Row.c ****         CY_SET_REG16(Counter_First_Row_COMPARE_LSB_PTR,(uint16)compare);
 448:.\Generated_Source\PSoC5/Counter_First_Row.c ****     #else
 449:.\Generated_Source\PSoC5/Counter_First_Row.c ****         CY_SET_REG8(Counter_First_Row_COMPARE_LSB_PTR,compare);
 579              		.loc 1 449 0
 580 000a 46F23B53 		movw	r3, #:lower16:1073767739
 581 000e C4F20003 		movt	r3, #:upper16:1073767739
 582 0012 FA79     		ldrb	r2, [r7, #7]
 583 0014 1A70     		strb	r2, [r3, #0]
 450:.\Generated_Source\PSoC5/Counter_First_Row.c ****     #endif /* (Counter_First_Row_UsingFixedFunction) */
 451:.\Generated_Source\PSoC5/Counter_First_Row.c **** }
 584              		.loc 1 451 0
 585 0016 07F10C07 		add	r7, r7, #12
 586 001a BD46     		mov	sp, r7
 587 001c 80BC     		pop	{r7}
 588 001e 7047     		bx	lr
 589              		.cfi_endproc
 590              	.LFE13:
 591              		.size	Counter_First_Row_WriteCompare, .-Counter_First_Row_WriteCompare
 592              		.section	.text.Counter_First_Row_ReadCompare,"ax",%progbits
 593              		.align	2
 594              		.global	Counter_First_Row_ReadCompare
 595              		.thumb
 596              		.thumb_func
 597              		.type	Counter_First_Row_ReadCompare, %function
 598              	Counter_First_Row_ReadCompare:
 599              	.LFB14:
 452:.\Generated_Source\PSoC5/Counter_First_Row.c **** 
 453:.\Generated_Source\PSoC5/Counter_First_Row.c **** 
 454:.\Generated_Source\PSoC5/Counter_First_Row.c **** /*******************************************************************************
 455:.\Generated_Source\PSoC5/Counter_First_Row.c **** * Function Name: Counter_First_Row_ReadCompare
 456:.\Generated_Source\PSoC5/Counter_First_Row.c **** ********************************************************************************
 457:.\Generated_Source\PSoC5/Counter_First_Row.c **** * Summary:
 458:.\Generated_Source\PSoC5/Counter_First_Row.c **** * Returns the compare value.
 459:.\Generated_Source\PSoC5/Counter_First_Row.c **** *
 460:.\Generated_Source\PSoC5/Counter_First_Row.c **** * Parameters:  
 461:.\Generated_Source\PSoC5/Counter_First_Row.c **** *  void:
 462:.\Generated_Source\PSoC5/Counter_First_Row.c **** *
 463:.\Generated_Source\PSoC5/Counter_First_Row.c **** * Return: 
 464:.\Generated_Source\PSoC5/Counter_First_Row.c **** *  (uint8) Present compare value.
 465:.\Generated_Source\PSoC5/Counter_First_Row.c **** *
 466:.\Generated_Source\PSoC5/Counter_First_Row.c **** *******************************************************************************/
 467:.\Generated_Source\PSoC5/Counter_First_Row.c **** uint8 Counter_First_Row_ReadCompare(void) 
 468:.\Generated_Source\PSoC5/Counter_First_Row.c **** {
 600              		.loc 1 468 0
 601              		.cfi_startproc
 602              		@ args = 0, pretend = 0, frame = 0
 603              		@ frame_needed = 1, uses_anonymous_args = 0
 604              		@ link register save eliminated.
 605 0000 80B4     		push	{r7}
 606              	.LCFI34:
 607              		.cfi_def_cfa_offset 4
 608 0002 00AF     		add	r7, sp, #0
 609              		.cfi_offset 7, -4
 610              	.LCFI35:
 611              		.cfi_def_cfa_register 7
ARM GAS  C:\Users\bccho\AppData\Local\Temp\ccSh2Rm7.s 			page 20


 469:.\Generated_Source\PSoC5/Counter_First_Row.c ****    return ( CY_GET_REG8(Counter_First_Row_COMPARE_LSB_PTR));
 612              		.loc 1 469 0
 613 0004 46F23B53 		movw	r3, #:lower16:1073767739
 614 0008 C4F20003 		movt	r3, #:upper16:1073767739
 615 000c 1B78     		ldrb	r3, [r3, #0]
 616 000e DBB2     		uxtb	r3, r3
 470:.\Generated_Source\PSoC5/Counter_First_Row.c **** }
 617              		.loc 1 470 0
 618 0010 1846     		mov	r0, r3
 619 0012 BD46     		mov	sp, r7
 620 0014 80BC     		pop	{r7}
 621 0016 7047     		bx	lr
 622              		.cfi_endproc
 623              	.LFE14:
 624              		.size	Counter_First_Row_ReadCompare, .-Counter_First_Row_ReadCompare
 625              		.section	.text.Counter_First_Row_ClearFIFO,"ax",%progbits
 626              		.align	2
 627              		.global	Counter_First_Row_ClearFIFO
 628              		.thumb
 629              		.thumb_func
 630              		.type	Counter_First_Row_ClearFIFO, %function
 631              	Counter_First_Row_ClearFIFO:
 632              	.LFB15:
 471:.\Generated_Source\PSoC5/Counter_First_Row.c **** 
 472:.\Generated_Source\PSoC5/Counter_First_Row.c **** 
 473:.\Generated_Source\PSoC5/Counter_First_Row.c **** #if (Counter_First_Row_COMPARE_MODE_SOFTWARE)
 474:.\Generated_Source\PSoC5/Counter_First_Row.c **** /*******************************************************************************
 475:.\Generated_Source\PSoC5/Counter_First_Row.c **** * Function Name: Counter_First_Row_SetCompareMode
 476:.\Generated_Source\PSoC5/Counter_First_Row.c **** ********************************************************************************
 477:.\Generated_Source\PSoC5/Counter_First_Row.c **** * Summary:
 478:.\Generated_Source\PSoC5/Counter_First_Row.c **** *  Sets the software controlled Compare Mode.
 479:.\Generated_Source\PSoC5/Counter_First_Row.c **** *
 480:.\Generated_Source\PSoC5/Counter_First_Row.c **** * Parameters:
 481:.\Generated_Source\PSoC5/Counter_First_Row.c **** *  compareMode:  Compare Mode Enumerated Type.
 482:.\Generated_Source\PSoC5/Counter_First_Row.c **** *
 483:.\Generated_Source\PSoC5/Counter_First_Row.c **** * Return:
 484:.\Generated_Source\PSoC5/Counter_First_Row.c **** *  void
 485:.\Generated_Source\PSoC5/Counter_First_Row.c **** *
 486:.\Generated_Source\PSoC5/Counter_First_Row.c **** *******************************************************************************/
 487:.\Generated_Source\PSoC5/Counter_First_Row.c **** void Counter_First_Row_SetCompareMode(uint8 compareMode) 
 488:.\Generated_Source\PSoC5/Counter_First_Row.c **** {
 489:.\Generated_Source\PSoC5/Counter_First_Row.c ****     /* Clear the compare mode bits in the control register */
 490:.\Generated_Source\PSoC5/Counter_First_Row.c ****     Counter_First_Row_CONTROL &= ~Counter_First_Row_CTRL_CMPMODE_MASK;
 491:.\Generated_Source\PSoC5/Counter_First_Row.c ****     
 492:.\Generated_Source\PSoC5/Counter_First_Row.c ****     /* Write the new setting */
 493:.\Generated_Source\PSoC5/Counter_First_Row.c ****     Counter_First_Row_CONTROL |= (compareMode << Counter_First_Row_CTRL_CMPMODE0_SHIFT);
 494:.\Generated_Source\PSoC5/Counter_First_Row.c **** }
 495:.\Generated_Source\PSoC5/Counter_First_Row.c **** #endif  /* (Counter_First_Row_COMPARE_MODE_SOFTWARE) */
 496:.\Generated_Source\PSoC5/Counter_First_Row.c **** 
 497:.\Generated_Source\PSoC5/Counter_First_Row.c **** 
 498:.\Generated_Source\PSoC5/Counter_First_Row.c **** #if (Counter_First_Row_CAPTURE_MODE_SOFTWARE)
 499:.\Generated_Source\PSoC5/Counter_First_Row.c **** /*******************************************************************************
 500:.\Generated_Source\PSoC5/Counter_First_Row.c **** * Function Name: Counter_First_Row_SetCaptureMode
 501:.\Generated_Source\PSoC5/Counter_First_Row.c **** ********************************************************************************
 502:.\Generated_Source\PSoC5/Counter_First_Row.c **** * Summary:
 503:.\Generated_Source\PSoC5/Counter_First_Row.c **** *  Sets the software controlled Capture Mode.
 504:.\Generated_Source\PSoC5/Counter_First_Row.c **** *
ARM GAS  C:\Users\bccho\AppData\Local\Temp\ccSh2Rm7.s 			page 21


 505:.\Generated_Source\PSoC5/Counter_First_Row.c **** * Parameters:
 506:.\Generated_Source\PSoC5/Counter_First_Row.c **** *  captureMode:  Capture Mode Enumerated Type.
 507:.\Generated_Source\PSoC5/Counter_First_Row.c **** *
 508:.\Generated_Source\PSoC5/Counter_First_Row.c **** * Return:
 509:.\Generated_Source\PSoC5/Counter_First_Row.c **** *  void
 510:.\Generated_Source\PSoC5/Counter_First_Row.c **** *
 511:.\Generated_Source\PSoC5/Counter_First_Row.c **** *******************************************************************************/
 512:.\Generated_Source\PSoC5/Counter_First_Row.c **** void Counter_First_Row_SetCaptureMode(uint8 captureMode) 
 513:.\Generated_Source\PSoC5/Counter_First_Row.c **** {
 514:.\Generated_Source\PSoC5/Counter_First_Row.c ****     /* Clear the capture mode bits in the control register */
 515:.\Generated_Source\PSoC5/Counter_First_Row.c ****     Counter_First_Row_CONTROL &= ~Counter_First_Row_CTRL_CAPMODE_MASK;
 516:.\Generated_Source\PSoC5/Counter_First_Row.c ****     
 517:.\Generated_Source\PSoC5/Counter_First_Row.c ****     /* Write the new setting */
 518:.\Generated_Source\PSoC5/Counter_First_Row.c ****     Counter_First_Row_CONTROL |= (captureMode << Counter_First_Row_CTRL_CAPMODE0_SHIFT);
 519:.\Generated_Source\PSoC5/Counter_First_Row.c **** }
 520:.\Generated_Source\PSoC5/Counter_First_Row.c **** #endif  /* (Counter_First_Row_CAPTURE_MODE_SOFTWARE) */
 521:.\Generated_Source\PSoC5/Counter_First_Row.c **** 
 522:.\Generated_Source\PSoC5/Counter_First_Row.c **** 
 523:.\Generated_Source\PSoC5/Counter_First_Row.c **** /*******************************************************************************
 524:.\Generated_Source\PSoC5/Counter_First_Row.c **** * Function Name: Counter_First_Row_ClearFIFO
 525:.\Generated_Source\PSoC5/Counter_First_Row.c **** ********************************************************************************
 526:.\Generated_Source\PSoC5/Counter_First_Row.c **** * Summary:
 527:.\Generated_Source\PSoC5/Counter_First_Row.c **** *   This function clears all capture data from the capture FIFO
 528:.\Generated_Source\PSoC5/Counter_First_Row.c **** *
 529:.\Generated_Source\PSoC5/Counter_First_Row.c **** * Parameters:  
 530:.\Generated_Source\PSoC5/Counter_First_Row.c **** *  void:
 531:.\Generated_Source\PSoC5/Counter_First_Row.c **** *
 532:.\Generated_Source\PSoC5/Counter_First_Row.c **** * Return: 
 533:.\Generated_Source\PSoC5/Counter_First_Row.c **** *  None
 534:.\Generated_Source\PSoC5/Counter_First_Row.c **** *
 535:.\Generated_Source\PSoC5/Counter_First_Row.c **** *******************************************************************************/
 536:.\Generated_Source\PSoC5/Counter_First_Row.c **** void Counter_First_Row_ClearFIFO(void) 
 537:.\Generated_Source\PSoC5/Counter_First_Row.c **** {
 633              		.loc 1 537 0
 634              		.cfi_startproc
 635              		@ args = 0, pretend = 0, frame = 0
 636              		@ frame_needed = 1, uses_anonymous_args = 0
 637 0000 80B5     		push	{r7, lr}
 638              	.LCFI36:
 639              		.cfi_def_cfa_offset 8
 640 0002 00AF     		add	r7, sp, #0
 641              		.cfi_offset 14, -4
 642              		.cfi_offset 7, -8
 643              	.LCFI37:
 644              		.cfi_def_cfa_register 7
 538:.\Generated_Source\PSoC5/Counter_First_Row.c **** 
 539:.\Generated_Source\PSoC5/Counter_First_Row.c ****     while(Counter_First_Row_ReadStatusRegister() & Counter_First_Row_STATUS_FIFONEMP)
 645              		.loc 1 539 0
 646 0004 01E0     		b	.L33
 647              	.L34:
 540:.\Generated_Source\PSoC5/Counter_First_Row.c ****     {
 541:.\Generated_Source\PSoC5/Counter_First_Row.c ****         Counter_First_Row_ReadCapture();
 648              		.loc 1 541 0
 649 0006 FFF7FEFF 		bl	Counter_First_Row_ReadCapture
 650              	.L33:
 651              		.loc 1 539 0
 652 000a FFF7FEFF 		bl	Counter_First_Row_ReadStatusRegister
ARM GAS  C:\Users\bccho\AppData\Local\Temp\ccSh2Rm7.s 			page 22


 653 000e 0346     		mov	r3, r0
 654 0010 03F04003 		and	r3, r3, #64
 655 0014 002B     		cmp	r3, #0
 656 0016 F6D1     		bne	.L34
 542:.\Generated_Source\PSoC5/Counter_First_Row.c ****     }
 543:.\Generated_Source\PSoC5/Counter_First_Row.c **** 
 544:.\Generated_Source\PSoC5/Counter_First_Row.c **** }
 657              		.loc 1 544 0
 658 0018 80BD     		pop	{r7, pc}
 659              		.cfi_endproc
 660              	.LFE15:
 661              		.size	Counter_First_Row_ClearFIFO, .-Counter_First_Row_ClearFIFO
 662 001a 00BF     		.text
 663              	.Letext0: