ARM GAS  C:\Users\bccho\AppData\Local\Temp\ccIhX0jC.s 			page 1


   1              		.syntax unified
   2              		.cpu cortex-m3
   3              		.fpu softvfp
   4              		.eabi_attribute 20, 1
   5              		.eabi_attribute 21, 1
   6              		.eabi_attribute 23, 3
   7              		.eabi_attribute 24, 1
   8              		.eabi_attribute 25, 1
   9              		.eabi_attribute 26, 1
  10              		.eabi_attribute 30, 6
  11              		.eabi_attribute 18, 4
  12              		.thumb
  13              		.file	"cyfitter_cfg.c"
  20 0000 25010000 		.text
  20      02006400 
  20      00000201 
  20      FB0E0D00 
  20      01010101 
  21              	.Ltext0:
  22              		.cfi_sections	.debug_frame
  23              		.section	.text.CyClockStartupError,"ax",%progbits
  24              		.align	2
  25              		.thumb
  26              		.thumb_func
  27              		.type	CyClockStartupError, %function
  28              	CyClockStartupError:
  29              	.LFB0:
  30              		.file 1 ".\\Generated_Source\\PSoC5\\cyfitter_cfg.c"
   1:.\Generated_Source\PSoC5/cyfitter_cfg.c **** /*******************************************************************************
   2:.\Generated_Source\PSoC5/cyfitter_cfg.c **** * FILENAME: cyfitter_cfg.c
   3:.\Generated_Source\PSoC5/cyfitter_cfg.c **** * PSoC Creator 2.1 SP1
   4:.\Generated_Source\PSoC5/cyfitter_cfg.c **** *
   5:.\Generated_Source\PSoC5/cyfitter_cfg.c **** * Description:
   6:.\Generated_Source\PSoC5/cyfitter_cfg.c **** * This file is automatically generated by PSoC Creator with device 
   7:.\Generated_Source\PSoC5/cyfitter_cfg.c **** * initialization code.  Except for the user defined sections in
   8:.\Generated_Source\PSoC5/cyfitter_cfg.c **** * CyClockStartupError(), this file should not be modified.
   9:.\Generated_Source\PSoC5/cyfitter_cfg.c **** *
  10:.\Generated_Source\PSoC5/cyfitter_cfg.c **** ********************************************************************************
  11:.\Generated_Source\PSoC5/cyfitter_cfg.c **** * Copyright 2012, Cypress Semiconductor Corporation.  All rights reserved.
  12:.\Generated_Source\PSoC5/cyfitter_cfg.c **** * You may use this file only in accordance with the license, terms, conditions, 
  13:.\Generated_Source\PSoC5/cyfitter_cfg.c **** * disclaimers, and limitations in the end user license agreement accompanying 
  14:.\Generated_Source\PSoC5/cyfitter_cfg.c **** * the software package with which this file was provided.
  15:.\Generated_Source\PSoC5/cyfitter_cfg.c **** ********************************************************************************/
  16:.\Generated_Source\PSoC5/cyfitter_cfg.c **** 
  17:.\Generated_Source\PSoC5/cyfitter_cfg.c **** #include <string.h>
  18:.\Generated_Source\PSoC5/cyfitter_cfg.c **** #include <cytypes.h>
  19:.\Generated_Source\PSoC5/cyfitter_cfg.c **** #include <cydevice_trm.h>
  20:.\Generated_Source\PSoC5/cyfitter_cfg.c **** #include <cyfitter.h>
  21:.\Generated_Source\PSoC5/cyfitter_cfg.c **** #include <CyLib.h>
  22:.\Generated_Source\PSoC5/cyfitter_cfg.c **** #include <cyfitter_cfg.h>
  23:.\Generated_Source\PSoC5/cyfitter_cfg.c **** 
ARM GAS  C:\Users\bccho\AppData\Local\Temp\ccIhX0jC.s 			page 2


  24:.\Generated_Source\PSoC5/cyfitter_cfg.c **** /* Clock startup error codes                                                   */
  25:.\Generated_Source\PSoC5/cyfitter_cfg.c **** #define CYCLOCKSTART_NO_ERROR    0
  26:.\Generated_Source\PSoC5/cyfitter_cfg.c **** #define CYCLOCKSTART_XTAL_ERROR  1
  27:.\Generated_Source\PSoC5/cyfitter_cfg.c **** #define CYCLOCKSTART_32KHZ_ERROR 2
  28:.\Generated_Source\PSoC5/cyfitter_cfg.c **** #define CYCLOCKSTART_PLL_ERROR   3
  29:.\Generated_Source\PSoC5/cyfitter_cfg.c **** 
  30:.\Generated_Source\PSoC5/cyfitter_cfg.c **** /*******************************************************************************
  31:.\Generated_Source\PSoC5/cyfitter_cfg.c **** * Function Name: CyClockStartupError
  32:.\Generated_Source\PSoC5/cyfitter_cfg.c **** ********************************************************************************
  33:.\Generated_Source\PSoC5/cyfitter_cfg.c **** * Summary:
  34:.\Generated_Source\PSoC5/cyfitter_cfg.c **** *  If an error is encountered during clock configuration (crystal startup error,
  35:.\Generated_Source\PSoC5/cyfitter_cfg.c **** *  PLL lock error, etc) the system will end up here.  Unless reimplemented by 
  36:.\Generated_Source\PSoC5/cyfitter_cfg.c **** *  the customer, an infinite loop will be encountered.
  37:.\Generated_Source\PSoC5/cyfitter_cfg.c **** *
  38:.\Generated_Source\PSoC5/cyfitter_cfg.c **** * Parameters:  
  39:.\Generated_Source\PSoC5/cyfitter_cfg.c **** *   void
  40:.\Generated_Source\PSoC5/cyfitter_cfg.c **** *
  41:.\Generated_Source\PSoC5/cyfitter_cfg.c **** * Return:
  42:.\Generated_Source\PSoC5/cyfitter_cfg.c **** *   void
  43:.\Generated_Source\PSoC5/cyfitter_cfg.c **** *
  44:.\Generated_Source\PSoC5/cyfitter_cfg.c **** *******************************************************************************/
  45:.\Generated_Source\PSoC5/cyfitter_cfg.c **** #if defined(__GNUC__) || defined(__ARMCC_VERSION)
  46:.\Generated_Source\PSoC5/cyfitter_cfg.c **** __attribute__ ((unused))
  47:.\Generated_Source\PSoC5/cyfitter_cfg.c **** #endif
  48:.\Generated_Source\PSoC5/cyfitter_cfg.c **** static void CyClockStartupError(uint8 errorCode)
  49:.\Generated_Source\PSoC5/cyfitter_cfg.c **** {
  31              		.loc 1 49 0
  32              		.cfi_startproc
  33              		@ args = 0, pretend = 0, frame = 8
  34              		@ frame_needed = 1, uses_anonymous_args = 0
  35              		@ link register save eliminated.
  36 0000 80B4     		push	{r7}
  37              	.LCFI0:
  38              		.cfi_def_cfa_offset 4
  39 0002 83B0     		sub	sp, sp, #12
  40              	.LCFI1:
  41              		.cfi_def_cfa_offset 16
  42 0004 00AF     		add	r7, sp, #0
  43              		.cfi_offset 7, -4
  44              	.LCFI2:
  45              		.cfi_def_cfa_register 7
  46 0006 0346     		mov	r3, r0
  47 0008 FB71     		strb	r3, [r7, #7]
  48              	.L2:
  50:.\Generated_Source\PSoC5/cyfitter_cfg.c ****     /* To remove the compiler warning if errorCode not used.                */
  51:.\Generated_Source\PSoC5/cyfitter_cfg.c ****     errorCode = errorCode;
  52:.\Generated_Source\PSoC5/cyfitter_cfg.c **** 
  53:.\Generated_Source\PSoC5/cyfitter_cfg.c ****     /* `#START CyClockStartupError` */
  54:.\Generated_Source\PSoC5/cyfitter_cfg.c **** 
  55:.\Generated_Source\PSoC5/cyfitter_cfg.c ****     /* If we have a clock startup error (bad MHz crystal, PLL lock, etc)    */
  56:.\Generated_Source\PSoC5/cyfitter_cfg.c ****     /* we will end up here to allow the customer to implement something to  */
  57:.\Generated_Source\PSoC5/cyfitter_cfg.c ****     /* deal with the clock condition.                                       */
  58:.\Generated_Source\PSoC5/cyfitter_cfg.c **** 
  59:.\Generated_Source\PSoC5/cyfitter_cfg.c ****     /* `#END` */
  60:.\Generated_Source\PSoC5/cyfitter_cfg.c **** 
  61:.\Generated_Source\PSoC5/cyfitter_cfg.c ****     /* If nothing else, stop here since the clocks have not started         */
  62:.\Generated_Source\PSoC5/cyfitter_cfg.c ****     /* correctly.                                                           */
ARM GAS  C:\Users\bccho\AppData\Local\Temp\ccIhX0jC.s 			page 3


  63:.\Generated_Source\PSoC5/cyfitter_cfg.c ****     while(1) {}
  49              		.loc 1 63 0
  50 000a FEE7     		b	.L2
  51              		.cfi_endproc
  52              	.LFE0:
  53              		.size	CyClockStartupError, .-CyClockStartupError
  54              		.section	.rodata
  55              		.align	2
  56              		.type	cfg_memset_list, %object
  57              		.size	cfg_memset_list, 60
  58              	cfg_memset_list:
  59 0000 004F0040 		.word	1073762048
  60 0004 3000     		.short	48
  61 0006 10510040 		.4byte	1073762576
  62 000a 1000     		.short	16
  63 000c C0510040 		.word	1073762752
  64 0010 1000     		.short	16
  65 0012 F0510040 		.4byte	1073762800
  66 0016 1000     		.short	16
  67 0018 00000140 		.word	1073807360
  68 001c 0010     		.short	4096
  69 001e 00140140 		.4byte	1073812480
  70 0022 8000     		.short	128
  71 0024 00150140 		.word	1073812736
  72 0028 0007     		.short	1792
  73 002a 00400140 		.4byte	1073823744
  74 002e 000A     		.short	2560
  75 0030 004C0140 		.word	1073826816
  76 0034 0002     		.short	512
  77 0036 00500140 		.4byte	1073827840
  78 003a 2000     		.short	32
  79              		.align	2
  80              		.type	cfg_memcpy_list, %object
  81              		.size	cfg_memcpy_list, 10
  82              	cfg_memcpy_list:
  83 003c 80140140 		.word	1073812608
  84 0040 1C080048 		.word	1207961628
  85 0044 8000     		.short	128
  86 0046 0000     		.section	.text.cfg_write_bytes32,"ax",%progbits
  87              		.align	2
  88              		.thumb
  89              		.thumb_func
  90              		.type	cfg_write_bytes32, %function
  91              	cfg_write_bytes32:
  92              	.LFB1:
  64:.\Generated_Source\PSoC5/cyfitter_cfg.c **** }
  65:.\Generated_Source\PSoC5/cyfitter_cfg.c **** 
  66:.\Generated_Source\PSoC5/cyfitter_cfg.c **** 
  67:.\Generated_Source\PSoC5/cyfitter_cfg.c **** #undef CYCODE
  68:.\Generated_Source\PSoC5/cyfitter_cfg.c **** #undef CYDATA
  69:.\Generated_Source\PSoC5/cyfitter_cfg.c **** #undef CYXDATA
  70:.\Generated_Source\PSoC5/cyfitter_cfg.c **** #undef CYFAR
  71:.\Generated_Source\PSoC5/cyfitter_cfg.c **** #if defined(__GNUC__) || defined(__ARMCC_VERSION)
  72:.\Generated_Source\PSoC5/cyfitter_cfg.c **** 	#define CYCODE
  73:.\Generated_Source\PSoC5/cyfitter_cfg.c **** 	#define CYDATA
  74:.\Generated_Source\PSoC5/cyfitter_cfg.c **** 	#define CYXDATA
  75:.\Generated_Source\PSoC5/cyfitter_cfg.c **** 	#define CYFAR
ARM GAS  C:\Users\bccho\AppData\Local\Temp\ccIhX0jC.s 			page 4


  76:.\Generated_Source\PSoC5/cyfitter_cfg.c **** 
  77:.\Generated_Source\PSoC5/cyfitter_cfg.c **** 	#define CYPACKED __attribute__ ((packed))
  78:.\Generated_Source\PSoC5/cyfitter_cfg.c **** 	#define CYALIGNED __attribute__ ((aligned))
  79:.\Generated_Source\PSoC5/cyfitter_cfg.c **** 	
  80:.\Generated_Source\PSoC5/cyfitter_cfg.c **** 	#if defined(__ARMCC_VERSION)
  81:.\Generated_Source\PSoC5/cyfitter_cfg.c **** 		#define CY_CFG_MEMORY_BARRIER() __memory_changed()
  82:.\Generated_Source\PSoC5/cyfitter_cfg.c **** 	#else
  83:.\Generated_Source\PSoC5/cyfitter_cfg.c **** 		#define CY_CFG_MEMORY_BARRIER() __sync_synchronize()
  84:.\Generated_Source\PSoC5/cyfitter_cfg.c **** 	#endif
  85:.\Generated_Source\PSoC5/cyfitter_cfg.c **** 	
  86:.\Generated_Source\PSoC5/cyfitter_cfg.c **** 	
  87:.\Generated_Source\PSoC5/cyfitter_cfg.c **** 	#define CYMEMZERO(a,c) memset((a),0,(c))
  88:.\Generated_Source\PSoC5/cyfitter_cfg.c **** 	#define CYCONFIGCPY(d,s,c) memcpy((d),(s),(c))
  89:.\Generated_Source\PSoC5/cyfitter_cfg.c **** 	#define CYCONFIGCPYCODE(d,s,c) memcpy((d),(s),(c))
  90:.\Generated_Source\PSoC5/cyfitter_cfg.c **** #else
  91:.\Generated_Source\PSoC5/cyfitter_cfg.c **** 	#error Unsupported toolchain
  92:.\Generated_Source\PSoC5/cyfitter_cfg.c **** #endif
  93:.\Generated_Source\PSoC5/cyfitter_cfg.c **** 
  94:.\Generated_Source\PSoC5/cyfitter_cfg.c **** /* Defines the layout and meaning of each entry in the cfg_memset_list used for clearing registers 
  95:.\Generated_Source\PSoC5/cyfitter_cfg.c **** typedef struct {
  96:.\Generated_Source\PSoC5/cyfitter_cfg.c **** 	void CYFAR *address;
  97:.\Generated_Source\PSoC5/cyfitter_cfg.c **** 	uint16 size;
  98:.\Generated_Source\PSoC5/cyfitter_cfg.c **** } CYPACKED cfg_memset_t;
  99:.\Generated_Source\PSoC5/cyfitter_cfg.c **** 
 100:.\Generated_Source\PSoC5/cyfitter_cfg.c **** /* Defines the layout and meaning of each entry in the cfg_memcpy_list used for initializing regist
 101:.\Generated_Source\PSoC5/cyfitter_cfg.c **** typedef struct {
 102:.\Generated_Source\PSoC5/cyfitter_cfg.c **** 	void CYFAR *dest;
 103:.\Generated_Source\PSoC5/cyfitter_cfg.c **** 	const void CYFAR *src;
 104:.\Generated_Source\PSoC5/cyfitter_cfg.c **** 	uint16 size;
 105:.\Generated_Source\PSoC5/cyfitter_cfg.c **** } CYPACKED cfg_memcpy_t;
 106:.\Generated_Source\PSoC5/cyfitter_cfg.c **** 
 107:.\Generated_Source\PSoC5/cyfitter_cfg.c **** /* Contains the regions of memory that must be set to 0 during configuration */
 108:.\Generated_Source\PSoC5/cyfitter_cfg.c **** #define CFG_MEMSET_COUNT (sizeof(cfg_memset_list)/sizeof(*cfg_memset_list))
 109:.\Generated_Source\PSoC5/cyfitter_cfg.c **** static const cfg_memset_t CYCODE cfg_memset_list [] = {
 110:.\Generated_Source\PSoC5/cyfitter_cfg.c **** 	/* address, size */
 111:.\Generated_Source\PSoC5/cyfitter_cfg.c **** 	{(void CYFAR *)(CYREG_TMR0_CFG0), 48},
 112:.\Generated_Source\PSoC5/cyfitter_cfg.c **** 	{(void CYFAR *)(CYREG_PRT1_DR), 16},
 113:.\Generated_Source\PSoC5/cyfitter_cfg.c **** 	{(void CYFAR *)(CYREG_PRT12_DR), 16},
 114:.\Generated_Source\PSoC5/cyfitter_cfg.c **** 	{(void CYFAR *)(CYREG_PRT15_DR), 16},
 115:.\Generated_Source\PSoC5/cyfitter_cfg.c **** 	{(void CYFAR *)(CYDEV_UCFG_B0_P0_U0_BASE), 4096},
 116:.\Generated_Source\PSoC5/cyfitter_cfg.c **** 	{(void CYFAR *)(CYDEV_UCFG_B1_P2_U0_BASE), 128},
 117:.\Generated_Source\PSoC5/cyfitter_cfg.c **** 	{(void CYFAR *)(CYDEV_UCFG_B1_P2_ROUTE_BASE), 1792},
 118:.\Generated_Source\PSoC5/cyfitter_cfg.c **** 	{(void CYFAR *)(CYDEV_UCFG_DSI0_BASE), 2560},
 119:.\Generated_Source\PSoC5/cyfitter_cfg.c **** 	{(void CYFAR *)(CYDEV_UCFG_DSI12_BASE), 512},
 120:.\Generated_Source\PSoC5/cyfitter_cfg.c **** 	{(void CYFAR *)(CYREG_BCTL0_MDCLK_EN), 32},
 121:.\Generated_Source\PSoC5/cyfitter_cfg.c **** };
 122:.\Generated_Source\PSoC5/cyfitter_cfg.c **** 
 123:.\Generated_Source\PSoC5/cyfitter_cfg.c **** #define CY_CFG_BASE_ADDR_COUNT 30
 124:.\Generated_Source\PSoC5/cyfitter_cfg.c **** typedef struct
 125:.\Generated_Source\PSoC5/cyfitter_cfg.c **** {
 126:.\Generated_Source\PSoC5/cyfitter_cfg.c **** 	uint8 offset;
 127:.\Generated_Source\PSoC5/cyfitter_cfg.c **** 	uint8 value;
 128:.\Generated_Source\PSoC5/cyfitter_cfg.c **** } CYPACKED cy_cfg_addrvalue_t;
 129:.\Generated_Source\PSoC5/cyfitter_cfg.c **** 
 130:.\Generated_Source\PSoC5/cyfitter_cfg.c **** #define cy_cfg_addr_table ((const uint32 CYFAR *)0x48000000)
 131:.\Generated_Source\PSoC5/cyfitter_cfg.c **** #define cy_cfg_data_table ((const cy_cfg_addrvalue_t CYFAR *)0x48000078)
 132:.\Generated_Source\PSoC5/cyfitter_cfg.c **** 
ARM GAS  C:\Users\bccho\AppData\Local\Temp\ccIhX0jC.s 			page 5


 133:.\Generated_Source\PSoC5/cyfitter_cfg.c **** /* UDB_1_0_1_CONFIG Address: CYDEV_UCFG_B1_P2_U1_BASE Size (bytes): 128 */
 134:.\Generated_Source\PSoC5/cyfitter_cfg.c **** #define BS_UDB_1_0_1_CONFIG_VAL ((const uint8 CYFAR *)0x4800081C)
 135:.\Generated_Source\PSoC5/cyfitter_cfg.c **** 
 136:.\Generated_Source\PSoC5/cyfitter_cfg.c **** /* IOPINS0_0 Address: CYREG_PRT0_DM0 Size (bytes): 8 */
 137:.\Generated_Source\PSoC5/cyfitter_cfg.c **** #define BS_IOPINS0_0_VAL ((const uint8 CYFAR *)0x4800089C)
 138:.\Generated_Source\PSoC5/cyfitter_cfg.c **** 
 139:.\Generated_Source\PSoC5/cyfitter_cfg.c **** /* IOPINS0_2 Address: CYREG_PRT2_DM0 Size (bytes): 8 */
 140:.\Generated_Source\PSoC5/cyfitter_cfg.c **** #define BS_IOPINS0_2_VAL ((const uint8 CYFAR *)0x480008A4)
 141:.\Generated_Source\PSoC5/cyfitter_cfg.c **** 
 142:.\Generated_Source\PSoC5/cyfitter_cfg.c **** /* IOPINS0_3 Address: CYREG_PRT3_DR Size (bytes): 10 */
 143:.\Generated_Source\PSoC5/cyfitter_cfg.c **** #define BS_IOPINS0_3_VAL ((const uint8 CYFAR *)0x480008AC)
 144:.\Generated_Source\PSoC5/cyfitter_cfg.c **** 
 145:.\Generated_Source\PSoC5/cyfitter_cfg.c **** /* IOPINS0_4 Address: CYREG_PRT4_DM0 Size (bytes): 8 */
 146:.\Generated_Source\PSoC5/cyfitter_cfg.c **** #define BS_IOPINS0_4_VAL ((const uint8 CYFAR *)0x480008B8)
 147:.\Generated_Source\PSoC5/cyfitter_cfg.c **** 
 148:.\Generated_Source\PSoC5/cyfitter_cfg.c **** /* IOPINS0_5 Address: CYREG_PRT5_DM0 Size (bytes): 8 */
 149:.\Generated_Source\PSoC5/cyfitter_cfg.c **** #define BS_IOPINS0_5_VAL ((const uint8 CYFAR *)0x480008C0)
 150:.\Generated_Source\PSoC5/cyfitter_cfg.c **** 
 151:.\Generated_Source\PSoC5/cyfitter_cfg.c **** /* IOPINS0_6 Address: CYREG_PRT6_DR Size (bytes): 10 */
 152:.\Generated_Source\PSoC5/cyfitter_cfg.c **** #define BS_IOPINS0_6_VAL ((const uint8 CYFAR *)0x480008C8)
 153:.\Generated_Source\PSoC5/cyfitter_cfg.c **** 
 154:.\Generated_Source\PSoC5/cyfitter_cfg.c **** #define CFG_MEMCPY_COUNT (sizeof(cfg_memcpy_list)/sizeof(*cfg_memcpy_list))
 155:.\Generated_Source\PSoC5/cyfitter_cfg.c **** static const cfg_memcpy_t CYCODE cfg_memcpy_list [] = {
 156:.\Generated_Source\PSoC5/cyfitter_cfg.c **** 	/* dest, src, size */
 157:.\Generated_Source\PSoC5/cyfitter_cfg.c **** 	{(void CYFAR *)(CYDEV_UCFG_B1_P2_U1_BASE), BS_UDB_1_0_1_CONFIG_VAL, 128},
 158:.\Generated_Source\PSoC5/cyfitter_cfg.c **** };
 159:.\Generated_Source\PSoC5/cyfitter_cfg.c **** 
 160:.\Generated_Source\PSoC5/cyfitter_cfg.c **** 
 161:.\Generated_Source\PSoC5/cyfitter_cfg.c **** /*******************************************************************************
 162:.\Generated_Source\PSoC5/cyfitter_cfg.c **** * Function Name: cfg_write_bytes32
 163:.\Generated_Source\PSoC5/cyfitter_cfg.c **** ********************************************************************************
 164:.\Generated_Source\PSoC5/cyfitter_cfg.c **** * Summary:
 165:.\Generated_Source\PSoC5/cyfitter_cfg.c **** *  This function is used for setting up the chip configuration areas that 
 166:.\Generated_Source\PSoC5/cyfitter_cfg.c **** *  contain relativly sparse data.
 167:.\Generated_Source\PSoC5/cyfitter_cfg.c **** *
 168:.\Generated_Source\PSoC5/cyfitter_cfg.c **** * Parameters:  
 169:.\Generated_Source\PSoC5/cyfitter_cfg.c **** *   void
 170:.\Generated_Source\PSoC5/cyfitter_cfg.c **** *
 171:.\Generated_Source\PSoC5/cyfitter_cfg.c **** * Return:
 172:.\Generated_Source\PSoC5/cyfitter_cfg.c **** *   void
 173:.\Generated_Source\PSoC5/cyfitter_cfg.c **** *
 174:.\Generated_Source\PSoC5/cyfitter_cfg.c **** *******************************************************************************/
 175:.\Generated_Source\PSoC5/cyfitter_cfg.c **** /* For 32-bit little-endian architectures */
 176:.\Generated_Source\PSoC5/cyfitter_cfg.c **** static void cfg_write_bytes32(void)
 177:.\Generated_Source\PSoC5/cyfitter_cfg.c **** {
  93              		.loc 1 177 0
  94              		.cfi_startproc
  95              		@ args = 0, pretend = 0, frame = 16
  96              		@ frame_needed = 1, uses_anonymous_args = 0
  97              		@ link register save eliminated.
  98 0000 80B4     		push	{r7}
  99              	.LCFI3:
 100              		.cfi_def_cfa_offset 4
 101 0002 85B0     		sub	sp, sp, #20
 102              	.LCFI4:
 103              		.cfi_def_cfa_offset 24
 104 0004 00AF     		add	r7, sp, #0
ARM GAS  C:\Users\bccho\AppData\Local\Temp\ccIhX0jC.s 			page 6


 105              		.cfi_offset 7, -4
 106              	.LCFI5:
 107              		.cfi_def_cfa_register 7
 178:.\Generated_Source\PSoC5/cyfitter_cfg.c **** 	unsigned int i, j = 0;
 108              		.loc 1 178 0
 109 0006 4FF00003 		mov	r3, #0
 110 000a 7B60     		str	r3, [r7, #4]
 179:.\Generated_Source\PSoC5/cyfitter_cfg.c **** 	for (i = 0; i < CY_CFG_BASE_ADDR_COUNT; i++)
 111              		.loc 1 179 0
 112 000c 4FF00003 		mov	r3, #0
 113 0010 3B60     		str	r3, [r7, #0]
 114 0012 36E0     		b	.L5
 115              	.L8:
 116              	.LBB2:
 180:.\Generated_Source\PSoC5/cyfitter_cfg.c **** 	{
 181:.\Generated_Source\PSoC5/cyfitter_cfg.c **** 		uint32 baseAddr = cy_cfg_addr_table[i];
 117              		.loc 1 181 0
 118 0014 3B68     		ldr	r3, [r7, #0]
 119 0016 4FEA8303 		lsl	r3, r3, #2
 120 001a 03F19043 		add	r3, r3, #1207959552
 121 001e 1B68     		ldr	r3, [r3, #0]
 122 0020 BB60     		str	r3, [r7, #8]
 182:.\Generated_Source\PSoC5/cyfitter_cfg.c **** 		uint8 count = baseAddr & 0xFFu;
 123              		.loc 1 182 0
 124 0022 BB68     		ldr	r3, [r7, #8]
 125 0024 FB73     		strb	r3, [r7, #15]
 183:.\Generated_Source\PSoC5/cyfitter_cfg.c **** 		baseAddr &= 0xFFFFFF00u;
 126              		.loc 1 183 0
 127 0026 BB68     		ldr	r3, [r7, #8]
 128 0028 23F0FF03 		bic	r3, r3, #255
 129 002c BB60     		str	r3, [r7, #8]
 184:.\Generated_Source\PSoC5/cyfitter_cfg.c **** 		while (count--)
 130              		.loc 1 184 0
 131 002e 18E0     		b	.L6
 132              	.L7:
 185:.\Generated_Source\PSoC5/cyfitter_cfg.c **** 		{
 186:.\Generated_Source\PSoC5/cyfitter_cfg.c **** 			CY_SET_XTND_REG8((void CYFAR *)(baseAddr + cy_cfg_data_table[j].offset), cy_cfg_data_table[j].va
 133              		.loc 1 186 0
 134 0030 7B68     		ldr	r3, [r7, #4]
 135 0032 4FEA4303 		lsl	r3, r3, #1
 136 0036 03F19043 		add	r3, r3, #1207959552
 137 003a 03F17803 		add	r3, r3, #120
 138 003e 1B78     		ldrb	r3, [r3, #0]	@ zero_extendqisi2
 139 0040 1A46     		mov	r2, r3
 140 0042 BB68     		ldr	r3, [r7, #8]
 141 0044 1344     		add	r3, r2, r3
 142 0046 1A46     		mov	r2, r3
 143 0048 7B68     		ldr	r3, [r7, #4]
 144 004a 4FEA4303 		lsl	r3, r3, #1
 145 004e 03F19043 		add	r3, r3, #1207959552
 146 0052 03F17803 		add	r3, r3, #120
 147 0056 5B78     		ldrb	r3, [r3, #1]	@ zero_extendqisi2
 148 0058 1370     		strb	r3, [r2, #0]
 187:.\Generated_Source\PSoC5/cyfitter_cfg.c **** 			j++;
 149              		.loc 1 187 0
 150 005a 7B68     		ldr	r3, [r7, #4]
 151 005c 03F10103 		add	r3, r3, #1
ARM GAS  C:\Users\bccho\AppData\Local\Temp\ccIhX0jC.s 			page 7


 152 0060 7B60     		str	r3, [r7, #4]
 153              	.L6:
 154              		.loc 1 184 0
 155 0062 FB7B     		ldrb	r3, [r7, #15]	@ zero_extendqisi2
 156 0064 002B     		cmp	r3, #0
 157 0066 0CBF     		ite	eq
 158 0068 0023     		moveq	r3, #0
 159 006a 0123     		movne	r3, #1
 160 006c DBB2     		uxtb	r3, r3
 161 006e FA7B     		ldrb	r2, [r7, #15]
 162 0070 02F1FF32 		add	r2, r2, #-1
 163 0074 FA73     		strb	r2, [r7, #15]
 164 0076 002B     		cmp	r3, #0
 165 0078 DAD1     		bne	.L7
 166              	.LBE2:
 167              		.loc 1 179 0
 168 007a 3B68     		ldr	r3, [r7, #0]
 169 007c 03F10103 		add	r3, r3, #1
 170 0080 3B60     		str	r3, [r7, #0]
 171              	.L5:
 172 0082 3B68     		ldr	r3, [r7, #0]
 173 0084 1D2B     		cmp	r3, #29
 174 0086 C5D9     		bls	.L8
 188:.\Generated_Source\PSoC5/cyfitter_cfg.c **** 		}
 189:.\Generated_Source\PSoC5/cyfitter_cfg.c **** 	}
 190:.\Generated_Source\PSoC5/cyfitter_cfg.c **** }
 175              		.loc 1 190 0
 176 0088 07F11407 		add	r7, r7, #20
 177 008c BD46     		mov	sp, r7
 178 008e 80BC     		pop	{r7}
 179 0090 7047     		bx	lr
 180              		.cfi_endproc
 181              	.LFE1:
 182              		.size	cfg_write_bytes32, .-cfg_write_bytes32
 183 0092 00BF     		.section	.text.ClockSetup,"ax",%progbits
 184              		.align	2
 185              		.thumb
 186              		.thumb_func
 187              		.type	ClockSetup, %function
 188              	ClockSetup:
 189              	.LFB2:
 191:.\Generated_Source\PSoC5/cyfitter_cfg.c **** 
 192:.\Generated_Source\PSoC5/cyfitter_cfg.c **** /*******************************************************************************
 193:.\Generated_Source\PSoC5/cyfitter_cfg.c **** * Function Name: ClockSetup
 194:.\Generated_Source\PSoC5/cyfitter_cfg.c **** ********************************************************************************
 195:.\Generated_Source\PSoC5/cyfitter_cfg.c **** *
 196:.\Generated_Source\PSoC5/cyfitter_cfg.c **** * Summary:
 197:.\Generated_Source\PSoC5/cyfitter_cfg.c **** *  Performs the initialization of all of the clocks in the device based on the
 198:.\Generated_Source\PSoC5/cyfitter_cfg.c **** *  settings in the Clock tab of the DWR.  This includes enabling the requested
 199:.\Generated_Source\PSoC5/cyfitter_cfg.c **** *  clocks and setting the necessary dividers to produce the desired frequency. 
 200:.\Generated_Source\PSoC5/cyfitter_cfg.c **** *
 201:.\Generated_Source\PSoC5/cyfitter_cfg.c **** * Parameters:
 202:.\Generated_Source\PSoC5/cyfitter_cfg.c **** *  void
 203:.\Generated_Source\PSoC5/cyfitter_cfg.c **** *
 204:.\Generated_Source\PSoC5/cyfitter_cfg.c **** * Return:
 205:.\Generated_Source\PSoC5/cyfitter_cfg.c **** *  void
 206:.\Generated_Source\PSoC5/cyfitter_cfg.c **** *
ARM GAS  C:\Users\bccho\AppData\Local\Temp\ccIhX0jC.s 			page 8


 207:.\Generated_Source\PSoC5/cyfitter_cfg.c **** *******************************************************************************/
 208:.\Generated_Source\PSoC5/cyfitter_cfg.c **** static void ClockSetup(void)
 209:.\Generated_Source\PSoC5/cyfitter_cfg.c **** {
 190              		.loc 1 209 0
 191              		.cfi_startproc
 192              		@ args = 0, pretend = 0, frame = 16
 193              		@ frame_needed = 1, uses_anonymous_args = 0
 194 0000 80B5     		push	{r7, lr}
 195              	.LCFI6:
 196              		.cfi_def_cfa_offset 8
 197 0002 84B0     		sub	sp, sp, #16
 198              	.LCFI7:
 199              		.cfi_def_cfa_offset 24
 200 0004 00AF     		add	r7, sp, #0
 201              		.cfi_offset 14, -4
 202              		.cfi_offset 7, -8
 203              	.LCFI8:
 204              		.cfi_def_cfa_register 7
 210:.\Generated_Source\PSoC5/cyfitter_cfg.c **** 	reg32  timeout;
 211:.\Generated_Source\PSoC5/cyfitter_cfg.c **** 	reg32* timeout_p = &timeout;
 205              		.loc 1 211 0
 206 0006 07F10803 		add	r3, r7, #8
 207 000a FB60     		str	r3, [r7, #12]
 212:.\Generated_Source\PSoC5/cyfitter_cfg.c **** 	reg8   pllLock;
 213:.\Generated_Source\PSoC5/cyfitter_cfg.c **** 
 214:.\Generated_Source\PSoC5/cyfitter_cfg.c **** 
 215:.\Generated_Source\PSoC5/cyfitter_cfg.c **** 	/* Configure Digital Clocks based on settings from Clock DWR */
 216:.\Generated_Source\PSoC5/cyfitter_cfg.c **** 	CY_SET_XTND_REG24((void CYFAR *)(CYREG_CLKDIST_DCFG0_CFG0), 0x180001);
 208              		.loc 1 216 0
 209 000c 44F28000 		movw	r0, #:lower16:1073758336
 210 0010 C4F20000 		movt	r0, #:upper16:1073758336
 211 0014 40F20101 		movw	r1, #:lower16:1572865
 212 0018 C0F21801 		movt	r1, #:upper16:1572865
 213 001c FFF7FEFF 		bl	CySetReg24
 217:.\Generated_Source\PSoC5/cyfitter_cfg.c **** 	CY_SET_XTND_REG24((void CYFAR *)(CYREG_CLKDIST_DCFG1_CFG0), 0x19001D);
 214              		.loc 1 217 0
 215 0020 44F28400 		movw	r0, #:lower16:1073758340
 216 0024 C4F20000 		movt	r0, #:upper16:1073758340
 217 0028 40F21D01 		movw	r1, #:lower16:1638429
 218 002c C0F21901 		movt	r1, #:upper16:1638429
 219 0030 FFF7FEFF 		bl	CySetReg24
 218:.\Generated_Source\PSoC5/cyfitter_cfg.c **** 	CY_SET_XTND_REG24((void CYFAR *)(CYREG_CLKDIST_DCFG2_CFG0), 0x180138);
 220              		.loc 1 218 0
 221 0034 44F28800 		movw	r0, #:lower16:1073758344
 222 0038 C4F20000 		movt	r0, #:upper16:1073758344
 223 003c 40F23811 		movw	r1, #:lower16:1573176
 224 0040 C0F21801 		movt	r1, #:upper16:1573176
 225 0044 FFF7FEFF 		bl	CySetReg24
 219:.\Generated_Source\PSoC5/cyfitter_cfg.c **** 	CY_SET_XTND_REG24((void CYFAR *)(CYREG_CLKDIST_DCFG3_CFG0), 0x19752F);
 226              		.loc 1 219 0
 227 0048 44F28C00 		movw	r0, #:lower16:1073758348
 228 004c C4F20000 		movt	r0, #:upper16:1073758348
 229 0050 47F22F51 		movw	r1, #:lower16:1668399
 230 0054 C0F21901 		movt	r1, #:upper16:1668399
 231 0058 FFF7FEFF 		bl	CySetReg24
 220:.\Generated_Source\PSoC5/cyfitter_cfg.c **** 
 221:.\Generated_Source\PSoC5/cyfitter_cfg.c **** 	/* Configure ILO based on settings from Clock DWR */
ARM GAS  C:\Users\bccho\AppData\Local\Temp\ccIhX0jC.s 			page 9


 222:.\Generated_Source\PSoC5/cyfitter_cfg.c **** 	CY_SET_XTND_REG8((void CYFAR *)(CYREG_SLOWCLK_ILO_CR0), 0x02);
 232              		.loc 1 222 0
 233 005c 44F20033 		movw	r3, #:lower16:1073758976
 234 0060 C4F20003 		movt	r3, #:upper16:1073758976
 235 0064 4FF00202 		mov	r2, #2
 236 0068 1A70     		strb	r2, [r3, #0]
 223:.\Generated_Source\PSoC5/cyfitter_cfg.c **** 	CY_SET_XTND_REG8((void CYFAR *)(CYREG_CLKDIST_CR), 0x08);
 237              		.loc 1 223 0
 238 006a 44F20003 		movw	r3, #:lower16:1073758208
 239 006e C4F20003 		movt	r3, #:upper16:1073758208
 240 0072 4FF00802 		mov	r2, #8
 241 0076 1A70     		strb	r2, [r3, #0]
 224:.\Generated_Source\PSoC5/cyfitter_cfg.c **** 
 225:.\Generated_Source\PSoC5/cyfitter_cfg.c **** 	/* Configure IMO based on settings from Clock DWR */
 226:.\Generated_Source\PSoC5/cyfitter_cfg.c **** 	CY_SET_XTND_REG8((void CYFAR *)(CYREG_FASTCLK_IMO_CR), 0x03);
 242              		.loc 1 226 0
 243 0078 44F20023 		movw	r3, #:lower16:1073758720
 244 007c C4F20003 		movt	r3, #:upper16:1073758720
 245 0080 4FF00302 		mov	r2, #3
 246 0084 1A70     		strb	r2, [r3, #0]
 227:.\Generated_Source\PSoC5/cyfitter_cfg.c **** 	CY_SET_XTND_REG8((void CYFAR *)(CYREG_IMO_TR1), (CY_GET_XTND_REG8(CYREG_FLSHID_CUST_TABLES_IMO_3MH
 247              		.loc 1 227 0
 248 0086 44F2A163 		movw	r3, #:lower16:1073759905
 249 008a C4F20003 		movt	r3, #:upper16:1073759905
 250 008e 40F20812 		movw	r2, #:lower16:1224737032
 251 0092 C4F60012 		movt	r2, #:upper16:1224737032
 252 0096 1278     		ldrb	r2, [r2, #0]
 253 0098 D2B2     		uxtb	r2, r2
 254 009a 1A70     		strb	r2, [r3, #0]
 228:.\Generated_Source\PSoC5/cyfitter_cfg.c **** 
 229:.\Generated_Source\PSoC5/cyfitter_cfg.c **** 	/* Configure PLL based on settings from Clock DWR */
 230:.\Generated_Source\PSoC5/cyfitter_cfg.c **** 	CY_SET_XTND_REG16((void CYFAR *)(CYREG_FASTCLK_PLL_P), 0x0008);
 255              		.loc 1 230 0
 256 009c 44F22223 		movw	r3, #:lower16:1073758754
 257 00a0 C4F20003 		movt	r3, #:upper16:1073758754
 258 00a4 4FF00802 		mov	r2, #8
 259 00a8 1A80     		strh	r2, [r3, #0]	@ movhi
 231:.\Generated_Source\PSoC5/cyfitter_cfg.c **** 	CY_SET_XTND_REG16((void CYFAR *)(CYREG_FASTCLK_PLL_CFG0), 0x1051);
 260              		.loc 1 231 0
 261 00aa 44F22023 		movw	r3, #:lower16:1073758752
 262 00ae C4F20003 		movt	r3, #:upper16:1073758752
 263 00b2 41F25102 		movw	r2, #4177
 264 00b6 1A80     		strh	r2, [r3, #0]	@ movhi
 232:.\Generated_Source\PSoC5/cyfitter_cfg.c **** 	/* Wait up to 250us for the PLL to lock */
 233:.\Generated_Source\PSoC5/cyfitter_cfg.c **** 	pllLock = 0;
 265              		.loc 1 233 0
 266 00b8 4FF00003 		mov	r3, #0
 267 00bc FB71     		strb	r3, [r7, #7]
 234:.\Generated_Source\PSoC5/cyfitter_cfg.c **** 	for (timeout = 250 / 10; *timeout_p && (pllLock != 0x03u); timeout--) { 
 268              		.loc 1 234 0
 269 00be 4FF01903 		mov	r3, #25
 270 00c2 BB60     		str	r3, [r7, #8]
 271 00c4 1AE0     		b	.L11
 272              	.L13:
 235:.\Generated_Source\PSoC5/cyfitter_cfg.c **** 		pllLock = 0x03u & ((pllLock << 1) | ((CY_GET_XTND_REG8(CYREG_FASTCLK_PLL_SR) & 0x01u) >> 0));
 273              		.loc 1 235 0
 274 00c6 FB79     		ldrb	r3, [r7, #7]
ARM GAS  C:\Users\bccho\AppData\Local\Temp\ccIhX0jC.s 			page 10


 275 00c8 DBB2     		uxtb	r3, r3
 276 00ca 4FEA4303 		lsl	r3, r3, #1
 277 00ce DAB2     		uxtb	r2, r3
 278 00d0 44F22523 		movw	r3, #:lower16:1073758757
 279 00d4 C4F20003 		movt	r3, #:upper16:1073758757
 280 00d8 1B78     		ldrb	r3, [r3, #0]
 281 00da DBB2     		uxtb	r3, r3
 282 00dc 03F00103 		and	r3, r3, #1
 283 00e0 42EA0303 		orr	r3, r2, r3
 284 00e4 DBB2     		uxtb	r3, r3
 285 00e6 03F00303 		and	r3, r3, #3
 286 00ea FB71     		strb	r3, [r7, #7]
 236:.\Generated_Source\PSoC5/cyfitter_cfg.c **** 		CyDelayCycles(10 * 48); /* Delay 10us based on 48MHz clock */
 287              		.loc 1 236 0
 288 00ec 4FF4F070 		mov	r0, #480
 289 00f0 FFF7FEFF 		bl	CyDelayCycles
 290              		.loc 1 234 0
 291 00f4 BB68     		ldr	r3, [r7, #8]
 292 00f6 03F1FF33 		add	r3, r3, #-1
 293 00fa BB60     		str	r3, [r7, #8]
 294              	.L11:
 295 00fc FB68     		ldr	r3, [r7, #12]
 296 00fe 1B68     		ldr	r3, [r3, #0]
 297 0100 002B     		cmp	r3, #0
 298 0102 03D0     		beq	.L12
 299 0104 FB79     		ldrb	r3, [r7, #7]
 300 0106 DBB2     		uxtb	r3, r3
 301 0108 032B     		cmp	r3, #3
 302 010a DCD1     		bne	.L13
 303              	.L12:
 237:.\Generated_Source\PSoC5/cyfitter_cfg.c **** 	}
 238:.\Generated_Source\PSoC5/cyfitter_cfg.c **** 
 239:.\Generated_Source\PSoC5/cyfitter_cfg.c **** 	/* Configure Bus/Master Clock based on settings from Clock DWR */
 240:.\Generated_Source\PSoC5/cyfitter_cfg.c **** 	CY_SET_XTND_REG16((void CYFAR *)(CYREG_CLKDIST_MSTR0), 0x0100);
 304              		.loc 1 240 0
 305 010c 44F20403 		movw	r3, #:lower16:1073758212
 306 0110 C4F20003 		movt	r3, #:upper16:1073758212
 307 0114 4FF48072 		mov	r2, #256
 308 0118 1A80     		strh	r2, [r3, #0]	@ movhi
 241:.\Generated_Source\PSoC5/cyfitter_cfg.c **** 	CY_SET_XTND_REG8((void CYFAR *)(CYREG_CLKDIST_MSTR0), 0x07);
 309              		.loc 1 241 0
 310 011a 44F20403 		movw	r3, #:lower16:1073758212
 311 011e C4F20003 		movt	r3, #:upper16:1073758212
 312 0122 4FF00702 		mov	r2, #7
 313 0126 1A70     		strb	r2, [r3, #0]
 242:.\Generated_Source\PSoC5/cyfitter_cfg.c **** 	CY_SET_XTND_REG8((void CYFAR *)(CYREG_CLKDIST_BCFG0), 0x00);
 314              		.loc 1 242 0
 315 0128 44F20603 		movw	r3, #:lower16:1073758214
 316 012c C4F20003 		movt	r3, #:upper16:1073758214
 317 0130 4FF00002 		mov	r2, #0
 318 0134 1A70     		strb	r2, [r3, #0]
 243:.\Generated_Source\PSoC5/cyfitter_cfg.c **** 	CY_SET_XTND_REG8((void CYFAR *)(CYREG_CLKDIST_BCFG2), 0x48);
 319              		.loc 1 243 0
 320 0136 44F20803 		movw	r3, #:lower16:1073758216
 321 013a C4F20003 		movt	r3, #:upper16:1073758216
 322 013e 4FF04802 		mov	r2, #72
 323 0142 1A70     		strb	r2, [r3, #0]
ARM GAS  C:\Users\bccho\AppData\Local\Temp\ccIhX0jC.s 			page 11


 244:.\Generated_Source\PSoC5/cyfitter_cfg.c **** 	CY_SET_XTND_REG8((void CYFAR *)(CYREG_CLKDIST_MSTR0), 0x00);
 324              		.loc 1 244 0
 325 0144 44F20403 		movw	r3, #:lower16:1073758212
 326 0148 C4F20003 		movt	r3, #:upper16:1073758212
 327 014c 4FF00002 		mov	r2, #0
 328 0150 1A70     		strb	r2, [r3, #0]
 245:.\Generated_Source\PSoC5/cyfitter_cfg.c **** 	CY_SET_XTND_REG8((void CYFAR *)(CYREG_CLKDIST_LD), 0x02);
 329              		.loc 1 245 0
 330 0152 44F20103 		movw	r3, #:lower16:1073758209
 331 0156 C4F20003 		movt	r3, #:upper16:1073758209
 332 015a 4FF00202 		mov	r2, #2
 333 015e 1A70     		strb	r2, [r3, #0]
 246:.\Generated_Source\PSoC5/cyfitter_cfg.c **** 
 247:.\Generated_Source\PSoC5/cyfitter_cfg.c **** 	CY_SET_XTND_REG8((void CYFAR *)(CYREG_PM_ACT_CFG2), ((CY_GET_XTND_REG8(CYREG_PM_ACT_CFG2) | 0x0F))
 334              		.loc 1 247 0
 335 0160 44F2A233 		movw	r3, #:lower16:1073759138
 336 0164 C4F20003 		movt	r3, #:upper16:1073759138
 337 0168 44F2A232 		movw	r2, #:lower16:1073759138
 338 016c C4F20002 		movt	r2, #:upper16:1073759138
 339 0170 1278     		ldrb	r2, [r2, #0]
 340 0172 D2B2     		uxtb	r2, r2
 341 0174 42F00F02 		orr	r2, r2, #15
 342 0178 D2B2     		uxtb	r2, r2
 343 017a 1A70     		strb	r2, [r3, #0]
 248:.\Generated_Source\PSoC5/cyfitter_cfg.c **** }
 344              		.loc 1 248 0
 345 017c 07F11007 		add	r7, r7, #16
 346 0180 BD46     		mov	sp, r7
 347 0182 80BD     		pop	{r7, pc}
 348              		.cfi_endproc
 349              	.LFE2:
 350              		.size	ClockSetup, .-ClockSetup
 351              		.section	.text.AnalogSetDefault,"ax",%progbits
 352              		.align	2
 353              		.global	AnalogSetDefault
 354              		.thumb
 355              		.thumb_func
 356              		.type	AnalogSetDefault, %function
 357              	AnalogSetDefault:
 358              	.LFB3:
 249:.\Generated_Source\PSoC5/cyfitter_cfg.c **** 
 250:.\Generated_Source\PSoC5/cyfitter_cfg.c **** 
 251:.\Generated_Source\PSoC5/cyfitter_cfg.c **** /* Analog API Functions */
 252:.\Generated_Source\PSoC5/cyfitter_cfg.c **** 
 253:.\Generated_Source\PSoC5/cyfitter_cfg.c **** /*******************************************************************************
 254:.\Generated_Source\PSoC5/cyfitter_cfg.c **** * Function Name: AnalogSetDefault
 255:.\Generated_Source\PSoC5/cyfitter_cfg.c **** ********************************************************************************
 256:.\Generated_Source\PSoC5/cyfitter_cfg.c **** *
 257:.\Generated_Source\PSoC5/cyfitter_cfg.c **** * Summary:
 258:.\Generated_Source\PSoC5/cyfitter_cfg.c **** *  Sets up the analog portions of the chip to default values based on chip
 259:.\Generated_Source\PSoC5/cyfitter_cfg.c **** *  configuration options from the project.
 260:.\Generated_Source\PSoC5/cyfitter_cfg.c **** *
 261:.\Generated_Source\PSoC5/cyfitter_cfg.c **** * Parameters:
 262:.\Generated_Source\PSoC5/cyfitter_cfg.c **** *  void
 263:.\Generated_Source\PSoC5/cyfitter_cfg.c **** *
 264:.\Generated_Source\PSoC5/cyfitter_cfg.c **** * Return:
 265:.\Generated_Source\PSoC5/cyfitter_cfg.c **** *  void
ARM GAS  C:\Users\bccho\AppData\Local\Temp\ccIhX0jC.s 			page 12


 266:.\Generated_Source\PSoC5/cyfitter_cfg.c **** *
 267:.\Generated_Source\PSoC5/cyfitter_cfg.c **** *******************************************************************************/
 268:.\Generated_Source\PSoC5/cyfitter_cfg.c **** void AnalogSetDefault(void)
 269:.\Generated_Source\PSoC5/cyfitter_cfg.c **** {
 359              		.loc 1 269 0
 360              		.cfi_startproc
 361              		@ args = 0, pretend = 0, frame = 8
 362              		@ frame_needed = 1, uses_anonymous_args = 0
 363              		@ link register save eliminated.
 364 0000 80B4     		push	{r7}
 365              	.LCFI9:
 366              		.cfi_def_cfa_offset 4
 367 0002 83B0     		sub	sp, sp, #12
 368              	.LCFI10:
 369              		.cfi_def_cfa_offset 16
 370 0004 00AF     		add	r7, sp, #0
 371              		.cfi_offset 7, -4
 372              	.LCFI11:
 373              		.cfi_def_cfa_register 7
 270:.\Generated_Source\PSoC5/cyfitter_cfg.c **** 	uint8 bg_xover_inl_trim = CY_GET_XTND_REG8(CYREG_FLSHID_MFG_CFG_BG_XOVER_INL_TRIM + 1u);
 374              		.loc 1 270 0
 375 0006 40F2CF13 		movw	r3, #:lower16:1224737231
 376 000a C4F60013 		movt	r3, #:upper16:1224737231
 377 000e 1B78     		ldrb	r3, [r3, #0]
 378 0010 FB71     		strb	r3, [r7, #7]
 271:.\Generated_Source\PSoC5/cyfitter_cfg.c **** 	CY_SET_XTND_REG8(CYREG_BG_DFT0, bg_xover_inl_trim & 0x07u);
 379              		.loc 1 271 0
 380 0012 45F66E03 		movw	r3, #:lower16:1073764462
 381 0016 C4F20003 		movt	r3, #:upper16:1073764462
 382 001a FA79     		ldrb	r2, [r7, #7]	@ zero_extendqisi2
 383 001c 02F00702 		and	r2, r2, #7
 384 0020 1A70     		strb	r2, [r3, #0]
 272:.\Generated_Source\PSoC5/cyfitter_cfg.c **** 	CY_SET_XTND_REG8(CYREG_BG_DFT1, (bg_xover_inl_trim >> 4) & 0x0Fu);
 385              		.loc 1 272 0
 386 0022 45F66F03 		movw	r3, #:lower16:1073764463
 387 0026 C4F20003 		movt	r3, #:upper16:1073764463
 388 002a FA79     		ldrb	r2, [r7, #7]	@ zero_extendqisi2
 389 002c 4FEA1212 		lsr	r2, r2, #4
 390 0030 D2B2     		uxtb	r2, r2
 391 0032 1A70     		strb	r2, [r3, #0]
 273:.\Generated_Source\PSoC5/cyfitter_cfg.c **** 	CY_SET_XTND_REG8(CYREG_PUMP_CR0, 0x44);
 392              		.loc 1 273 0
 393 0034 45F67603 		movw	r3, #:lower16:1073764470
 394 0038 C4F20003 		movt	r3, #:upper16:1073764470
 395 003c 4FF04402 		mov	r2, #68
 396 0040 1A70     		strb	r2, [r3, #0]
 274:.\Generated_Source\PSoC5/cyfitter_cfg.c **** }
 397              		.loc 1 274 0
 398 0042 07F10C07 		add	r7, r7, #12
 399 0046 BD46     		mov	sp, r7
 400 0048 80BC     		pop	{r7}
 401 004a 7047     		bx	lr
 402              		.cfi_endproc
 403              	.LFE3:
 404              		.size	AnalogSetDefault, .-AnalogSetDefault
 405              		.section	.text.SetAnalogRoutingPumps,"ax",%progbits
 406              		.align	2
ARM GAS  C:\Users\bccho\AppData\Local\Temp\ccIhX0jC.s 			page 13


 407              		.global	SetAnalogRoutingPumps
 408              		.thumb
 409              		.thumb_func
 410              		.type	SetAnalogRoutingPumps, %function
 411              	SetAnalogRoutingPumps:
 412              	.LFB4:
 275:.\Generated_Source\PSoC5/cyfitter_cfg.c **** 
 276:.\Generated_Source\PSoC5/cyfitter_cfg.c **** 
 277:.\Generated_Source\PSoC5/cyfitter_cfg.c **** /*******************************************************************************
 278:.\Generated_Source\PSoC5/cyfitter_cfg.c **** * Function Name: SetAnalogRoutingPumps
 279:.\Generated_Source\PSoC5/cyfitter_cfg.c **** ********************************************************************************
 280:.\Generated_Source\PSoC5/cyfitter_cfg.c **** *
 281:.\Generated_Source\PSoC5/cyfitter_cfg.c **** * Summary:
 282:.\Generated_Source\PSoC5/cyfitter_cfg.c **** * Enables or disables the analog pumps feeding analog routing switches.
 283:.\Generated_Source\PSoC5/cyfitter_cfg.c **** * Intended to be called at startup, based on the Vdda system configuration;
 284:.\Generated_Source\PSoC5/cyfitter_cfg.c **** * may be called during operation when the user informs us that the Vdda voltage crossed the pump th
 285:.\Generated_Source\PSoC5/cyfitter_cfg.c **** *
 286:.\Generated_Source\PSoC5/cyfitter_cfg.c **** * Parameters:
 287:.\Generated_Source\PSoC5/cyfitter_cfg.c **** *  enabled - 1 to enable the pumps, 0 to disable the pumps
 288:.\Generated_Source\PSoC5/cyfitter_cfg.c **** *
 289:.\Generated_Source\PSoC5/cyfitter_cfg.c **** * Return:
 290:.\Generated_Source\PSoC5/cyfitter_cfg.c **** *  void
 291:.\Generated_Source\PSoC5/cyfitter_cfg.c **** *
 292:.\Generated_Source\PSoC5/cyfitter_cfg.c **** *******************************************************************************/
 293:.\Generated_Source\PSoC5/cyfitter_cfg.c **** void SetAnalogRoutingPumps(uint8 enabled)
 294:.\Generated_Source\PSoC5/cyfitter_cfg.c **** {
 413              		.loc 1 294 0
 414              		.cfi_startproc
 415              		@ args = 0, pretend = 0, frame = 16
 416              		@ frame_needed = 1, uses_anonymous_args = 0
 417              		@ link register save eliminated.
 418 0000 80B4     		push	{r7}
 419              	.LCFI12:
 420              		.cfi_def_cfa_offset 4
 421 0002 85B0     		sub	sp, sp, #20
 422              	.LCFI13:
 423              		.cfi_def_cfa_offset 24
 424 0004 00AF     		add	r7, sp, #0
 425              		.cfi_offset 7, -4
 426              	.LCFI14:
 427              		.cfi_def_cfa_register 7
 428 0006 0346     		mov	r3, r0
 429 0008 FB71     		strb	r3, [r7, #7]
 295:.\Generated_Source\PSoC5/cyfitter_cfg.c **** 	uint8 regValue = CY_GET_XTND_REG8(CYREG_PUMP_CR0);
 430              		.loc 1 295 0
 431 000a 45F67603 		movw	r3, #:lower16:1073764470
 432 000e C4F20003 		movt	r3, #:upper16:1073764470
 433 0012 1B78     		ldrb	r3, [r3, #0]
 434 0014 FB73     		strb	r3, [r7, #15]
 296:.\Generated_Source\PSoC5/cyfitter_cfg.c **** 	if (enabled)
 435              		.loc 1 296 0
 436 0016 FB79     		ldrb	r3, [r7, #7]	@ zero_extendqisi2
 437 0018 002B     		cmp	r3, #0
 297:.\Generated_Source\PSoC5/cyfitter_cfg.c **** 		regValue |= 0x00;
 298:.\Generated_Source\PSoC5/cyfitter_cfg.c **** 	else
 299:.\Generated_Source\PSoC5/cyfitter_cfg.c **** 		regValue &= ~0x00;
 300:.\Generated_Source\PSoC5/cyfitter_cfg.c **** 	CY_SET_XTND_REG8(CYREG_PUMP_CR0, regValue);
ARM GAS  C:\Users\bccho\AppData\Local\Temp\ccIhX0jC.s 			page 14


 438              		.loc 1 300 0
 439 001a 45F67603 		movw	r3, #:lower16:1073764470
 440 001e C4F20003 		movt	r3, #:upper16:1073764470
 441 0022 FA7B     		ldrb	r2, [r7, #15]
 442 0024 1A70     		strb	r2, [r3, #0]
 301:.\Generated_Source\PSoC5/cyfitter_cfg.c **** }
 443              		.loc 1 301 0
 444 0026 07F11407 		add	r7, r7, #20
 445 002a BD46     		mov	sp, r7
 446 002c 80BC     		pop	{r7}
 447 002e 7047     		bx	lr
 448              		.cfi_endproc
 449              	.LFE4:
 450              		.size	SetAnalogRoutingPumps, .-SetAnalogRoutingPumps
 451              		.section	.text.cyfitter_cfg,"ax",%progbits
 452              		.align	2
 453              		.global	cyfitter_cfg
 454              		.thumb
 455              		.thumb_func
 456              		.type	cyfitter_cfg, %function
 457              	cyfitter_cfg:
 458              	.LFB5:
 302:.\Generated_Source\PSoC5/cyfitter_cfg.c **** 
 303:.\Generated_Source\PSoC5/cyfitter_cfg.c **** #define CY_AMUX_UNUSED CYREG_BOOST_SR
 304:.\Generated_Source\PSoC5/cyfitter_cfg.c **** 
 305:.\Generated_Source\PSoC5/cyfitter_cfg.c **** 
 306:.\Generated_Source\PSoC5/cyfitter_cfg.c **** /*******************************************************************************
 307:.\Generated_Source\PSoC5/cyfitter_cfg.c **** * Function Name: cyfitter_cfg
 308:.\Generated_Source\PSoC5/cyfitter_cfg.c **** ********************************************************************************
 309:.\Generated_Source\PSoC5/cyfitter_cfg.c **** * Summary:
 310:.\Generated_Source\PSoC5/cyfitter_cfg.c **** *  This function is called by the start-up code for the selected device. It
 311:.\Generated_Source\PSoC5/cyfitter_cfg.c **** *  performs all of the necessary device configuration based on the design
 312:.\Generated_Source\PSoC5/cyfitter_cfg.c **** *  settings.  This includes settings from the Design Wide Resources (DWR) such
 313:.\Generated_Source\PSoC5/cyfitter_cfg.c **** *  as Clocks and Pins as well as any component configuration that is necessary.
 314:.\Generated_Source\PSoC5/cyfitter_cfg.c **** *
 315:.\Generated_Source\PSoC5/cyfitter_cfg.c **** * Parameters:  
 316:.\Generated_Source\PSoC5/cyfitter_cfg.c **** *   void
 317:.\Generated_Source\PSoC5/cyfitter_cfg.c **** *
 318:.\Generated_Source\PSoC5/cyfitter_cfg.c **** * Return:
 319:.\Generated_Source\PSoC5/cyfitter_cfg.c **** *   void
 320:.\Generated_Source\PSoC5/cyfitter_cfg.c **** *
 321:.\Generated_Source\PSoC5/cyfitter_cfg.c **** *******************************************************************************/
 322:.\Generated_Source\PSoC5/cyfitter_cfg.c **** void cyfitter_cfg(void)
 323:.\Generated_Source\PSoC5/cyfitter_cfg.c **** {
 459              		.loc 1 323 0
 460              		.cfi_startproc
 461              		@ args = 0, pretend = 0, frame = 24
 462              		@ frame_needed = 1, uses_anonymous_args = 0
 463 0000 80B5     		push	{r7, lr}
 464              	.LCFI15:
 465              		.cfi_def_cfa_offset 8
 466 0002 86B0     		sub	sp, sp, #24
 467              	.LCFI16:
 468              		.cfi_def_cfa_offset 32
 469 0004 00AF     		add	r7, sp, #0
 470              		.cfi_offset 14, -4
 471              		.cfi_offset 7, -8
ARM GAS  C:\Users\bccho\AppData\Local\Temp\ccIhX0jC.s 			page 15


 472              	.LCFI17:
 473              		.cfi_def_cfa_register 7
 324:.\Generated_Source\PSoC5/cyfitter_cfg.c **** #ifdef CYGlobalIntDisable
 325:.\Generated_Source\PSoC5/cyfitter_cfg.c **** 	/* Disable interrupts by default. Let user enable if/when they want. */
 326:.\Generated_Source\PSoC5/cyfitter_cfg.c **** 	CYGlobalIntDisable;
 474              		.loc 1 326 0
 475              	@ 326 ".\Generated_Source\PSoC5\cyfitter_cfg.c" 1
 476 0006 72B6     		CPSID   i
 477              	@ 0 "" 2
 327:.\Generated_Source\PSoC5/cyfitter_cfg.c **** #endif
 328:.\Generated_Source\PSoC5/cyfitter_cfg.c **** 
 329:.\Generated_Source\PSoC5/cyfitter_cfg.c **** 	/* Enable/Disable Debug functionality based on settings from System DWR */
 330:.\Generated_Source\PSoC5/cyfitter_cfg.c **** 	CY_SET_XTND_REG8(CYREG_MLOGIC_DEBUG, (CY_GET_XTND_REG8(CYREG_MLOGIC_DEBUG) | 0x04));
 478              		.loc 1 330 0
 479              		.thumb
 480 0008 44F2E863 		movw	r3, #:lower16:1073759976
 481 000c C4F20003 		movt	r3, #:upper16:1073759976
 482 0010 44F2E862 		movw	r2, #:lower16:1073759976
 483 0014 C4F20002 		movt	r2, #:upper16:1073759976
 484 0018 1278     		ldrb	r2, [r2, #0]
 485 001a D2B2     		uxtb	r2, r2
 486 001c 42F00402 		orr	r2, r2, #4
 487 0020 D2B2     		uxtb	r2, r2
 488 0022 1A70     		strb	r2, [r3, #0]
 489              	.LBB3:
 331:.\Generated_Source\PSoC5/cyfitter_cfg.c **** 
 332:.\Generated_Source\PSoC5/cyfitter_cfg.c **** 	{
 333:.\Generated_Source\PSoC5/cyfitter_cfg.c **** 		uint8 CYDATA i;
 334:.\Generated_Source\PSoC5/cyfitter_cfg.c **** 
 335:.\Generated_Source\PSoC5/cyfitter_cfg.c **** 		/* Zero out critical memory blocks before beginning configuration */
 336:.\Generated_Source\PSoC5/cyfitter_cfg.c **** 		for (i = 0; i < CFG_MEMSET_COUNT; i++)
 490              		.loc 1 336 0
 491 0024 4FF00003 		mov	r3, #0
 492 0028 FB70     		strb	r3, [r7, #3]
 493 002a 31E0     		b	.L22
 494              	.L23:
 495              	.LBB4:
 337:.\Generated_Source\PSoC5/cyfitter_cfg.c **** 		{
 338:.\Generated_Source\PSoC5/cyfitter_cfg.c **** 			const cfg_memset_t CYCODE * CYDATA ms = &cfg_memset_list[i];
 496              		.loc 1 338 0
 497 002c FA78     		ldrb	r2, [r7, #3]	@ zero_extendqisi2
 498 002e 1346     		mov	r3, r2
 499 0030 4FEA4303 		lsl	r3, r3, #1
 500 0034 1344     		add	r3, r3, r2
 501 0036 4FEA4303 		lsl	r3, r3, #1
 502 003a 1A46     		mov	r2, r3
 503 003c 40F20003 		movw	r3, #:lower16:cfg_memset_list
 504 0040 C0F20003 		movt	r3, #:upper16:cfg_memset_list
 505 0044 1344     		add	r3, r2, r3
 506 0046 7B60     		str	r3, [r7, #4]
 339:.\Generated_Source\PSoC5/cyfitter_cfg.c **** 			CYMEMZERO(ms->address, ms->size);
 507              		.loc 1 339 0
 508 0048 7B68     		ldr	r3, [r7, #4]
 509 004a 1A78     		ldrb	r2, [r3, #0]	@ zero_extendqisi2
 510 004c 5978     		ldrb	r1, [r3, #1]	@ zero_extendqisi2
 511 004e 4FEA0121 		lsl	r1, r1, #8
 512 0052 41EA0202 		orr	r2, r1, r2
ARM GAS  C:\Users\bccho\AppData\Local\Temp\ccIhX0jC.s 			page 16


 513 0056 9978     		ldrb	r1, [r3, #2]	@ zero_extendqisi2
 514 0058 4FEA0141 		lsl	r1, r1, #16
 515 005c 41EA0202 		orr	r2, r1, r2
 516 0060 DB78     		ldrb	r3, [r3, #3]	@ zero_extendqisi2
 517 0062 4FEA0363 		lsl	r3, r3, #24
 518 0066 43EA0203 		orr	r3, r3, r2
 519 006a 1A46     		mov	r2, r3
 520 006c 7B68     		ldr	r3, [r7, #4]
 521 006e 1979     		ldrb	r1, [r3, #4]	@ zero_extendqisi2
 522 0070 5B79     		ldrb	r3, [r3, #5]	@ zero_extendqisi2
 523 0072 4FEA0323 		lsl	r3, r3, #8
 524 0076 43EA0103 		orr	r3, r3, r1
 525 007a 9BB2     		uxth	r3, r3
 526 007c 1046     		mov	r0, r2
 527 007e 4FF00001 		mov	r1, #0
 528 0082 1A46     		mov	r2, r3
 529 0084 FFF7FEFF 		bl	memset
 530              	.LBE4:
 531              		.loc 1 336 0
 532 0088 FB78     		ldrb	r3, [r7, #3]
 533 008a 03F10103 		add	r3, r3, #1
 534 008e FB70     		strb	r3, [r7, #3]
 535              	.L22:
 536 0090 FB78     		ldrb	r3, [r7, #3]	@ zero_extendqisi2
 537 0092 092B     		cmp	r3, #9
 538 0094 CAD9     		bls	.L23
 340:.\Generated_Source\PSoC5/cyfitter_cfg.c **** 		}
 341:.\Generated_Source\PSoC5/cyfitter_cfg.c **** 
 342:.\Generated_Source\PSoC5/cyfitter_cfg.c **** 		/* Copy device configuration data into registers */
 343:.\Generated_Source\PSoC5/cyfitter_cfg.c **** 		for (i = 0; i < CFG_MEMCPY_COUNT; i++)
 539              		.loc 1 343 0
 540 0096 4FF00003 		mov	r3, #0
 541 009a FB70     		strb	r3, [r7, #3]
 542 009c 43E0     		b	.L24
 543              	.L25:
 544              	.LBB5:
 344:.\Generated_Source\PSoC5/cyfitter_cfg.c **** 		{
 345:.\Generated_Source\PSoC5/cyfitter_cfg.c **** 			const cfg_memcpy_t CYCODE * CYDATA mc = &cfg_memcpy_list[i];
 545              		.loc 1 345 0
 546 009e FA78     		ldrb	r2, [r7, #3]	@ zero_extendqisi2
 547 00a0 1346     		mov	r3, r2
 548 00a2 4FEA8303 		lsl	r3, r3, #2
 549 00a6 1344     		add	r3, r3, r2
 550 00a8 4FEA4303 		lsl	r3, r3, #1
 551 00ac 1A46     		mov	r2, r3
 552 00ae 40F20003 		movw	r3, #:lower16:cfg_memcpy_list
 553 00b2 C0F20003 		movt	r3, #:upper16:cfg_memcpy_list
 554 00b6 1344     		add	r3, r2, r3
 555 00b8 BB60     		str	r3, [r7, #8]
 346:.\Generated_Source\PSoC5/cyfitter_cfg.c **** 			void * CYDATA dest = mc->dest;
 556              		.loc 1 346 0
 557 00ba BB68     		ldr	r3, [r7, #8]
 558 00bc 1A78     		ldrb	r2, [r3, #0]	@ zero_extendqisi2
 559 00be 5978     		ldrb	r1, [r3, #1]	@ zero_extendqisi2
 560 00c0 4FEA0121 		lsl	r1, r1, #8
 561 00c4 41EA0202 		orr	r2, r1, r2
 562 00c8 9978     		ldrb	r1, [r3, #2]	@ zero_extendqisi2
ARM GAS  C:\Users\bccho\AppData\Local\Temp\ccIhX0jC.s 			page 17


 563 00ca 4FEA0141 		lsl	r1, r1, #16
 564 00ce 41EA0202 		orr	r2, r1, r2
 565 00d2 DB78     		ldrb	r3, [r3, #3]	@ zero_extendqisi2
 566 00d4 4FEA0363 		lsl	r3, r3, #24
 567 00d8 43EA0203 		orr	r3, r3, r2
 568 00dc FB60     		str	r3, [r7, #12]
 347:.\Generated_Source\PSoC5/cyfitter_cfg.c **** 			const void * CYDATA src = mc->src;
 569              		.loc 1 347 0
 570 00de BB68     		ldr	r3, [r7, #8]
 571 00e0 1A79     		ldrb	r2, [r3, #4]	@ zero_extendqisi2
 572 00e2 5979     		ldrb	r1, [r3, #5]	@ zero_extendqisi2
 573 00e4 4FEA0121 		lsl	r1, r1, #8
 574 00e8 41EA0202 		orr	r2, r1, r2
 575 00ec 9979     		ldrb	r1, [r3, #6]	@ zero_extendqisi2
 576 00ee 4FEA0141 		lsl	r1, r1, #16
 577 00f2 41EA0202 		orr	r2, r1, r2
 578 00f6 DB79     		ldrb	r3, [r3, #7]	@ zero_extendqisi2
 579 00f8 4FEA0363 		lsl	r3, r3, #24
 580 00fc 43EA0203 		orr	r3, r3, r2
 581 0100 3B61     		str	r3, [r7, #16]
 348:.\Generated_Source\PSoC5/cyfitter_cfg.c **** 			uint16 CYDATA size = mc->size;
 582              		.loc 1 348 0
 583 0102 BB68     		ldr	r3, [r7, #8]
 584 0104 1A7A     		ldrb	r2, [r3, #8]	@ zero_extendqisi2
 585 0106 5B7A     		ldrb	r3, [r3, #9]	@ zero_extendqisi2
 586 0108 4FEA0323 		lsl	r3, r3, #8
 587 010c 43EA0203 		orr	r3, r3, r2
 588 0110 FB82     		strh	r3, [r7, #22]	@ movhi
 349:.\Generated_Source\PSoC5/cyfitter_cfg.c **** 			CYCONFIGCPY(dest, src, size);
 589              		.loc 1 349 0
 590 0112 FB8A     		ldrh	r3, [r7, #22]
 591 0114 F868     		ldr	r0, [r7, #12]
 592 0116 3969     		ldr	r1, [r7, #16]
 593 0118 1A46     		mov	r2, r3
 594 011a FFF7FEFF 		bl	memcpy
 595              	.LBE5:
 596              		.loc 1 343 0
 597 011e FB78     		ldrb	r3, [r7, #3]
 598 0120 03F10103 		add	r3, r3, #1
 599 0124 FB70     		strb	r3, [r7, #3]
 600              	.L24:
 601 0126 FB78     		ldrb	r3, [r7, #3]	@ zero_extendqisi2
 602 0128 002B     		cmp	r3, #0
 603 012a B8D0     		beq	.L25
 350:.\Generated_Source\PSoC5/cyfitter_cfg.c **** 		}
 351:.\Generated_Source\PSoC5/cyfitter_cfg.c **** 
 352:.\Generated_Source\PSoC5/cyfitter_cfg.c **** 		cfg_write_bytes32();
 604              		.loc 1 352 0
 605 012c FFF7FEFF 		bl	cfg_write_bytes32
 353:.\Generated_Source\PSoC5/cyfitter_cfg.c **** 
 354:.\Generated_Source\PSoC5/cyfitter_cfg.c **** 		/* Enable digital routing */
 355:.\Generated_Source\PSoC5/cyfitter_cfg.c **** 		CY_SET_XTND_REG8(CYREG_BCTL0_BANK_CTL, CY_GET_XTND_REG8(CYREG_BCTL0_BANK_CTL) | 0x02u);
 606              		.loc 1 355 0
 607 0130 45F20303 		movw	r3, #:lower16:1073827843
 608 0134 C4F20103 		movt	r3, #:upper16:1073827843
 609 0138 45F20302 		movw	r2, #:lower16:1073827843
 610 013c C4F20102 		movt	r2, #:upper16:1073827843
ARM GAS  C:\Users\bccho\AppData\Local\Temp\ccIhX0jC.s 			page 18


 611 0140 1278     		ldrb	r2, [r2, #0]
 612 0142 D2B2     		uxtb	r2, r2
 613 0144 42F00202 		orr	r2, r2, #2
 614 0148 D2B2     		uxtb	r2, r2
 615 014a 1A70     		strb	r2, [r3, #0]
 356:.\Generated_Source\PSoC5/cyfitter_cfg.c **** 		CY_SET_XTND_REG8(CYREG_BCTL1_BANK_CTL, CY_GET_XTND_REG8(CYREG_BCTL1_BANK_CTL) | 0x02u);
 616              		.loc 1 356 0
 617 014c 45F21303 		movw	r3, #:lower16:1073827859
 618 0150 C4F20103 		movt	r3, #:upper16:1073827859
 619 0154 45F21302 		movw	r2, #:lower16:1073827859
 620 0158 C4F20102 		movt	r2, #:upper16:1073827859
 621 015c 1278     		ldrb	r2, [r2, #0]
 622 015e D2B2     		uxtb	r2, r2
 623 0160 42F00202 		orr	r2, r2, #2
 624 0164 D2B2     		uxtb	r2, r2
 625 0166 1A70     		strb	r2, [r3, #0]
 357:.\Generated_Source\PSoC5/cyfitter_cfg.c **** 
 358:.\Generated_Source\PSoC5/cyfitter_cfg.c **** 		/* Enable UDB array */
 359:.\Generated_Source\PSoC5/cyfitter_cfg.c **** 		CY_SET_XTND_REG8(CYREG_PM_ACT_CFG0, CY_GET_XTND_REG8(CYREG_PM_ACT_CFG0) | 0x40u);
 626              		.loc 1 359 0
 627 0168 44F2A033 		movw	r3, #:lower16:1073759136
 628 016c C4F20003 		movt	r3, #:upper16:1073759136
 629 0170 44F2A032 		movw	r2, #:lower16:1073759136
 630 0174 C4F20002 		movt	r2, #:upper16:1073759136
 631 0178 1278     		ldrb	r2, [r2, #0]
 632 017a D2B2     		uxtb	r2, r2
 633 017c 42F04002 		orr	r2, r2, #64
 634 0180 D2B2     		uxtb	r2, r2
 635 0182 1A70     		strb	r2, [r3, #0]
 360:.\Generated_Source\PSoC5/cyfitter_cfg.c **** 		CY_SET_XTND_REG8(CYREG_PM_AVAIL_CR2, CY_GET_XTND_REG8(CYREG_PM_AVAIL_CR2) | 0x10u);
 636              		.loc 1 360 0
 637 0184 44F2C233 		movw	r3, #:lower16:1073759170
 638 0188 C4F20003 		movt	r3, #:upper16:1073759170
 639 018c 44F2C232 		movw	r2, #:lower16:1073759170
 640 0190 C4F20002 		movt	r2, #:upper16:1073759170
 641 0194 1278     		ldrb	r2, [r2, #0]
 642 0196 D2B2     		uxtb	r2, r2
 643 0198 42F01002 		orr	r2, r2, #16
 644 019c D2B2     		uxtb	r2, r2
 645 019e 1A70     		strb	r2, [r3, #0]
 646              	.LBE3:
 361:.\Generated_Source\PSoC5/cyfitter_cfg.c **** 	}
 362:.\Generated_Source\PSoC5/cyfitter_cfg.c **** 
 363:.\Generated_Source\PSoC5/cyfitter_cfg.c **** 	/* Perform second pass device configuration. These items must be configured in specific order afte
 364:.\Generated_Source\PSoC5/cyfitter_cfg.c **** 	CYCONFIGCPY((void CYFAR *)(CYREG_PRT0_DM0), (void CYFAR *)(BS_IOPINS0_0_VAL), 8);
 647              		.loc 1 364 0
 648 01a0 45F20210 		movw	r0, #:lower16:1073762562
 649 01a4 C4F20000 		movt	r0, #:upper16:1073762562
 650 01a8 40F69C01 		movw	r1, #:lower16:1207961756
 651 01ac C4F60001 		movt	r1, #:upper16:1207961756
 652 01b0 4FF00802 		mov	r2, #8
 653 01b4 FFF7FEFF 		bl	memcpy
 365:.\Generated_Source\PSoC5/cyfitter_cfg.c **** 	CYCONFIGCPY((void CYFAR *)(CYREG_PRT2_DM0), (void CYFAR *)(BS_IOPINS0_2_VAL), 8);
 654              		.loc 1 365 0
 655 01b8 45F22210 		movw	r0, #:lower16:1073762594
 656 01bc C4F20000 		movt	r0, #:upper16:1073762594
 657 01c0 40F6A401 		movw	r1, #:lower16:1207961764
ARM GAS  C:\Users\bccho\AppData\Local\Temp\ccIhX0jC.s 			page 19


 658 01c4 C4F60001 		movt	r1, #:upper16:1207961764
 659 01c8 4FF00802 		mov	r2, #8
 660 01cc FFF7FEFF 		bl	memcpy
 366:.\Generated_Source\PSoC5/cyfitter_cfg.c **** 	CYCONFIGCPY((void CYFAR *)(CYREG_PRT3_DR), (void CYFAR *)(BS_IOPINS0_3_VAL), 10);
 661              		.loc 1 366 0
 662 01d0 45F23010 		movw	r0, #:lower16:1073762608
 663 01d4 C4F20000 		movt	r0, #:upper16:1073762608
 664 01d8 40F6AC01 		movw	r1, #:lower16:1207961772
 665 01dc C4F60001 		movt	r1, #:upper16:1207961772
 666 01e0 4FF00A02 		mov	r2, #10
 667 01e4 FFF7FEFF 		bl	memcpy
 367:.\Generated_Source\PSoC5/cyfitter_cfg.c **** 	CYCONFIGCPY((void CYFAR *)(CYREG_PRT4_DM0), (void CYFAR *)(BS_IOPINS0_4_VAL), 8);
 668              		.loc 1 367 0
 669 01e8 45F24210 		movw	r0, #:lower16:1073762626
 670 01ec C4F20000 		movt	r0, #:upper16:1073762626
 671 01f0 40F6B801 		movw	r1, #:lower16:1207961784
 672 01f4 C4F60001 		movt	r1, #:upper16:1207961784
 673 01f8 4FF00802 		mov	r2, #8
 674 01fc FFF7FEFF 		bl	memcpy
 368:.\Generated_Source\PSoC5/cyfitter_cfg.c **** 	CYCONFIGCPY((void CYFAR *)(CYREG_PRT5_DM0), (void CYFAR *)(BS_IOPINS0_5_VAL), 8);
 675              		.loc 1 368 0
 676 0200 45F25210 		movw	r0, #:lower16:1073762642
 677 0204 C4F20000 		movt	r0, #:upper16:1073762642
 678 0208 40F6C001 		movw	r1, #:lower16:1207961792
 679 020c C4F60001 		movt	r1, #:upper16:1207961792
 680 0210 4FF00802 		mov	r2, #8
 681 0214 FFF7FEFF 		bl	memcpy
 369:.\Generated_Source\PSoC5/cyfitter_cfg.c **** 	CYCONFIGCPY((void CYFAR *)(CYREG_PRT6_DR), (void CYFAR *)(BS_IOPINS0_6_VAL), 10);
 682              		.loc 1 369 0
 683 0218 45F26010 		movw	r0, #:lower16:1073762656
 684 021c C4F20000 		movt	r0, #:upper16:1073762656
 685 0220 40F6C801 		movw	r1, #:lower16:1207961800
 686 0224 C4F60001 		movt	r1, #:upper16:1207961800
 687 0228 4FF00A02 		mov	r2, #10
 688 022c FFF7FEFF 		bl	memcpy
 370:.\Generated_Source\PSoC5/cyfitter_cfg.c **** 	CY_SET_XTND_REG8((void CYFAR *)(CYREG_B0_P0_U1_CFG27), 0xC4);
 689              		.loc 1 370 0
 690 0230 40F2DB03 		movw	r3, #:lower16:1073807579
 691 0234 C4F20103 		movt	r3, #:upper16:1073807579
 692 0238 6FF03B02 		mvn	r2, #59
 693 023c 1A70     		strb	r2, [r3, #0]
 371:.\Generated_Source\PSoC5/cyfitter_cfg.c **** 	CY_SET_XTND_REG8((void CYFAR *)(CYREG_B0_P1_U1_CFG27), 0xC4);
 694              		.loc 1 371 0
 695 023e 40F2DB23 		movw	r3, #:lower16:1073808091
 696 0242 C4F20103 		movt	r3, #:upper16:1073808091
 697 0246 6FF03B02 		mvn	r2, #59
 698 024a 1A70     		strb	r2, [r3, #0]
 372:.\Generated_Source\PSoC5/cyfitter_cfg.c **** 
 373:.\Generated_Source\PSoC5/cyfitter_cfg.c **** 	/* Switch Boost to the precision bandgap reference from its internal reference */
 374:.\Generated_Source\PSoC5/cyfitter_cfg.c **** 	CY_SET_REG8(CYDEV_BOOST_CR2, (CY_GET_REG8(CYDEV_BOOST_CR2) | 0x08));
 699              		.loc 1 374 0
 700 024c 44F22233 		movw	r3, #:lower16:1073759010
 701 0250 C4F20003 		movt	r3, #:upper16:1073759010
 702 0254 44F22232 		movw	r2, #:lower16:1073759010
 703 0258 C4F20002 		movt	r2, #:upper16:1073759010
 704 025c 1278     		ldrb	r2, [r2, #0]
 705 025e D2B2     		uxtb	r2, r2
ARM GAS  C:\Users\bccho\AppData\Local\Temp\ccIhX0jC.s 			page 20


 706 0260 42F00802 		orr	r2, r2, #8
 707 0264 D2B2     		uxtb	r2, r2
 708 0266 1A70     		strb	r2, [r3, #0]
 375:.\Generated_Source\PSoC5/cyfitter_cfg.c **** 
 376:.\Generated_Source\PSoC5/cyfitter_cfg.c **** 	/* Set Flash Cycles based on max possible frequency in case a glitch occurs during ClockSetup(). *
 377:.\Generated_Source\PSoC5/cyfitter_cfg.c **** 	CY_SET_XTND_REG8((void CYFAR *)(CYREG_CACHE_CC_CTL), ((CYDEV_INSTRUCT_CACHE_ENABLED) ? 0x01 : 0x00
 709              		.loc 1 377 0
 710 0268 44F60003 		movw	r3, #:lower16:1073760256
 711 026c C4F20003 		movt	r3, #:upper16:1073760256
 712 0270 4FF00102 		mov	r2, #1
 713 0274 1A70     		strb	r2, [r3, #0]
 378:.\Generated_Source\PSoC5/cyfitter_cfg.c **** 	/* Setup clocks based on selections from Clock DWR */
 379:.\Generated_Source\PSoC5/cyfitter_cfg.c **** 	ClockSetup();
 714              		.loc 1 379 0
 715 0276 FFF7FEFF 		bl	ClockSetup
 380:.\Generated_Source\PSoC5/cyfitter_cfg.c **** 	/* Set Flash Cycles based on newly configured 24.00MHz Bus Clock. */
 381:.\Generated_Source\PSoC5/cyfitter_cfg.c **** 	CY_SET_XTND_REG8((void CYFAR *)(CYREG_CACHE_CC_CTL), ((CYDEV_INSTRUCT_CACHE_ENABLED) ? 0x81 : 0x80
 716              		.loc 1 381 0
 717 027a 44F60003 		movw	r3, #:lower16:1073760256
 718 027e C4F20003 		movt	r3, #:upper16:1073760256
 719 0282 6FF07E02 		mvn	r2, #126
 720 0286 1A70     		strb	r2, [r3, #0]
 382:.\Generated_Source\PSoC5/cyfitter_cfg.c **** 	CY_SET_XTND_REG8((void CYFAR *)(CYREG_PANTHER_WAITPIPE), 0x01);
 721              		.loc 1 382 0
 722 0288 40F20403 		movw	r3, #:lower16:1074266116
 723 028c C4F20803 		movt	r3, #:upper16:1074266116
 724 0290 4FF00102 		mov	r2, #1
 725 0294 1A70     		strb	r2, [r3, #0]
 383:.\Generated_Source\PSoC5/cyfitter_cfg.c **** 
 384:.\Generated_Source\PSoC5/cyfitter_cfg.c **** 	/* Perform basic analog initialization to defaults */
 385:.\Generated_Source\PSoC5/cyfitter_cfg.c **** 	AnalogSetDefault();
 726              		.loc 1 385 0
 727 0296 FFF7FEFF 		bl	AnalogSetDefault
 386:.\Generated_Source\PSoC5/cyfitter_cfg.c **** 
 387:.\Generated_Source\PSoC5/cyfitter_cfg.c **** 	/* Configure alternate active mode */
 388:.\Generated_Source\PSoC5/cyfitter_cfg.c **** 	CYCONFIGCPY((void CYFAR *)CYDEV_PM_STBY_BASE, (void CYFAR *)CYDEV_PM_ACT_BASE, 14);
 728              		.loc 1 388 0
 729 029a 44F2B030 		movw	r0, #:lower16:1073759152
 730 029e C4F20000 		movt	r0, #:upper16:1073759152
 731 02a2 44F2A031 		movw	r1, #:lower16:1073759136
 732 02a6 C4F20001 		movt	r1, #:upper16:1073759136
 733 02aa 4FF00E02 		mov	r2, #14
 734 02ae FFF7FEFF 		bl	memcpy
 389:.\Generated_Source\PSoC5/cyfitter_cfg.c **** }
 735              		.loc 1 389 0
 736 02b2 07F11807 		add	r7, r7, #24
 737 02b6 BD46     		mov	sp, r7
 738 02b8 80BD     		pop	{r7, pc}
 739              		.cfi_endproc
 740              	.LFE5:
 741              		.size	cyfitter_cfg, .-cyfitter_cfg
 742 02ba 00BF     		.text
 743              	.Letext0: