ARM GAS  C:\Users\bccho\AppData\Local\Temp\cclAoFTc.s 			page 1


   1              		.syntax unified
   2              		.cpu cortex-m3
   3              		.fpu softvfp
   4              		.eabi_attribute 20, 1
   5              		.eabi_attribute 21, 1
   6              		.eabi_attribute 23, 3
   7              		.eabi_attribute 24, 1
   8              		.eabi_attribute 25, 1
   9              		.eabi_attribute 26, 1
  10              		.eabi_attribute 30, 6
  11              		.eabi_attribute 18, 4
  12              		.thumb
  13              		.file	"LCD_LCDPort.c"
  20 0000 BE000000 		.text
  20      02006400 
  20      00000201 
  20      FB0E0D00 
  20      01010101 
  21              	.Ltext0:
  22              		.cfi_sections	.debug_frame
  23              		.section	.text.LCD_LCDPort_Write,"ax",%progbits
  24              		.align	2
  25              		.global	LCD_LCDPort_Write
  26              		.thumb
  27              		.thumb_func
  28              		.type	LCD_LCDPort_Write, %function
  29              	LCD_LCDPort_Write:
  30              	.LFB0:
  31              		.file 1 ".\\Generated_Source\\PSoC5\\LCD_LCDPort.c"
   1:.\Generated_Source\PSoC5/LCD_LCDPort.c **** /*******************************************************************************
   2:.\Generated_Source\PSoC5/LCD_LCDPort.c **** * File Name: LCD_LCDPort.c  
   3:.\Generated_Source\PSoC5/LCD_LCDPort.c **** * Version 1.70
   4:.\Generated_Source\PSoC5/LCD_LCDPort.c **** *
   5:.\Generated_Source\PSoC5/LCD_LCDPort.c **** * Description:
   6:.\Generated_Source\PSoC5/LCD_LCDPort.c **** *  This file contains API to enable firmware control of a Pins component.
   7:.\Generated_Source\PSoC5/LCD_LCDPort.c **** *
   8:.\Generated_Source\PSoC5/LCD_LCDPort.c **** * Note:
   9:.\Generated_Source\PSoC5/LCD_LCDPort.c **** *
  10:.\Generated_Source\PSoC5/LCD_LCDPort.c **** ********************************************************************************
  11:.\Generated_Source\PSoC5/LCD_LCDPort.c **** * Copyright 2008-2010, Cypress Semiconductor Corporation.  All rights reserved.
  12:.\Generated_Source\PSoC5/LCD_LCDPort.c **** * You may use this file only in accordance with the license, terms, conditions, 
  13:.\Generated_Source\PSoC5/LCD_LCDPort.c **** * disclaimers, and limitations in the end user license agreement accompanying 
  14:.\Generated_Source\PSoC5/LCD_LCDPort.c **** * the software package with which this file was provided.
  15:.\Generated_Source\PSoC5/LCD_LCDPort.c **** ********************************************************************************/
  16:.\Generated_Source\PSoC5/LCD_LCDPort.c **** 
  17:.\Generated_Source\PSoC5/LCD_LCDPort.c **** #include "cytypes.h"
  18:.\Generated_Source\PSoC5/LCD_LCDPort.c **** #include "LCD_LCDPort.h"
  19:.\Generated_Source\PSoC5/LCD_LCDPort.c **** 
  20:.\Generated_Source\PSoC5/LCD_LCDPort.c **** /* APIs are not generated for P15[7:6] */
  21:.\Generated_Source\PSoC5/LCD_LCDPort.c **** #if !(CY_PSOC5A &&\
  22:.\Generated_Source\PSoC5/LCD_LCDPort.c **** 	 LCD_LCDPort__PORT == 15 && (LCD_LCDPort__MASK & 0xC0))
ARM GAS  C:\Users\bccho\AppData\Local\Temp\cclAoFTc.s 			page 2


  23:.\Generated_Source\PSoC5/LCD_LCDPort.c **** 
  24:.\Generated_Source\PSoC5/LCD_LCDPort.c **** /*******************************************************************************
  25:.\Generated_Source\PSoC5/LCD_LCDPort.c **** * Function Name: LCD_LCDPort_Write
  26:.\Generated_Source\PSoC5/LCD_LCDPort.c **** ********************************************************************************
  27:.\Generated_Source\PSoC5/LCD_LCDPort.c **** * Summary:
  28:.\Generated_Source\PSoC5/LCD_LCDPort.c **** *  Assign a new value to the digital port's data output register.  
  29:.\Generated_Source\PSoC5/LCD_LCDPort.c **** *
  30:.\Generated_Source\PSoC5/LCD_LCDPort.c **** * Parameters:  
  31:.\Generated_Source\PSoC5/LCD_LCDPort.c **** *  prtValue:  The value to be assigned to the Digital Port. 
  32:.\Generated_Source\PSoC5/LCD_LCDPort.c **** *
  33:.\Generated_Source\PSoC5/LCD_LCDPort.c **** * Return: 
  34:.\Generated_Source\PSoC5/LCD_LCDPort.c **** *  void 
  35:.\Generated_Source\PSoC5/LCD_LCDPort.c **** *  
  36:.\Generated_Source\PSoC5/LCD_LCDPort.c **** *******************************************************************************/
  37:.\Generated_Source\PSoC5/LCD_LCDPort.c **** void LCD_LCDPort_Write(uint8 value) 
  38:.\Generated_Source\PSoC5/LCD_LCDPort.c **** {
  32              		.loc 1 38 0
  33              		.cfi_startproc
  34              		@ args = 0, pretend = 0, frame = 16
  35              		@ frame_needed = 1, uses_anonymous_args = 0
  36              		@ link register save eliminated.
  37 0000 80B4     		push	{r7}
  38              	.LCFI0:
  39              		.cfi_def_cfa_offset 4
  40 0002 85B0     		sub	sp, sp, #20
  41              	.LCFI1:
  42              		.cfi_def_cfa_offset 24
  43 0004 00AF     		add	r7, sp, #0
  44              		.cfi_offset 7, -4
  45              	.LCFI2:
  46              		.cfi_def_cfa_register 7
  47 0006 0346     		mov	r3, r0
  48 0008 FB71     		strb	r3, [r7, #7]
  39:.\Generated_Source\PSoC5/LCD_LCDPort.c ****     uint8 staticBits = LCD_LCDPort_DR & ~LCD_LCDPort_MASK;
  49              		.loc 1 39 0
  50 000a 45F25013 		movw	r3, #:lower16:1073762640
  51 000e C4F20003 		movt	r3, #:upper16:1073762640
  52 0012 1B78     		ldrb	r3, [r3, #0]
  53 0014 DBB2     		uxtb	r3, r3
  54 0016 03F00103 		and	r3, r3, #1
  55 001a FB73     		strb	r3, [r7, #15]
  40:.\Generated_Source\PSoC5/LCD_LCDPort.c ****     LCD_LCDPort_DR = staticBits | ((value << LCD_LCDPort_SHIFT) & LCD_LCDPort_MASK);
  56              		.loc 1 40 0
  57 001c 45F25013 		movw	r3, #:lower16:1073762640
  58 0020 C4F20003 		movt	r3, #:upper16:1073762640
  59 0024 FA79     		ldrb	r2, [r7, #7]
  60 0026 4FEA4202 		lsl	r2, r2, #1
  61 002a D1B2     		uxtb	r1, r2
  62 002c FA7B     		ldrb	r2, [r7, #15]
  63 002e 41EA0202 		orr	r2, r1, r2
  64 0032 D2B2     		uxtb	r2, r2
  65 0034 1A70     		strb	r2, [r3, #0]
  41:.\Generated_Source\PSoC5/LCD_LCDPort.c **** }
  66              		.loc 1 41 0
  67 0036 07F11407 		add	r7, r7, #20
  68 003a BD46     		mov	sp, r7
  69 003c 80BC     		pop	{r7}
ARM GAS  C:\Users\bccho\AppData\Local\Temp\cclAoFTc.s 			page 3


  70 003e 7047     		bx	lr
  71              		.cfi_endproc
  72              	.LFE0:
  73              		.size	LCD_LCDPort_Write, .-LCD_LCDPort_Write
  74              		.section	.text.LCD_LCDPort_SetDriveMode,"ax",%progbits
  75              		.align	2
  76              		.global	LCD_LCDPort_SetDriveMode
  77              		.thumb
  78              		.thumb_func
  79              		.type	LCD_LCDPort_SetDriveMode, %function
  80              	LCD_LCDPort_SetDriveMode:
  81              	.LFB1:
  42:.\Generated_Source\PSoC5/LCD_LCDPort.c **** 
  43:.\Generated_Source\PSoC5/LCD_LCDPort.c **** 
  44:.\Generated_Source\PSoC5/LCD_LCDPort.c **** /*******************************************************************************
  45:.\Generated_Source\PSoC5/LCD_LCDPort.c **** * Function Name: LCD_LCDPort_SetDriveMode
  46:.\Generated_Source\PSoC5/LCD_LCDPort.c **** ********************************************************************************
  47:.\Generated_Source\PSoC5/LCD_LCDPort.c **** * Summary:
  48:.\Generated_Source\PSoC5/LCD_LCDPort.c **** *  Change the drive mode on the pins of the port.
  49:.\Generated_Source\PSoC5/LCD_LCDPort.c **** * 
  50:.\Generated_Source\PSoC5/LCD_LCDPort.c **** * Parameters:  
  51:.\Generated_Source\PSoC5/LCD_LCDPort.c **** *  mode:  Change the pins to this drive mode.
  52:.\Generated_Source\PSoC5/LCD_LCDPort.c **** *
  53:.\Generated_Source\PSoC5/LCD_LCDPort.c **** * Return: 
  54:.\Generated_Source\PSoC5/LCD_LCDPort.c **** *  void
  55:.\Generated_Source\PSoC5/LCD_LCDPort.c **** *
  56:.\Generated_Source\PSoC5/LCD_LCDPort.c **** *******************************************************************************/
  57:.\Generated_Source\PSoC5/LCD_LCDPort.c **** void LCD_LCDPort_SetDriveMode(uint8 mode) 
  58:.\Generated_Source\PSoC5/LCD_LCDPort.c **** {
  82              		.loc 1 58 0
  83              		.cfi_startproc
  84              		@ args = 0, pretend = 0, frame = 8
  85              		@ frame_needed = 1, uses_anonymous_args = 0
  86              		@ link register save eliminated.
  87 0000 80B4     		push	{r7}
  88              	.LCFI3:
  89              		.cfi_def_cfa_offset 4
  90 0002 83B0     		sub	sp, sp, #12
  91              	.LCFI4:
  92              		.cfi_def_cfa_offset 16
  93 0004 00AF     		add	r7, sp, #0
  94              		.cfi_offset 7, -4
  95              	.LCFI5:
  96              		.cfi_def_cfa_register 7
  97 0006 0346     		mov	r3, r0
  98 0008 FB71     		strb	r3, [r7, #7]
  59:.\Generated_Source\PSoC5/LCD_LCDPort.c **** 	CyPins_SetPinDriveMode(LCD_LCDPort_0, mode);
  99              		.loc 1 59 0
 100 000a 45F22903 		movw	r3, #:lower16:1073762345
 101 000e C4F20003 		movt	r3, #:upper16:1073762345
 102 0012 45F22902 		movw	r2, #:lower16:1073762345
 103 0016 C4F20002 		movt	r2, #:upper16:1073762345
 104 001a 1278     		ldrb	r2, [r2, #0]
 105 001c D2B2     		uxtb	r2, r2
 106 001e 1146     		mov	r1, r2
 107 0020 01F0F101 		and	r1, r1, #241
 108 0024 FA79     		ldrb	r2, [r7, #7]	@ zero_extendqisi2
ARM GAS  C:\Users\bccho\AppData\Local\Temp\cclAoFTc.s 			page 4


 109 0026 02F00E02 		and	r2, r2, #14
 110 002a 41EA0202 		orr	r2, r1, r2
 111 002e D2B2     		uxtb	r2, r2
 112 0030 1A70     		strb	r2, [r3, #0]
  60:.\Generated_Source\PSoC5/LCD_LCDPort.c **** 	CyPins_SetPinDriveMode(LCD_LCDPort_1, mode);
 113              		.loc 1 60 0
 114 0032 45F22A03 		movw	r3, #:lower16:1073762346
 115 0036 C4F20003 		movt	r3, #:upper16:1073762346
 116 003a 45F22A02 		movw	r2, #:lower16:1073762346
 117 003e C4F20002 		movt	r2, #:upper16:1073762346
 118 0042 1278     		ldrb	r2, [r2, #0]
 119 0044 D2B2     		uxtb	r2, r2
 120 0046 1146     		mov	r1, r2
 121 0048 01F0F101 		and	r1, r1, #241
 122 004c FA79     		ldrb	r2, [r7, #7]	@ zero_extendqisi2
 123 004e 02F00E02 		and	r2, r2, #14
 124 0052 41EA0202 		orr	r2, r1, r2
 125 0056 D2B2     		uxtb	r2, r2
 126 0058 1A70     		strb	r2, [r3, #0]
  61:.\Generated_Source\PSoC5/LCD_LCDPort.c **** 	CyPins_SetPinDriveMode(LCD_LCDPort_2, mode);
 127              		.loc 1 61 0
 128 005a 45F22B03 		movw	r3, #:lower16:1073762347
 129 005e C4F20003 		movt	r3, #:upper16:1073762347
 130 0062 45F22B02 		movw	r2, #:lower16:1073762347
 131 0066 C4F20002 		movt	r2, #:upper16:1073762347
 132 006a 1278     		ldrb	r2, [r2, #0]
 133 006c D2B2     		uxtb	r2, r2
 134 006e 1146     		mov	r1, r2
 135 0070 01F0F101 		and	r1, r1, #241
 136 0074 FA79     		ldrb	r2, [r7, #7]	@ zero_extendqisi2
 137 0076 02F00E02 		and	r2, r2, #14
 138 007a 41EA0202 		orr	r2, r1, r2
 139 007e D2B2     		uxtb	r2, r2
 140 0080 1A70     		strb	r2, [r3, #0]
  62:.\Generated_Source\PSoC5/LCD_LCDPort.c **** 	CyPins_SetPinDriveMode(LCD_LCDPort_3, mode);
 141              		.loc 1 62 0
 142 0082 45F22C03 		movw	r3, #:lower16:1073762348
 143 0086 C4F20003 		movt	r3, #:upper16:1073762348
 144 008a 45F22C02 		movw	r2, #:lower16:1073762348
 145 008e C4F20002 		movt	r2, #:upper16:1073762348
 146 0092 1278     		ldrb	r2, [r2, #0]
 147 0094 D2B2     		uxtb	r2, r2
 148 0096 1146     		mov	r1, r2
 149 0098 01F0F101 		and	r1, r1, #241
 150 009c FA79     		ldrb	r2, [r7, #7]	@ zero_extendqisi2
 151 009e 02F00E02 		and	r2, r2, #14
 152 00a2 41EA0202 		orr	r2, r1, r2
 153 00a6 D2B2     		uxtb	r2, r2
 154 00a8 1A70     		strb	r2, [r3, #0]
  63:.\Generated_Source\PSoC5/LCD_LCDPort.c **** 	CyPins_SetPinDriveMode(LCD_LCDPort_4, mode);
 155              		.loc 1 63 0
 156 00aa 45F22D03 		movw	r3, #:lower16:1073762349
 157 00ae C4F20003 		movt	r3, #:upper16:1073762349
 158 00b2 45F22D02 		movw	r2, #:lower16:1073762349
 159 00b6 C4F20002 		movt	r2, #:upper16:1073762349
 160 00ba 1278     		ldrb	r2, [r2, #0]
 161 00bc D2B2     		uxtb	r2, r2
ARM GAS  C:\Users\bccho\AppData\Local\Temp\cclAoFTc.s 			page 5


 162 00be 1146     		mov	r1, r2
 163 00c0 01F0F101 		and	r1, r1, #241
 164 00c4 FA79     		ldrb	r2, [r7, #7]	@ zero_extendqisi2
 165 00c6 02F00E02 		and	r2, r2, #14
 166 00ca 41EA0202 		orr	r2, r1, r2
 167 00ce D2B2     		uxtb	r2, r2
 168 00d0 1A70     		strb	r2, [r3, #0]
  64:.\Generated_Source\PSoC5/LCD_LCDPort.c **** 	CyPins_SetPinDriveMode(LCD_LCDPort_5, mode);
 169              		.loc 1 64 0
 170 00d2 45F22E03 		movw	r3, #:lower16:1073762350
 171 00d6 C4F20003 		movt	r3, #:upper16:1073762350
 172 00da 45F22E02 		movw	r2, #:lower16:1073762350
 173 00de C4F20002 		movt	r2, #:upper16:1073762350
 174 00e2 1278     		ldrb	r2, [r2, #0]
 175 00e4 D2B2     		uxtb	r2, r2
 176 00e6 1146     		mov	r1, r2
 177 00e8 01F0F101 		and	r1, r1, #241
 178 00ec FA79     		ldrb	r2, [r7, #7]	@ zero_extendqisi2
 179 00ee 02F00E02 		and	r2, r2, #14
 180 00f2 41EA0202 		orr	r2, r1, r2
 181 00f6 D2B2     		uxtb	r2, r2
 182 00f8 1A70     		strb	r2, [r3, #0]
  65:.\Generated_Source\PSoC5/LCD_LCDPort.c **** 	CyPins_SetPinDriveMode(LCD_LCDPort_6, mode);
 183              		.loc 1 65 0
 184 00fa 45F22F03 		movw	r3, #:lower16:1073762351
 185 00fe C4F20003 		movt	r3, #:upper16:1073762351
 186 0102 45F22F02 		movw	r2, #:lower16:1073762351
 187 0106 C4F20002 		movt	r2, #:upper16:1073762351
 188 010a 1278     		ldrb	r2, [r2, #0]
 189 010c D2B2     		uxtb	r2, r2
 190 010e 1146     		mov	r1, r2
 191 0110 01F0F101 		and	r1, r1, #241
 192 0114 FA79     		ldrb	r2, [r7, #7]	@ zero_extendqisi2
 193 0116 02F00E02 		and	r2, r2, #14
 194 011a 41EA0202 		orr	r2, r1, r2
 195 011e D2B2     		uxtb	r2, r2
 196 0120 1A70     		strb	r2, [r3, #0]
  66:.\Generated_Source\PSoC5/LCD_LCDPort.c **** }
 197              		.loc 1 66 0
 198 0122 07F10C07 		add	r7, r7, #12
 199 0126 BD46     		mov	sp, r7
 200 0128 80BC     		pop	{r7}
 201 012a 7047     		bx	lr
 202              		.cfi_endproc
 203              	.LFE1:
 204              		.size	LCD_LCDPort_SetDriveMode, .-LCD_LCDPort_SetDriveMode
 205              		.section	.text.LCD_LCDPort_Read,"ax",%progbits
 206              		.align	2
 207              		.global	LCD_LCDPort_Read
 208              		.thumb
 209              		.thumb_func
 210              		.type	LCD_LCDPort_Read, %function
 211              	LCD_LCDPort_Read:
 212              	.LFB2:
  67:.\Generated_Source\PSoC5/LCD_LCDPort.c **** 
  68:.\Generated_Source\PSoC5/LCD_LCDPort.c **** 
  69:.\Generated_Source\PSoC5/LCD_LCDPort.c **** /*******************************************************************************
ARM GAS  C:\Users\bccho\AppData\Local\Temp\cclAoFTc.s 			page 6


  70:.\Generated_Source\PSoC5/LCD_LCDPort.c **** * Function Name: LCD_LCDPort_Read
  71:.\Generated_Source\PSoC5/LCD_LCDPort.c **** ********************************************************************************
  72:.\Generated_Source\PSoC5/LCD_LCDPort.c **** * Summary:
  73:.\Generated_Source\PSoC5/LCD_LCDPort.c **** *  Read the current value on the pins of the Digital Port in right justified 
  74:.\Generated_Source\PSoC5/LCD_LCDPort.c **** *  form.
  75:.\Generated_Source\PSoC5/LCD_LCDPort.c **** *
  76:.\Generated_Source\PSoC5/LCD_LCDPort.c **** * Parameters:  
  77:.\Generated_Source\PSoC5/LCD_LCDPort.c **** *  void 
  78:.\Generated_Source\PSoC5/LCD_LCDPort.c **** *
  79:.\Generated_Source\PSoC5/LCD_LCDPort.c **** * Return: 
  80:.\Generated_Source\PSoC5/LCD_LCDPort.c **** *  Returns the current value of the Digital Port as a right justified number
  81:.\Generated_Source\PSoC5/LCD_LCDPort.c **** *  
  82:.\Generated_Source\PSoC5/LCD_LCDPort.c **** * Note:
  83:.\Generated_Source\PSoC5/LCD_LCDPort.c **** *  Macro LCD_LCDPort_ReadPS calls this function. 
  84:.\Generated_Source\PSoC5/LCD_LCDPort.c **** *  
  85:.\Generated_Source\PSoC5/LCD_LCDPort.c **** *******************************************************************************/
  86:.\Generated_Source\PSoC5/LCD_LCDPort.c **** uint8 LCD_LCDPort_Read(void) 
  87:.\Generated_Source\PSoC5/LCD_LCDPort.c **** {
 213              		.loc 1 87 0
 214              		.cfi_startproc
 215              		@ args = 0, pretend = 0, frame = 0
 216              		@ frame_needed = 1, uses_anonymous_args = 0
 217              		@ link register save eliminated.
 218 0000 80B4     		push	{r7}
 219              	.LCFI6:
 220              		.cfi_def_cfa_offset 4
 221 0002 00AF     		add	r7, sp, #0
 222              		.cfi_offset 7, -4
 223              	.LCFI7:
 224              		.cfi_def_cfa_register 7
  88:.\Generated_Source\PSoC5/LCD_LCDPort.c ****     return (LCD_LCDPort_PS & LCD_LCDPort_MASK) >> LCD_LCDPort_SHIFT;
 225              		.loc 1 88 0
 226 0004 45F25113 		movw	r3, #:lower16:1073762641
 227 0008 C4F20003 		movt	r3, #:upper16:1073762641
 228 000c 1B78     		ldrb	r3, [r3, #0]
 229 000e DBB2     		uxtb	r3, r3
 230 0010 4FEA5303 		lsr	r3, r3, #1
 231 0014 DBB2     		uxtb	r3, r3
  89:.\Generated_Source\PSoC5/LCD_LCDPort.c **** }
 232              		.loc 1 89 0
 233 0016 1846     		mov	r0, r3
 234 0018 BD46     		mov	sp, r7
 235 001a 80BC     		pop	{r7}
 236 001c 7047     		bx	lr
 237              		.cfi_endproc
 238              	.LFE2:
 239              		.size	LCD_LCDPort_Read, .-LCD_LCDPort_Read
 240 001e 00BF     		.section	.text.LCD_LCDPort_ReadDataReg,"ax",%progbits
 241              		.align	2
 242              		.global	LCD_LCDPort_ReadDataReg
 243              		.thumb
 244              		.thumb_func
 245              		.type	LCD_LCDPort_ReadDataReg, %function
 246              	LCD_LCDPort_ReadDataReg:
 247              	.LFB3:
  90:.\Generated_Source\PSoC5/LCD_LCDPort.c **** 
  91:.\Generated_Source\PSoC5/LCD_LCDPort.c **** 
ARM GAS  C:\Users\bccho\AppData\Local\Temp\cclAoFTc.s 			page 7


  92:.\Generated_Source\PSoC5/LCD_LCDPort.c **** /*******************************************************************************
  93:.\Generated_Source\PSoC5/LCD_LCDPort.c **** * Function Name: LCD_LCDPort_ReadDataReg
  94:.\Generated_Source\PSoC5/LCD_LCDPort.c **** ********************************************************************************
  95:.\Generated_Source\PSoC5/LCD_LCDPort.c **** * Summary:
  96:.\Generated_Source\PSoC5/LCD_LCDPort.c **** *  Read the current value assigned to a Digital Port's data output register
  97:.\Generated_Source\PSoC5/LCD_LCDPort.c **** *
  98:.\Generated_Source\PSoC5/LCD_LCDPort.c **** * Parameters:  
  99:.\Generated_Source\PSoC5/LCD_LCDPort.c **** *  void 
 100:.\Generated_Source\PSoC5/LCD_LCDPort.c **** *
 101:.\Generated_Source\PSoC5/LCD_LCDPort.c **** * Return: 
 102:.\Generated_Source\PSoC5/LCD_LCDPort.c **** *  Returns the current value assigned to the Digital Port's data output register
 103:.\Generated_Source\PSoC5/LCD_LCDPort.c **** *  
 104:.\Generated_Source\PSoC5/LCD_LCDPort.c **** *******************************************************************************/
 105:.\Generated_Source\PSoC5/LCD_LCDPort.c **** uint8 LCD_LCDPort_ReadDataReg(void) 
 106:.\Generated_Source\PSoC5/LCD_LCDPort.c **** {
 248              		.loc 1 106 0
 249              		.cfi_startproc
 250              		@ args = 0, pretend = 0, frame = 0
 251              		@ frame_needed = 1, uses_anonymous_args = 0
 252              		@ link register save eliminated.
 253 0000 80B4     		push	{r7}
 254              	.LCFI8:
 255              		.cfi_def_cfa_offset 4
 256 0002 00AF     		add	r7, sp, #0
 257              		.cfi_offset 7, -4
 258              	.LCFI9:
 259              		.cfi_def_cfa_register 7
 107:.\Generated_Source\PSoC5/LCD_LCDPort.c ****     return (LCD_LCDPort_DR & LCD_LCDPort_MASK) >> LCD_LCDPort_SHIFT;
 260              		.loc 1 107 0
 261 0004 45F25013 		movw	r3, #:lower16:1073762640
 262 0008 C4F20003 		movt	r3, #:upper16:1073762640
 263 000c 1B78     		ldrb	r3, [r3, #0]
 264 000e DBB2     		uxtb	r3, r3
 265 0010 4FEA5303 		lsr	r3, r3, #1
 266 0014 DBB2     		uxtb	r3, r3
 108:.\Generated_Source\PSoC5/LCD_LCDPort.c **** }
 267              		.loc 1 108 0
 268 0016 1846     		mov	r0, r3
 269 0018 BD46     		mov	sp, r7
 270 001a 80BC     		pop	{r7}
 271 001c 7047     		bx	lr
 272              		.cfi_endproc
 273              	.LFE3:
 274              		.size	LCD_LCDPort_ReadDataReg, .-LCD_LCDPort_ReadDataReg
 275 001e 00BF     		.text
 276              	.Letext0: