ARM GAS  C:\Users\bccho\AppData\Local\Temp\ccBO8fce.s 			page 1


   1              		.syntax unified
   2              		.cpu cortex-m3
   3              		.fpu softvfp
   4              		.eabi_attribute 20, 1
   5              		.eabi_attribute 21, 1
   6              		.eabi_attribute 23, 3
   7              		.eabi_attribute 24, 1
   8              		.eabi_attribute 25, 1
   9              		.eabi_attribute 26, 1
  10              		.eabi_attribute 30, 6
  11              		.eabi_attribute 18, 4
  12              		.thumb
  13              		.file	"main.c"
  20 0000 06020000 		.text
  20      02004600 
  20      00000201 
  20      FB0E0D00 
  20      01010101 
  21              	.Ltext0:
  22              		.cfi_sections	.debug_frame
  23              		.global	buildVersion
  24              		.data
  25              		.align	2
  26              		.type	buildVersion, %object
  27              		.size	buildVersion, 12
  28              	buildVersion:
  29 0000 4275696C 		.ascii	"Build 1.0.0\000"
  29      6420312E 
  29      302E3000 
  30              		.comm	strbuffer,100,4
  31              		.global	buttonInterrupted
  32              		.bss
  33              		.align	2
  34              		.type	buttonInterrupted, %object
  35              		.size	buttonInterrupted, 4
  36              	buttonInterrupted:
  37 0000 00000000 		.space	4
  38              		.global	rxInterrupted
  39              		.align	2
  40              		.type	rxInterrupted, %object
  41              		.size	rxInterrupted, 4
  42              	rxInterrupted:
  43 0004 00000000 		.space	4
  44              		.global	wheelTickInterrupted
  45              		.align	2
  46              		.type	wheelTickInterrupted, %object
  47              		.size	wheelTickInterrupted, 4
  48              	wheelTickInterrupted:
  49 0008 00000000 		.space	4
  50              		.global	tickTimeoutInterrupted
  51              		.align	2
ARM GAS  C:\Users\bccho\AppData\Local\Temp\ccBO8fce.s 			page 2


  52              		.type	tickTimeoutInterrupted, %object
  53              		.size	tickTimeoutInterrupted, 4
  54              	tickTimeoutInterrupted:
  55 000c 00000000 		.space	4
  56              		.global	pidTimerInterrupted
  57              		.align	2
  58              		.type	pidTimerInterrupted, %object
  59              		.size	pidTimerInterrupted, 4
  60              	pidTimerInterrupted:
  61 0010 00000000 		.space	4
  62              		.global	camCompRiseInterrupted
  63              		.align	2
  64              		.type	camCompRiseInterrupted, %object
  65              		.size	camCompRiseInterrupted, 4
  66              	camCompRiseInterrupted:
  67 0014 00000000 		.space	4
  68              		.global	camCompFallInterrupted
  69              		.align	2
  70              		.type	camCompFallInterrupted, %object
  71              		.size	camCompFallInterrupted, 4
  72              	camCompFallInterrupted:
  73 0018 00000000 		.space	4
  74              		.global	camRowInterrupted
  75              		.align	2
  76              		.type	camRowInterrupted, %object
  77              		.size	camRowInterrupted, 4
  78              	camRowInterrupted:
  79 001c 00000000 		.space	4
  80              		.global	camFrameInterrupted
  81              		.align	2
  82              		.type	camFrameInterrupted, %object
  83              		.size	camFrameInterrupted, 4
  84              	camFrameInterrupted:
  85 0020 00000000 		.space	4
  86              		.global	numFrames
  87              		.align	2
  88              		.type	numFrames, %object
  89              		.size	numFrames, 4
  90              	numFrames:
  91 0024 00000000 		.space	4
  92              		.global	numRows
  93              		.align	2
  94              		.type	numRows, %object
  95              		.size	numRows, 4
  96              	numRows:
  97 0028 00000000 		.space	4
  98              		.global	numCompBegin
  99              		.align	2
 100              		.type	numCompBegin, %object
 101              		.size	numCompBegin, 4
 102              	numCompBegin:
 103 002c 00000000 		.space	4
 104              		.global	numCompEnd
 105              		.align	2
 106              		.type	numCompEnd, %object
 107              		.size	numCompEnd, 4
 108              	numCompEnd:
ARM GAS  C:\Users\bccho\AppData\Local\Temp\ccBO8fce.s 			page 3


 109 0030 00000000 		.space	4
 110              		.global	rowCycles
 111              		.align	2
 112              		.type	rowCycles, %object
 113              		.size	rowCycles, 4
 114              	rowCycles:
 115 0034 00000000 		.space	4
 116              		.global	lineBeginCycles
 117              		.align	2
 118              		.type	lineBeginCycles, %object
 119              		.size	lineBeginCycles, 4
 120              	lineBeginCycles:
 121 0038 00000000 		.space	4
 122              		.global	lineEndCycles
 123              		.align	2
 124              		.type	lineEndCycles, %object
 125              		.size	lineEndCycles, 4
 126              	lineEndCycles:
 127 003c 00000000 		.space	4
 128              		.global	MAIN_CLK_FREQ
 129              		.section	.rodata
 130              		.align	3
 131              		.type	MAIN_CLK_FREQ, %object
 132              		.size	MAIN_CLK_FREQ, 8
 133              	MAIN_CLK_FREQ:
 134 0000 00000000 		.word	0
 135 0004 006AF840 		.word	1090021888
 136              		.global	MIN_TIME_SERVO
 137              		.align	3
 138              		.type	MIN_TIME_SERVO, %object
 139              		.size	MIN_TIME_SERVO, 8
 140              	MIN_TIME_SERVO:
 141 0008 158C4AEA 		.word	-364213227
 142 000c 0434513F 		.word	1062286340
 143              		.global	MAX_TIME_SERVO
 144              		.align	3
 145              		.type	MAX_TIME_SERVO, %object
 146              		.size	MAX_TIME_SERVO, 8
 147              	MAX_TIME_SERVO:
 148 0010 8E40BCAE 		.word	-1363394418
 149 0014 5FB05B3F 		.word	1062973535
 150              		.global	CAMERA_TIMER_PERIOD
 151              		.align	3
 152              		.type	CAMERA_TIMER_PERIOD, %object
 153              		.size	CAMERA_TIMER_PERIOD, 8
 154              	CAMERA_TIMER_PERIOD:
 155 0018 00000000 		.word	0
 156 001c 0000F040 		.word	1089470464
 157              		.global	EXPECTED_ROW_CYCLES
 158              		.align	3
 159              		.type	EXPECTED_ROW_CYCLES, %object
 160              		.size	EXPECTED_ROW_CYCLES, 8
 161              	EXPECTED_ROW_CYCLES:
 162 0020 00000000 		.word	0
 163 0024 00208640 		.word	1082531840
 164              		.global	test6
 165              		.bss
ARM GAS  C:\Users\bccho\AppData\Local\Temp\ccBO8fce.s 			page 4


 166              		.align	2
 167              		.type	test6, %object
 168              		.size	test6, 4
 169              	test6:
 170 0040 00000000 		.space	4
 171              		.global	test7
 172              		.align	2
 173              		.type	test7, %object
 174              		.size	test7, 4
 175              	test7:
 176 0044 00000000 		.space	4
 177              		.global	test8
 178              		.align	2
 179              		.type	test8, %object
 180              		.size	test8, 4
 181              	test8:
 182 0048 00000000 		.space	4
 183              		.global	test9
 184              		.align	2
 185              		.type	test9, %object
 186              		.size	test9, 4
 187              	test9:
 188 004c 00000000 		.space	4
 189              		.global	lineMid
 190              		.align	3
 191              		.type	lineMid, %object
 192              		.size	lineMid, 8
 193              	lineMid:
 194 0050 00000000 		.space	8
 194      00000000 
 195              		.global	__aeabi_d2iz
 196              		.global	__aeabi_i2d
 197              		.section	.text.floor,"ax",%progbits
 198              		.align	2
 199              		.global	floor
 200              		.thumb
 201              		.thumb_func
 202              		.type	floor, %function
 203              	floor:
 204              	.LFB29:
 205              		.file 1 ".\\main.c"
   1:.\main.c      **** /*-----------------------------------------------------------------*/
   2:.\main.c      **** /* main.c                                                          */
   3:.\main.c      **** /*                                                                 */
   4:.\main.c      **** /* BC Cho (bccho@) and TJ Smith (tjs8@)                            */
   5:.\main.c      **** /*-----------------------------------------------------------------*/
   6:.\main.c      **** #include <device.h>
   7:.\main.c      **** #include <stdio.h>
   8:.\main.c      **** #include <speedcontrol.h>
   9:.\main.c      **** #include <serial.h>
  10:.\main.c      **** 
  11:.\main.c      **** char buildVersion[] = "Build 1.0.0";
  12:.\main.c      **** char strbuffer[100];
  13:.\main.c      **** 
  14:.\main.c      **** // Function prototypes
  15:.\main.c      **** void parseMessage();
  16:.\main.c      **** 
ARM GAS  C:\Users\bccho\AppData\Local\Temp\ccBO8fce.s 			page 5


  17:.\main.c      **** 
  18:.\main.c      **** int buttonInterrupted = 0;
  19:.\main.c      **** int rxInterrupted = 0;
  20:.\main.c      **** int wheelTickInterrupted = 0;
  21:.\main.c      **** int tickTimeoutInterrupted = 0;
  22:.\main.c      **** int pidTimerInterrupted = 0;
  23:.\main.c      **** int camCompRiseInterrupted = 0;
  24:.\main.c      **** int camCompFallInterrupted = 0;
  25:.\main.c      **** int camRowInterrupted = 0;
  26:.\main.c      **** int camFrameInterrupted = 0;
  27:.\main.c      **** 
  28:.\main.c      **** int numFrames = 0;
  29:.\main.c      **** int numRows = 0;
  30:.\main.c      **** int numCompBegin = 0;
  31:.\main.c      **** int numCompEnd = 0;
  32:.\main.c      **** int rowCycles = 0;
  33:.\main.c      **** int lineBeginCycles = 0;
  34:.\main.c      **** int lineEndCycles = 0;
  35:.\main.c      **** #define CAM_CLK_FREQ 12000000
  36:.\main.c      **** const double MAIN_CLK_FREQ = 100000;
  37:.\main.c      **** 
  38:.\main.c      **** // Control pulse times in s
  39:.\main.c      **** const double MIN_TIME_SERVO = 0.00105;
  40:.\main.c      **** const double MAX_TIME_SERVO = 0.00169;
  41:.\main.c      **** 
  42:.\main.c      **** const double CAMERA_TIMER_PERIOD = 65536;
  43:.\main.c      **** 
  44:.\main.c      **** #define EXPECTED_ROW_TIME 0.000059
  45:.\main.c      **** const double EXPECTED_ROW_CYCLES = EXPECTED_ROW_TIME * CAM_CLK_FREQ;
  46:.\main.c      **** 
  47:.\main.c      **** int test6 = 0;
  48:.\main.c      **** int test7 = 0;
  49:.\main.c      **** int test8 = 0;
  50:.\main.c      **** int test9 = 0;
  51:.\main.c      **** 
  52:.\main.c      **** double lineMid = 0;
  53:.\main.c      **** 
  54:.\main.c      **** double floor(double a) {
  55:.\main.c      ****     return (double) (int) a;
 206              		.loc 1 55 0
 207              		.cfi_startproc
 208              		@ args = 0, pretend = 0, frame = 8
 209              		@ frame_needed = 1, uses_anonymous_args = 0
 210 0000 80B5     		push	{r7, lr}
 211              	.LCFI0:
 212              		.cfi_def_cfa_offset 8
 213 0002 82B0     		sub	sp, sp, #8
 214              	.LCFI1:
 215              		.cfi_def_cfa_offset 16
 216 0004 00AF     		add	r7, sp, #0
 217              		.cfi_offset 14, -4
 218              		.cfi_offset 7, -8
 219              	.LCFI2:
 220              		.cfi_def_cfa_register 7
 221 0006 C7E90001 		strd	r0, [r7]
 222              		.loc 1 55 0
 223 000a D7E90001 		ldrd	r0, [r7]
ARM GAS  C:\Users\bccho\AppData\Local\Temp\ccBO8fce.s 			page 6


 224 000e FFF7FEFF 		bl	__aeabi_d2iz
 225 0012 0346     		mov	r3, r0
 226 0014 1846     		mov	r0, r3
 227 0016 FFF7FEFF 		bl	__aeabi_i2d
 228 001a 0246     		mov	r2, r0
 229 001c 0B46     		mov	r3, r1
  56:.\main.c      **** }
 230              		.loc 1 56 0
 231 001e 1046     		mov	r0, r2
 232 0020 1946     		mov	r1, r3
 233 0022 07F10807 		add	r7, r7, #8
 234 0026 BD46     		mov	sp, r7
 235 0028 80BD     		pop	{r7, pc}
 236              		.cfi_endproc
 237              	.LFE29:
 238              		.size	floor, .-floor
 239              		.global	__aeabi_dadd
 240 002a 00BF     		.section	.text.ceil,"ax",%progbits
 241              		.align	2
 242              		.global	ceil
 243              		.thumb
 244              		.thumb_func
 245              		.type	ceil, %function
 246              	ceil:
 247              	.LFB30:
  57:.\main.c      **** 
  58:.\main.c      **** double ceil(double a) {
  59:.\main.c      ****     return floor(a) + 1;
 248              		.loc 1 59 0
 249              		.cfi_startproc
 250              		@ args = 0, pretend = 0, frame = 8
 251              		@ frame_needed = 1, uses_anonymous_args = 0
 252 0000 80B5     		push	{r7, lr}
 253              	.LCFI3:
 254              		.cfi_def_cfa_offset 8
 255 0002 82B0     		sub	sp, sp, #8
 256              	.LCFI4:
 257              		.cfi_def_cfa_offset 16
 258 0004 00AF     		add	r7, sp, #0
 259              		.cfi_offset 14, -4
 260              		.cfi_offset 7, -8
 261              	.LCFI5:
 262              		.cfi_def_cfa_register 7
 263 0006 C7E90001 		strd	r0, [r7]
 264              		.loc 1 59 0
 265 000a D7E90001 		ldrd	r0, [r7]
 266 000e FFF7FEFF 		bl	floor
 267 0012 0246     		mov	r2, r0
 268 0014 0B46     		mov	r3, r1
 269 0016 1046     		mov	r0, r2
 270 0018 1946     		mov	r1, r3
 271 001a 4FF00002 		mov	r2, #0
 272 001e 4FF07E53 		mov	r3, #1065353216
 273 0022 03F5E003 		add	r3, r3, #7340032
 274 0026 FFF7FEFF 		bl	__aeabi_dadd
 275 002a 0246     		mov	r2, r0
 276 002c 0B46     		mov	r3, r1
ARM GAS  C:\Users\bccho\AppData\Local\Temp\ccBO8fce.s 			page 7


  60:.\main.c      **** }
 277              		.loc 1 60 0
 278 002e 1046     		mov	r0, r2
 279 0030 1946     		mov	r1, r3
 280 0032 07F10807 		add	r7, r7, #8
 281 0036 BD46     		mov	sp, r7
 282 0038 80BD     		pop	{r7, pc}
 283              		.cfi_endproc
 284              	.LFE30:
 285              		.size	ceil, .-ceil
 286 003a 00BF     		.section	.rodata
 287              		.align	2
 288              	.LC0:
 289 0028 25335B41 		.ascii	"%3[A-Za-z]\000"
 289      2D5A612D 
 289      7A5D00
 290 0033 00       		.align	2
 291              	.LC1:
 292 0034 435400   		.ascii	"CT\000"
 293 0037 00       		.align	2
 294              	.LC2:
 295 0038 256900   		.ascii	"%i\000"
 296 003b 00       		.align	2
 297              	.LC3:
 298 003c 5468726F 		.ascii	"Throttle = %i\012\000"
 298      74746C65 
 298      203D2025 
 298      690A00
 299 004b 00       		.align	2
 300              	.LC4:
 301 004c 4700     		.ascii	"G\000"
 302 004e 0000     		.align	2
 303              	.LC5:
 304 0050 5468726F 		.ascii	"Throttle: %d\012Speed: %f ft/s\012P = %.2f\011I = %"
 304      74746C65 
 304      3A202564 
 304      0A537065 
 304      65643A20 
 305 007a 2E326609 		.ascii	".2f\011D = %.2f\012\000"
 305      44203D20 
 305      252E3266 
 305      0A00
 306              		.align	2
 307              	.LC6:
 308 0088 545000   		.ascii	"TP\000"
 309 008b 00       		.align	2
 310              	.LC7:
 311 008c 50494420 		.ascii	"PID control on\012\000"
 311      636F6E74 
 311      726F6C20 
 311      6F6E0A00 
 312              		.align	2
 313              	.LC8:
 314 009c 50494420 		.ascii	"PID control off\012\000"
 314      636F6E74 
 314      726F6C20 
 314      6F66660A 
ARM GAS  C:\Users\bccho\AppData\Local\Temp\ccBO8fce.s 			page 8


 314      00
 315 00ad 000000   		.align	2
 316              	.LC9:
 317 00b0 54444300 		.ascii	"TDC\000"
 318              		.align	2
 319              	.LC10:
 320 00b4 44697374 		.ascii	"Distance control on\012\000"
 320      616E6365 
 320      20636F6E 
 320      74726F6C 
 320      206F6E0A 
 321 00c9 000000   		.align	2
 322              	.LC11:
 323 00cc 44697374 		.ascii	"Distance control off\012\000"
 323      616E6365 
 323      20636F6E 
 323      74726F6C 
 323      206F6666 
 324 00e2 0000     		.align	2
 325              	.LC12:
 326 00e4 54445300 		.ascii	"TDS\000"
 327              		.align	2
 328              	.LC13:
 329 00e8 44796E61 		.ascii	"Dynamic target speed update on\012\000"
 329      6D696320 
 329      74617267 
 329      65742073 
 329      70656564 
 330              		.align	2
 331              	.LC14:
 332 0108 44796E61 		.ascii	"Dynamic target speed update off\012\000"
 332      6D696320 
 332      74617267 
 332      65742073 
 332      70656564 
 333 0129 000000   		.align	2
 334              	.LC15:
 335 012c 435000   		.ascii	"CP\000"
 336 012f 00       		.align	2
 337              	.LC16:
 338 0130 50203D20 		.ascii	"P = %.2f\012\000"
 338      252E3266 
 338      0A00
 339 013a 0000     		.align	2
 340              	.LC17:
 341 013c 434900   		.ascii	"CI\000"
 342 013f 00       		.align	2
 343              	.LC18:
 344 0140 256C6600 		.ascii	"%lf\000"
 345              		.align	2
 346              	.LC19:
 347 0144 49203D20 		.ascii	"I = %.2f\012\000"
 347      252E3266 
 347      0A00
 348 014e 0000     		.align	2
 349              	.LC20:
 350 0150 434400   		.ascii	"CD\000"
ARM GAS  C:\Users\bccho\AppData\Local\Temp\ccBO8fce.s 			page 9


 351 0153 00       		.align	2
 352              	.LC21:
 353 0154 44203D20 		.ascii	"D = %.2f\012\000"
 353      252E3266 
 353      0A00
 354 015e 0000     		.align	2
 355              	.LC22:
 356 0160 43535300 		.ascii	"CSS\000"
 357              		.align	2
 358              	.LC23:
 359 0164 53532054 		.ascii	"SS Throttle = %i\012\000"
 359      68726F74 
 359      746C6520 
 359      3D202569 
 359      0A00
 360 0176 0000     		.align	2
 361              	.LC24:
 362 0178 43545300 		.ascii	"CTS\000"
 363              		.align	2
 364              	.LC25:
 365 017c 54617267 		.ascii	"Target Speed = %f ft/s\012\000"
 365      65742053 
 365      70656564 
 365      203D2025 
 365      66206674 
 366              		.align	2
 367              	.LC26:
 368 0194 43544400 		.ascii	"CTD\000"
 369              		.align	2
 370              	.LC27:
 371 0198 54617267 		.ascii	"Target distance = %.2f ft\012\000"
 371      65742064 
 371      69737461 
 371      6E636520 
 371      3D20252E 
 372 01b3 00       		.align	2
 373              	.LC28:
 374 01b4 54565000 		.ascii	"TVP\000"
 375              		.align	2
 376              	.LC29:
 377 01b8 56657262 		.ascii	"Verbose printout on\012\000"
 377      6F736520 
 377      7072696E 
 377      746F7574 
 377      206F6E0A 
 378 01cd 000000   		.align	2
 379              	.LC30:
 380 01d0 56657262 		.ascii	"Verbose printout off\012\000"
 380      6F736520 
 380      7072696E 
 380      746F7574 
 380      206F6666 
 381 01e6 0000     		.align	2
 382              	.LC31:
 383 01e8 4100     		.ascii	"A\000"
 384 01ea 0000     		.align	2
 385              	.LC32:
ARM GAS  C:\Users\bccho\AppData\Local\Temp\ccBO8fce.s 			page 10


 386 01ec 474300   		.ascii	"GC\000"
 387 01ef 00       		.align	2
 388              	.LC33:
 389 01f0 4672616D 		.ascii	"Frame count = %d\012Row count = %d\012Comparator co"
 389      6520636F 
 389      756E7420 
 389      3D202564 
 389      0A526F77 
 390 021d 756E7473 		.ascii	"unts (begin) = %d\012Comparator counts (end) = %d\012"
 390      20286265 
 390      67696E29 
 390      203D2025 
 390      640A436F 
 391 024c 526F7720 		.ascii	"Row cycles = %d\012Line begin cycles = %d\012Line e"
 391      6379636C 
 391      6573203D 
 391      2025640A 
 391      4C696E65 
 392 0279 6E642063 		.ascii	"nd cycles = %d\012\000"
 392      79636C65 
 392      73203D20 
 392      25640A00 
 393 0289 000000   		.align	2
 394              	.LC34:
 395 028c 475400   		.ascii	"GT\000"
 396 028f 00       		.align	2
 397              	.LC35:
 398 0290 4672616D 		.ascii	"Frame count = %d\012Comparator counts (begin) = %d\012"
 398      6520636F 
 398      756E7420 
 398      3D202564 
 398      0A436F6D 
 399 02c0 436F6D70 		.ascii	"Comparator counts (end) = %d\012Line begin cycles ="
 399      61726174 
 399      6F722063 
 399      6F756E74 
 399      73202865 
 400 02f0 2025640A 		.ascii	" %d\012Line end cycles = %d\012\000"
 400      4C696E65 
 400      20656E64 
 400      20637963 
 400      6C657320 
 401 030a 0000     		.align	2
 402              	.LC36:
 403 030c 363A2025 		.ascii	"6: %d\0127: %d\0129: %d\012Line mid: %f\012\000"
 403      640A373A 
 403      2025640A 
 403      393A2025 
 403      640A4C69 
 404              		.align	2
 405              	.LC37:
 406 032c 524300   		.ascii	"RC\000"
 407 032f 00       		.align	2
 408              	.LC38:
 409 0330 43616D65 		.ascii	"Camera variables reset\012\000"
 409      72612076 
 409      61726961 
ARM GAS  C:\Users\bccho\AppData\Local\Temp\ccBO8fce.s 			page 11


 409      626C6573 
 409      20726573 
 410              		.align	2
 411              	.LC39:
 412 0348 435300   		.ascii	"CS\000"
 413              		.global	__aeabi_dcmpgt
 414              		.global	__aeabi_dcmplt
 415              		.global	__aeabi_dsub
 416              		.global	__aeabi_dmul
 417              		.global	__aeabi_d2uiz
 418              		.global	__aeabi_ddiv
 419 034b 00       		.align	2
 420              	.LC40:
 421 034c 53657276 		.ascii	"Servo set to %.3f (%.3f ms)\012\000"
 421      6F207365 
 421      7420746F 
 421      20252E33 
 421      66202825 
 422              		.section	.text.parseMessage,"ax",%progbits
 423              		.align	2
 424              		.global	parseMessage
 425              		.thumb
 426              		.thumb_func
 427              		.type	parseMessage, %function
 428              	parseMessage:
 429              	.LFB31:
  61:.\main.c      **** 
  62:.\main.c      **** /*
  63:.\main.c      ****  * parseMessage()
  64:.\main.c      ****  *
  65:.\main.c      ****  * Parse serial input string and act on it
  66:.\main.c      ****  *
  67:.\main.c      ****  * Inputs: message
  68:.\main.c      ****  * Returns: none
  69:.\main.c      ****  */
  70:.\main.c      **** void parseMessage(char *message) {
 430              		.loc 1 70 0
 431              		.cfi_startproc
 432              		@ args = 0, pretend = 0, frame = 104
 433              		@ frame_needed = 1, uses_anonymous_args = 0
 434 0000 2DE9F04F 		push	{r4, r5, r6, r7, r8, r9, sl, fp, lr}
 435              	.LCFI6:
 436              		.cfi_def_cfa_offset 36
 437 0004 A3B0     		sub	sp, sp, #140
 438              	.LCFI7:
 439              		.cfi_def_cfa_offset 176
 440 0006 08AF     		add	r7, sp, #32
 441              		.cfi_offset 14, -4
 442              		.cfi_offset 11, -8
 443              		.cfi_offset 10, -12
 444              		.cfi_offset 9, -16
 445              		.cfi_offset 8, -20
 446              		.cfi_offset 7, -24
 447              		.cfi_offset 6, -28
 448              		.cfi_offset 5, -32
 449              		.cfi_offset 4, -36
 450              	.LCFI8:
ARM GAS  C:\Users\bccho\AppData\Local\Temp\ccBO8fce.s 			page 12


 451              		.cfi_def_cfa 7, 144
 452 0008 7860     		str	r0, [r7, #4]
  71:.\main.c      ****     if (message == NULL) return;
 453              		.loc 1 71 0
 454 000a 7B68     		ldr	r3, [r7, #4]
 455 000c 002B     		cmp	r3, #0
 456 000e 00F0E184 		beq	.L59
 457              	.L6:
  72:.\main.c      ****     
  73:.\main.c      ****     char msgPrefix[4];
  74:.\main.c      ****     if (sscanf(message, "%3[A-Za-z]", msgPrefix) == 1) {
 458              		.loc 1 74 0
 459 0012 07F13803 		add	r3, r7, #56
 460 0016 7868     		ldr	r0, [r7, #4]
 461 0018 40F20001 		movw	r1, #:lower16:.LC0
 462 001c C0F20001 		movt	r1, #:upper16:.LC0
 463 0020 1A46     		mov	r2, r3
 464 0022 FFF7FEFF 		bl	sscanf
 465 0026 0346     		mov	r3, r0
 466 0028 012B     		cmp	r3, #1
 467 002a 40F0D484 		bne	.L58
 468              	.LBB2:
  75:.\main.c      ****         int prefixLen = strlen(msgPrefix);
 469              		.loc 1 75 0
 470 002e 07F13803 		add	r3, r7, #56
 471 0032 1846     		mov	r0, r3
 472 0034 FFF7FEFF 		bl	strlen
 473 0038 0346     		mov	r3, r0
 474 003a FB63     		str	r3, [r7, #60]
  76:.\main.c      ****         
  77:.\main.c      ****         // Messages of the form "CTx" (x integer) set the duty cycle to x out of MAX_THROTTLE
  78:.\main.c      ****         if (strcmp(msgPrefix, "CT") == 0) {
 475              		.loc 1 78 0
 476 003c 07F13803 		add	r3, r7, #56
 477 0040 1846     		mov	r0, r3
 478 0042 40F20001 		movw	r1, #:lower16:.LC1
 479 0046 C0F20001 		movt	r1, #:upper16:.LC1
 480 004a FFF7FEFF 		bl	strcmp
 481 004e 0346     		mov	r3, r0
 482 0050 002B     		cmp	r3, #0
 483 0052 2CD1     		bne	.L8
 484              	.LBB3:
  79:.\main.c      ****             int value = 0;
 485              		.loc 1 79 0
 486 0054 4FF00003 		mov	r3, #0
 487 0058 7B63     		str	r3, [r7, #52]
  80:.\main.c      ****             if (sscanf(message + prefixLen, "%i", &value) > 0) {
 488              		.loc 1 80 0
 489 005a FA6B     		ldr	r2, [r7, #60]
 490 005c 7B68     		ldr	r3, [r7, #4]
 491 005e 1A44     		add	r2, r2, r3
 492 0060 07F13403 		add	r3, r7, #52
 493 0064 1046     		mov	r0, r2
 494 0066 40F20001 		movw	r1, #:lower16:.LC2
 495 006a C0F20001 		movt	r1, #:upper16:.LC2
 496 006e 1A46     		mov	r2, r3
 497 0070 FFF7FEFF 		bl	sscanf
ARM GAS  C:\Users\bccho\AppData\Local\Temp\ccBO8fce.s 			page 13


 498 0074 0346     		mov	r3, r0
 499 0076 002B     		cmp	r3, #0
 500 0078 03DD     		ble	.L9
  81:.\main.c      ****                 SpeedControl_setThrottle(value);
 501              		.loc 1 81 0
 502 007a 7B6B     		ldr	r3, [r7, #52]
 503 007c 1846     		mov	r0, r3
 504 007e FFF7FEFF 		bl	SpeedControl_setThrottle
 505              	.L9:
  82:.\main.c      ****             }
  83:.\main.c      ****             sprintf(strbuffer, "Throttle = %i\n", SpeedControl_getThrottle());
 506              		.loc 1 83 0
 507 0082 FFF7FEFF 		bl	SpeedControl_getThrottle
 508 0086 0346     		mov	r3, r0
 509 0088 40F20000 		movw	r0, #:lower16:strbuffer
 510 008c C0F20000 		movt	r0, #:upper16:strbuffer
 511 0090 40F20001 		movw	r1, #:lower16:.LC3
 512 0094 C0F20001 		movt	r1, #:upper16:.LC3
 513 0098 1A46     		mov	r2, r3
 514 009a FFF7FEFF 		bl	sprintf
  84:.\main.c      ****             UART_PutString(strbuffer);
 515              		.loc 1 84 0
 516 009e 40F20000 		movw	r0, #:lower16:strbuffer
 517 00a2 C0F20000 		movt	r0, #:upper16:strbuffer
 518 00a6 FFF7FEFF 		bl	UART_PutString
 519 00aa 00F094BC 		b	.L58
 520              	.L8:
 521              	.LBE3:
  85:.\main.c      ****         }
  86:.\main.c      ****         
  87:.\main.c      ****         // Messages beginning with "G" return the throttle, speed, and PID controls
  88:.\main.c      ****         else if (strcmp(msgPrefix, "G") == 0) {
 522              		.loc 1 88 0
 523 00ae 07F13803 		add	r3, r7, #56
 524 00b2 1846     		mov	r0, r3
 525 00b4 40F20001 		movw	r1, #:lower16:.LC4
 526 00b8 C0F20001 		movt	r1, #:upper16:.LC4
 527 00bc FFF7FEFF 		bl	strcmp
 528 00c0 0346     		mov	r3, r0
 529 00c2 002B     		cmp	r3, #0
 530 00c4 2DD1     		bne	.L10
  89:.\main.c      ****             sprintf(strbuffer, "Throttle: %d\nSpeed: %f ft/s\nP = %.2f\tI = %.2f\tD = %.2f\n", 
 531              		.loc 1 89 0
 532 00c6 FFF7FEFF 		bl	SpeedControl_getThrottle
 533 00ca 0646     		mov	r6, r0
 534 00cc FFF7FEFF 		bl	SpeedControl_getSpeed
 535 00d0 8246     		mov	sl, r0
 536 00d2 8B46     		mov	fp, r1
 537 00d4 FFF7FEFF 		bl	SpeedControl_getP
 538 00d8 8046     		mov	r8, r0
 539 00da 8946     		mov	r9, r1
 540 00dc FFF7FEFF 		bl	SpeedControl_getI
 541 00e0 0446     		mov	r4, r0
 542 00e2 0D46     		mov	r5, r1
 543 00e4 FFF7FEFF 		bl	SpeedControl_getD
 544 00e8 0246     		mov	r2, r0
 545 00ea 0B46     		mov	r3, r1
ARM GAS  C:\Users\bccho\AppData\Local\Temp\ccBO8fce.s 			page 14


 546 00ec CDE900AB 		strd	sl, [sp]
 547 00f0 CDE90289 		strd	r8, [sp, #8]
 548 00f4 CDE90445 		strd	r4, [sp, #16]
 549 00f8 CDE90623 		strd	r2, [sp, #24]
 550 00fc 40F20000 		movw	r0, #:lower16:strbuffer
 551 0100 C0F20000 		movt	r0, #:upper16:strbuffer
 552 0104 40F20001 		movw	r1, #:lower16:.LC5
 553 0108 C0F20001 		movt	r1, #:upper16:.LC5
 554 010c 3246     		mov	r2, r6
 555 010e FFF7FEFF 		bl	sprintf
  90:.\main.c      ****                     SpeedControl_getThrottle(), SpeedControl_getSpeed(), SpeedControl_getP(), 
  91:.\main.c      ****                     SpeedControl_getI(), SpeedControl_getD());
  92:.\main.c      ****             UART_PutString(strbuffer);
 556              		.loc 1 92 0
 557 0112 40F20000 		movw	r0, #:lower16:strbuffer
 558 0116 C0F20000 		movt	r0, #:upper16:strbuffer
 559 011a FFF7FEFF 		bl	UART_PutString
 560 011e 00F05ABC 		b	.L58
 561              	.L10:
  93:.\main.c      ****         }
  94:.\main.c      ****         
  95:.\main.c      ****         // Messages beginning with "TP" toggle PID control
  96:.\main.c      ****         else if (strcmp(msgPrefix, "TP") == 0) {
 562              		.loc 1 96 0
 563 0122 07F13803 		add	r3, r7, #56
 564 0126 1846     		mov	r0, r3
 565 0128 40F20001 		movw	r1, #:lower16:.LC6
 566 012c C0F20001 		movt	r1, #:upper16:.LC6
 567 0130 FFF7FEFF 		bl	strcmp
 568 0134 0346     		mov	r3, r0
 569 0136 002B     		cmp	r3, #0
 570 0138 1ED1     		bne	.L11
  97:.\main.c      ****             if (!SpeedControl_isEnabled()) {
 571              		.loc 1 97 0
 572 013a FFF7FEFF 		bl	SpeedControl_isEnabled
 573 013e 0346     		mov	r3, r0
 574 0140 002B     		cmp	r3, #0
 575 0142 02D1     		bne	.L12
  98:.\main.c      ****                 SpeedControl_enable();
 576              		.loc 1 98 0
 577 0144 FFF7FEFF 		bl	SpeedControl_enable
 578 0148 01E0     		b	.L13
 579              	.L12:
  99:.\main.c      ****             } else {
 100:.\main.c      ****                 SpeedControl_disable();
 580              		.loc 1 100 0
 581 014a FFF7FEFF 		bl	SpeedControl_disable
 582              	.L13:
 101:.\main.c      ****             }
 102:.\main.c      ****             if (SpeedControl_isEnabled()) {
 583              		.loc 1 102 0
 584 014e FFF7FEFF 		bl	SpeedControl_isEnabled
 585 0152 0346     		mov	r3, r0
 586 0154 002B     		cmp	r3, #0
 587 0156 07D0     		beq	.L14
 103:.\main.c      ****                 UART_PutString("PID control on\n");
 588              		.loc 1 103 0
ARM GAS  C:\Users\bccho\AppData\Local\Temp\ccBO8fce.s 			page 15


 589 0158 40F20000 		movw	r0, #:lower16:.LC7
 590 015c C0F20000 		movt	r0, #:upper16:.LC7
 591 0160 FFF7FEFF 		bl	UART_PutString
 104:.\main.c      ****             } else {
 105:.\main.c      ****                 UART_PutString("PID control off\n");
 592              		.loc 1 105 0
 593 0164 00F037BC 		b	.L58
 594              	.L14:
 595 0168 40F20000 		movw	r0, #:lower16:.LC8
 596 016c C0F20000 		movt	r0, #:upper16:.LC8
 597 0170 FFF7FEFF 		bl	UART_PutString
 598 0174 00F02FBC 		b	.L58
 599              	.L11:
 106:.\main.c      ****             }
 107:.\main.c      ****         }
 108:.\main.c      ****         
 109:.\main.c      ****         // Messages of the form "TPT" toggle distance control
 110:.\main.c      ****         else if (strcmp(msgPrefix, "TDC") == 0) {
 600              		.loc 1 110 0
 601 0178 07F13803 		add	r3, r7, #56
 602 017c 1846     		mov	r0, r3
 603 017e 40F20001 		movw	r1, #:lower16:.LC9
 604 0182 C0F20001 		movt	r1, #:upper16:.LC9
 605 0186 FFF7FEFF 		bl	strcmp
 606 018a 0346     		mov	r3, r0
 607 018c 002B     		cmp	r3, #0
 608 018e 1ED1     		bne	.L16
 111:.\main.c      ****             if (!SpeedControl_isDistanceControlEnabled()) {
 609              		.loc 1 111 0
 610 0190 FFF7FEFF 		bl	SpeedControl_isDistanceControlEnabled
 611 0194 0346     		mov	r3, r0
 612 0196 002B     		cmp	r3, #0
 613 0198 02D1     		bne	.L17
 112:.\main.c      ****                 SpeedControl_enableDistanceControl();
 614              		.loc 1 112 0
 615 019a FFF7FEFF 		bl	SpeedControl_enableDistanceControl
 616 019e 01E0     		b	.L18
 617              	.L17:
 113:.\main.c      ****             } else {
 114:.\main.c      ****                 SpeedControl_disableDistanceControl();
 618              		.loc 1 114 0
 619 01a0 FFF7FEFF 		bl	SpeedControl_disableDistanceControl
 620              	.L18:
 115:.\main.c      ****             }
 116:.\main.c      ****             if (SpeedControl_isDistanceControlEnabled()) {
 621              		.loc 1 116 0
 622 01a4 FFF7FEFF 		bl	SpeedControl_isDistanceControlEnabled
 623 01a8 0346     		mov	r3, r0
 624 01aa 002B     		cmp	r3, #0
 625 01ac 07D0     		beq	.L19
 117:.\main.c      ****                 UART_PutString("Distance control on\n");
 626              		.loc 1 117 0
 627 01ae 40F20000 		movw	r0, #:lower16:.LC10
 628 01b2 C0F20000 		movt	r0, #:upper16:.LC10
 629 01b6 FFF7FEFF 		bl	UART_PutString
 118:.\main.c      ****             } else {
 119:.\main.c      ****                 UART_PutString("Distance control off\n");
ARM GAS  C:\Users\bccho\AppData\Local\Temp\ccBO8fce.s 			page 16


 630              		.loc 1 119 0
 631 01ba 00F00CBC 		b	.L58
 632              	.L19:
 633 01be 40F20000 		movw	r0, #:lower16:.LC11
 634 01c2 C0F20000 		movt	r0, #:upper16:.LC11
 635 01c6 FFF7FEFF 		bl	UART_PutString
 636 01ca 00F004BC 		b	.L58
 637              	.L16:
 120:.\main.c      ****             }
 121:.\main.c      ****         }
 122:.\main.c      ****         
 123:.\main.c      ****         // Messages beginning with "TDS" toggle whether we dynamically update target speed to reach
 124:.\main.c      ****         else if (strcmp(msgPrefix, "TDS") == 0) {
 638              		.loc 1 124 0
 639 01ce 07F13803 		add	r3, r7, #56
 640 01d2 1846     		mov	r0, r3
 641 01d4 40F20001 		movw	r1, #:lower16:.LC12
 642 01d8 C0F20001 		movt	r1, #:upper16:.LC12
 643 01dc FFF7FEFF 		bl	strcmp
 644 01e0 0346     		mov	r3, r0
 645 01e2 002B     		cmp	r3, #0
 646 01e4 1CD1     		bne	.L21
 125:.\main.c      ****             if (!SpeedControl_isDynamicTargetUpdateEnabled()) {
 647              		.loc 1 125 0
 648 01e6 FFF7FEFF 		bl	SpeedControl_isDynamicTargetUpdateEnabled
 649 01ea 0346     		mov	r3, r0
 650 01ec 002B     		cmp	r3, #0
 651 01ee 02D1     		bne	.L22
 126:.\main.c      ****                 SpeedControl_enableDynamicTargetUpdate();
 652              		.loc 1 126 0
 653 01f0 FFF7FEFF 		bl	SpeedControl_enableDynamicTargetUpdate
 654 01f4 01E0     		b	.L23
 655              	.L22:
 127:.\main.c      ****             } else {
 128:.\main.c      ****                 SpeedControl_disableDynamicTargetUpdate();
 656              		.loc 1 128 0
 657 01f6 FFF7FEFF 		bl	SpeedControl_disableDynamicTargetUpdate
 658              	.L23:
 129:.\main.c      ****             }
 130:.\main.c      ****             if (SpeedControl_isDynamicTargetUpdateEnabled()) {
 659              		.loc 1 130 0
 660 01fa FFF7FEFF 		bl	SpeedControl_isDynamicTargetUpdateEnabled
 661 01fe 0346     		mov	r3, r0
 662 0200 002B     		cmp	r3, #0
 663 0202 06D0     		beq	.L24
 131:.\main.c      ****                 UART_PutString("Dynamic target speed update on\n");
 664              		.loc 1 131 0
 665 0204 40F20000 		movw	r0, #:lower16:.LC13
 666 0208 C0F20000 		movt	r0, #:upper16:.LC13
 667 020c FFF7FEFF 		bl	UART_PutString
 132:.\main.c      ****             } else {
 133:.\main.c      ****                 UART_PutString("Dynamic target speed update off\n");
 668              		.loc 1 133 0
 669 0210 E1E3     		b	.L58
 670              	.L24:
 671 0212 40F20000 		movw	r0, #:lower16:.LC14
 672 0216 C0F20000 		movt	r0, #:upper16:.LC14
ARM GAS  C:\Users\bccho\AppData\Local\Temp\ccBO8fce.s 			page 17


 673 021a FFF7FEFF 		bl	UART_PutString
 674 021e DAE3     		b	.L58
 675              	.L21:
 134:.\main.c      ****             }
 135:.\main.c      ****         }
 136:.\main.c      ****         
 137:.\main.c      ****         // Messages of the form "CPx" (x integer) change the proportional term to x
 138:.\main.c      ****         else if (strcmp(msgPrefix, "CP") == 0) {
 676              		.loc 1 138 0
 677 0220 07F13803 		add	r3, r7, #56
 678 0224 1846     		mov	r0, r3
 679 0226 40F20001 		movw	r1, #:lower16:.LC15
 680 022a C0F20001 		movt	r1, #:upper16:.LC15
 681 022e FFF7FEFF 		bl	strcmp
 682 0232 0346     		mov	r3, r0
 683 0234 002B     		cmp	r3, #0
 684 0236 31D1     		bne	.L26
 685              	.LBB4:
 139:.\main.c      ****             int value = 0;
 686              		.loc 1 139 0
 687 0238 4FF00003 		mov	r3, #0
 688 023c 3B63     		str	r3, [r7, #48]
 140:.\main.c      ****             if (sscanf(message + prefixLen, "%i", &value) > 0) {
 689              		.loc 1 140 0
 690 023e FA6B     		ldr	r2, [r7, #60]
 691 0240 7B68     		ldr	r3, [r7, #4]
 692 0242 1A44     		add	r2, r2, r3
 693 0244 07F13003 		add	r3, r7, #48
 694 0248 1046     		mov	r0, r2
 695 024a 40F20001 		movw	r1, #:lower16:.LC2
 696 024e C0F20001 		movt	r1, #:upper16:.LC2
 697 0252 1A46     		mov	r2, r3
 698 0254 FFF7FEFF 		bl	sscanf
 699 0258 0346     		mov	r3, r0
 700 025a 002B     		cmp	r3, #0
 701 025c 09DD     		ble	.L27
 141:.\main.c      ****                 SpeedControl_setP(value);
 702              		.loc 1 141 0
 703 025e 3B6B     		ldr	r3, [r7, #48]
 704 0260 1846     		mov	r0, r3
 705 0262 FFF7FEFF 		bl	__aeabi_i2d
 706 0266 0246     		mov	r2, r0
 707 0268 0B46     		mov	r3, r1
 708 026a 1046     		mov	r0, r2
 709 026c 1946     		mov	r1, r3
 710 026e FFF7FEFF 		bl	SpeedControl_setP
 711              	.L27:
 142:.\main.c      ****             }
 143:.\main.c      **** 
 144:.\main.c      ****             sprintf(strbuffer, "P = %.2f\n", SpeedControl_getP());
 712              		.loc 1 144 0
 713 0272 FFF7FEFF 		bl	SpeedControl_getP
 714 0276 0246     		mov	r2, r0
 715 0278 0B46     		mov	r3, r1
 716 027a 40F20000 		movw	r0, #:lower16:strbuffer
 717 027e C0F20000 		movt	r0, #:upper16:strbuffer
 718 0282 40F20001 		movw	r1, #:lower16:.LC16
ARM GAS  C:\Users\bccho\AppData\Local\Temp\ccBO8fce.s 			page 18


 719 0286 C0F20001 		movt	r1, #:upper16:.LC16
 720 028a FFF7FEFF 		bl	sprintf
 145:.\main.c      ****             UART_PutString(strbuffer);
 721              		.loc 1 145 0
 722 028e 40F20000 		movw	r0, #:lower16:strbuffer
 723 0292 C0F20000 		movt	r0, #:upper16:strbuffer
 724 0296 FFF7FEFF 		bl	UART_PutString
 725 029a 9CE3     		b	.L58
 726              	.L26:
 727              	.LBE4:
 146:.\main.c      ****         }
 147:.\main.c      ****         
 148:.\main.c      ****         // Messages of the form "CIx" (x float) change the integral term to x
 149:.\main.c      ****         else if (strcmp(msgPrefix, "CI") == 0) {
 728              		.loc 1 149 0
 729 029c 07F13803 		add	r3, r7, #56
 730 02a0 1846     		mov	r0, r3
 731 02a2 40F20001 		movw	r1, #:lower16:.LC17
 732 02a6 C0F20001 		movt	r1, #:upper16:.LC17
 733 02aa FFF7FEFF 		bl	strcmp
 734 02ae 0346     		mov	r3, r0
 735 02b0 002B     		cmp	r3, #0
 736 02b2 30D1     		bne	.L28
 737              	.LBB5:
 150:.\main.c      ****             double value = 0;
 738              		.loc 1 150 0
 739 02b4 4FF00002 		mov	r2, #0
 740 02b8 4FF00003 		mov	r3, #0
 741 02bc C7E90A23 		strd	r2, [r7, #40]
 151:.\main.c      ****             if (sscanf(message + prefixLen, "%lf", &value) > 0) {
 742              		.loc 1 151 0
 743 02c0 FA6B     		ldr	r2, [r7, #60]
 744 02c2 7B68     		ldr	r3, [r7, #4]
 745 02c4 1A44     		add	r2, r2, r3
 746 02c6 07F12803 		add	r3, r7, #40
 747 02ca 1046     		mov	r0, r2
 748 02cc 40F20001 		movw	r1, #:lower16:.LC18
 749 02d0 C0F20001 		movt	r1, #:upper16:.LC18
 750 02d4 1A46     		mov	r2, r3
 751 02d6 FFF7FEFF 		bl	sscanf
 752 02da 0346     		mov	r3, r0
 753 02dc 002B     		cmp	r3, #0
 754 02de 05DD     		ble	.L29
 152:.\main.c      ****                 SpeedControl_setI(value);
 755              		.loc 1 152 0
 756 02e0 D7E90A23 		ldrd	r2, [r7, #40]
 757 02e4 1046     		mov	r0, r2
 758 02e6 1946     		mov	r1, r3
 759 02e8 FFF7FEFF 		bl	SpeedControl_setI
 760              	.L29:
 153:.\main.c      ****             }
 154:.\main.c      **** 
 155:.\main.c      ****             sprintf(strbuffer, "I = %.2f\n", SpeedControl_getI());
 761              		.loc 1 155 0
 762 02ec FFF7FEFF 		bl	SpeedControl_getI
 763 02f0 0246     		mov	r2, r0
 764 02f2 0B46     		mov	r3, r1
ARM GAS  C:\Users\bccho\AppData\Local\Temp\ccBO8fce.s 			page 19


 765 02f4 40F20000 		movw	r0, #:lower16:strbuffer
 766 02f8 C0F20000 		movt	r0, #:upper16:strbuffer
 767 02fc 40F20001 		movw	r1, #:lower16:.LC19
 768 0300 C0F20001 		movt	r1, #:upper16:.LC19
 769 0304 FFF7FEFF 		bl	sprintf
 156:.\main.c      ****             UART_PutString(strbuffer);
 770              		.loc 1 156 0
 771 0308 40F20000 		movw	r0, #:lower16:strbuffer
 772 030c C0F20000 		movt	r0, #:upper16:strbuffer
 773 0310 FFF7FEFF 		bl	UART_PutString
 774 0314 5FE3     		b	.L58
 775              	.L28:
 776              	.LBE5:
 157:.\main.c      ****         }
 158:.\main.c      ****         
 159:.\main.c      ****         // Messages of the form "CDx" (x integer) change the derivative term to x
 160:.\main.c      ****         else if (strcmp(msgPrefix, "CD") == 0) {
 777              		.loc 1 160 0
 778 0316 07F13803 		add	r3, r7, #56
 779 031a 1846     		mov	r0, r3
 780 031c 40F20001 		movw	r1, #:lower16:.LC20
 781 0320 C0F20001 		movt	r1, #:upper16:.LC20
 782 0324 FFF7FEFF 		bl	strcmp
 783 0328 0346     		mov	r3, r0
 784 032a 002B     		cmp	r3, #0
 785 032c 31D1     		bne	.L30
 786              	.LBB6:
 161:.\main.c      ****             int value = 0;
 787              		.loc 1 161 0
 788 032e 4FF00003 		mov	r3, #0
 789 0332 7B62     		str	r3, [r7, #36]
 162:.\main.c      ****             if (sscanf(message + prefixLen, "%i", &value) > 0) {
 790              		.loc 1 162 0
 791 0334 FA6B     		ldr	r2, [r7, #60]
 792 0336 7B68     		ldr	r3, [r7, #4]
 793 0338 1A44     		add	r2, r2, r3
 794 033a 07F12403 		add	r3, r7, #36
 795 033e 1046     		mov	r0, r2
 796 0340 40F20001 		movw	r1, #:lower16:.LC2
 797 0344 C0F20001 		movt	r1, #:upper16:.LC2
 798 0348 1A46     		mov	r2, r3
 799 034a FFF7FEFF 		bl	sscanf
 800 034e 0346     		mov	r3, r0
 801 0350 002B     		cmp	r3, #0
 802 0352 09DD     		ble	.L31
 163:.\main.c      ****                 SpeedControl_setD(value);
 803              		.loc 1 163 0
 804 0354 7B6A     		ldr	r3, [r7, #36]
 805 0356 1846     		mov	r0, r3
 806 0358 FFF7FEFF 		bl	__aeabi_i2d
 807 035c 0246     		mov	r2, r0
 808 035e 0B46     		mov	r3, r1
 809 0360 1046     		mov	r0, r2
 810 0362 1946     		mov	r1, r3
 811 0364 FFF7FEFF 		bl	SpeedControl_setD
 812              	.L31:
 164:.\main.c      ****             }
ARM GAS  C:\Users\bccho\AppData\Local\Temp\ccBO8fce.s 			page 20


 165:.\main.c      **** 
 166:.\main.c      ****             sprintf(strbuffer, "D = %.2f\n", SpeedControl_getD());
 813              		.loc 1 166 0
 814 0368 FFF7FEFF 		bl	SpeedControl_getD
 815 036c 0246     		mov	r2, r0
 816 036e 0B46     		mov	r3, r1
 817 0370 40F20000 		movw	r0, #:lower16:strbuffer
 818 0374 C0F20000 		movt	r0, #:upper16:strbuffer
 819 0378 40F20001 		movw	r1, #:lower16:.LC21
 820 037c C0F20001 		movt	r1, #:upper16:.LC21
 821 0380 FFF7FEFF 		bl	sprintf
 167:.\main.c      ****             UART_PutString(strbuffer);
 822              		.loc 1 167 0
 823 0384 40F20000 		movw	r0, #:lower16:strbuffer
 824 0388 C0F20000 		movt	r0, #:upper16:strbuffer
 825 038c FFF7FEFF 		bl	UART_PutString
 826 0390 21E3     		b	.L58
 827              	.L30:
 828              	.LBE6:
 168:.\main.c      ****         }
 169:.\main.c      ****         
 170:.\main.c      ****         // Messages of the form "CSSx" (x integer) change steady state throttle to x
 171:.\main.c      ****          else if (strcmp(msgPrefix, "CSS") == 0) {
 829              		.loc 1 171 0
 830 0392 07F13803 		add	r3, r7, #56
 831 0396 1846     		mov	r0, r3
 832 0398 40F20001 		movw	r1, #:lower16:.LC22
 833 039c C0F20001 		movt	r1, #:upper16:.LC22
 834 03a0 FFF7FEFF 		bl	strcmp
 835 03a4 0346     		mov	r3, r0
 836 03a6 002B     		cmp	r3, #0
 837 03a8 2BD1     		bne	.L32
 838              	.LBB7:
 172:.\main.c      ****             int value = 0;
 839              		.loc 1 172 0
 840 03aa 4FF00003 		mov	r3, #0
 841 03ae 3B62     		str	r3, [r7, #32]
 173:.\main.c      ****             if (sscanf(message + prefixLen, "%i", &value) > 0) {
 842              		.loc 1 173 0
 843 03b0 FA6B     		ldr	r2, [r7, #60]
 844 03b2 7B68     		ldr	r3, [r7, #4]
 845 03b4 1A44     		add	r2, r2, r3
 846 03b6 07F12003 		add	r3, r7, #32
 847 03ba 1046     		mov	r0, r2
 848 03bc 40F20001 		movw	r1, #:lower16:.LC2
 849 03c0 C0F20001 		movt	r1, #:upper16:.LC2
 850 03c4 1A46     		mov	r2, r3
 851 03c6 FFF7FEFF 		bl	sscanf
 852 03ca 0346     		mov	r3, r0
 853 03cc 002B     		cmp	r3, #0
 854 03ce 03DD     		ble	.L33
 174:.\main.c      ****                 SpeedControl_setSteadyStateThrottle(value);
 855              		.loc 1 174 0
 856 03d0 3B6A     		ldr	r3, [r7, #32]
 857 03d2 1846     		mov	r0, r3
 858 03d4 FFF7FEFF 		bl	SpeedControl_setSteadyStateThrottle
 859              	.L33:
ARM GAS  C:\Users\bccho\AppData\Local\Temp\ccBO8fce.s 			page 21


 175:.\main.c      ****             }
 176:.\main.c      ****             
 177:.\main.c      ****             sprintf(strbuffer, "SS Throttle = %i\n", SpeedControl_getSteadyStateThrottle());
 860              		.loc 1 177 0
 861 03d8 FFF7FEFF 		bl	SpeedControl_getSteadyStateThrottle
 862 03dc 0346     		mov	r3, r0
 863 03de 40F20000 		movw	r0, #:lower16:strbuffer
 864 03e2 C0F20000 		movt	r0, #:upper16:strbuffer
 865 03e6 40F20001 		movw	r1, #:lower16:.LC23
 866 03ea C0F20001 		movt	r1, #:upper16:.LC23
 867 03ee 1A46     		mov	r2, r3
 868 03f0 FFF7FEFF 		bl	sprintf
 178:.\main.c      ****             UART_PutString(strbuffer);
 869              		.loc 1 178 0
 870 03f4 40F20000 		movw	r0, #:lower16:strbuffer
 871 03f8 C0F20000 		movt	r0, #:upper16:strbuffer
 872 03fc FFF7FEFF 		bl	UART_PutString
 873 0400 E9E2     		b	.L58
 874              	.L32:
 875              	.LBE7:
 179:.\main.c      ****         }
 180:.\main.c      ****         
 181:.\main.c      ****         // Messages of the form "CTSx" (x float) change target speed to x ft/s
 182:.\main.c      ****         else if (strcmp(msgPrefix, "CTS") == 0) {
 876              		.loc 1 182 0
 877 0402 07F13803 		add	r3, r7, #56
 878 0406 1846     		mov	r0, r3
 879 0408 40F20001 		movw	r1, #:lower16:.LC24
 880 040c C0F20001 		movt	r1, #:upper16:.LC24
 881 0410 FFF7FEFF 		bl	strcmp
 882 0414 0346     		mov	r3, r0
 883 0416 002B     		cmp	r3, #0
 884 0418 30D1     		bne	.L34
 885              	.LBB8:
 183:.\main.c      ****             double value = 0;
 886              		.loc 1 183 0
 887 041a 4FF00002 		mov	r2, #0
 888 041e 4FF00003 		mov	r3, #0
 889 0422 C7E90623 		strd	r2, [r7, #24]
 184:.\main.c      ****             if (sscanf(message + prefixLen, "%lf", &value) > 0) {
 890              		.loc 1 184 0
 891 0426 FA6B     		ldr	r2, [r7, #60]
 892 0428 7B68     		ldr	r3, [r7, #4]
 893 042a 1A44     		add	r2, r2, r3
 894 042c 07F11803 		add	r3, r7, #24
 895 0430 1046     		mov	r0, r2
 896 0432 40F20001 		movw	r1, #:lower16:.LC18
 897 0436 C0F20001 		movt	r1, #:upper16:.LC18
 898 043a 1A46     		mov	r2, r3
 899 043c FFF7FEFF 		bl	sscanf
 900 0440 0346     		mov	r3, r0
 901 0442 002B     		cmp	r3, #0
 902 0444 05DD     		ble	.L35
 185:.\main.c      ****                 SpeedControl_setTargetSpeed(value);
 903              		.loc 1 185 0
 904 0446 D7E90623 		ldrd	r2, [r7, #24]
 905 044a 1046     		mov	r0, r2
ARM GAS  C:\Users\bccho\AppData\Local\Temp\ccBO8fce.s 			page 22


 906 044c 1946     		mov	r1, r3
 907 044e FFF7FEFF 		bl	SpeedControl_setTargetSpeed
 908              	.L35:
 186:.\main.c      ****             }
 187:.\main.c      ****             
 188:.\main.c      ****             sprintf(strbuffer, "Target Speed = %f ft/s\n", SpeedControl_getTargetSpeed());
 909              		.loc 1 188 0
 910 0452 FFF7FEFF 		bl	SpeedControl_getTargetSpeed
 911 0456 0246     		mov	r2, r0
 912 0458 0B46     		mov	r3, r1
 913 045a 40F20000 		movw	r0, #:lower16:strbuffer
 914 045e C0F20000 		movt	r0, #:upper16:strbuffer
 915 0462 40F20001 		movw	r1, #:lower16:.LC25
 916 0466 C0F20001 		movt	r1, #:upper16:.LC25
 917 046a FFF7FEFF 		bl	sprintf
 189:.\main.c      ****             UART_PutString(strbuffer);
 918              		.loc 1 189 0
 919 046e 40F20000 		movw	r0, #:lower16:strbuffer
 920 0472 C0F20000 		movt	r0, #:upper16:strbuffer
 921 0476 FFF7FEFF 		bl	UART_PutString
 922 047a ACE2     		b	.L58
 923              	.L34:
 924              	.LBE8:
 190:.\main.c      ****         }
 191:.\main.c      ****         
 192:.\main.c      ****         // Messages of the form "CTDx" (x float) change target distance to x ft
 193:.\main.c      ****         else if (strcmp(msgPrefix, "CTD") == 0) {
 925              		.loc 1 193 0
 926 047c 07F13803 		add	r3, r7, #56
 927 0480 1846     		mov	r0, r3
 928 0482 40F20001 		movw	r1, #:lower16:.LC26
 929 0486 C0F20001 		movt	r1, #:upper16:.LC26
 930 048a FFF7FEFF 		bl	strcmp
 931 048e 0346     		mov	r3, r0
 932 0490 002B     		cmp	r3, #0
 933 0492 30D1     		bne	.L36
 934              	.LBB9:
 194:.\main.c      ****             double value = 0;
 935              		.loc 1 194 0
 936 0494 4FF00002 		mov	r2, #0
 937 0498 4FF00003 		mov	r3, #0
 938 049c C7E90423 		strd	r2, [r7, #16]
 195:.\main.c      ****             if (sscanf(message + prefixLen, "%lf", &value) > 0) {
 939              		.loc 1 195 0
 940 04a0 FA6B     		ldr	r2, [r7, #60]
 941 04a2 7B68     		ldr	r3, [r7, #4]
 942 04a4 1A44     		add	r2, r2, r3
 943 04a6 07F11003 		add	r3, r7, #16
 944 04aa 1046     		mov	r0, r2
 945 04ac 40F20001 		movw	r1, #:lower16:.LC18
 946 04b0 C0F20001 		movt	r1, #:upper16:.LC18
 947 04b4 1A46     		mov	r2, r3
 948 04b6 FFF7FEFF 		bl	sscanf
 949 04ba 0346     		mov	r3, r0
 950 04bc 002B     		cmp	r3, #0
 951 04be 05DD     		ble	.L37
 196:.\main.c      ****                 SpeedControl_setTargetDistance(value);
ARM GAS  C:\Users\bccho\AppData\Local\Temp\ccBO8fce.s 			page 23


 952              		.loc 1 196 0
 953 04c0 D7E90423 		ldrd	r2, [r7, #16]
 954 04c4 1046     		mov	r0, r2
 955 04c6 1946     		mov	r1, r3
 956 04c8 FFF7FEFF 		bl	SpeedControl_setTargetDistance
 957              	.L37:
 197:.\main.c      ****             }
 198:.\main.c      ****             
 199:.\main.c      ****             sprintf(strbuffer, "Target distance = %.2f ft\n", SpeedControl_getTargetDistance());
 958              		.loc 1 199 0
 959 04cc FFF7FEFF 		bl	SpeedControl_getTargetDistance
 960 04d0 0246     		mov	r2, r0
 961 04d2 0B46     		mov	r3, r1
 962 04d4 40F20000 		movw	r0, #:lower16:strbuffer
 963 04d8 C0F20000 		movt	r0, #:upper16:strbuffer
 964 04dc 40F20001 		movw	r1, #:lower16:.LC27
 965 04e0 C0F20001 		movt	r1, #:upper16:.LC27
 966 04e4 FFF7FEFF 		bl	sprintf
 200:.\main.c      ****             UART_PutString(strbuffer);
 967              		.loc 1 200 0
 968 04e8 40F20000 		movw	r0, #:lower16:strbuffer
 969 04ec C0F20000 		movt	r0, #:upper16:strbuffer
 970 04f0 FFF7FEFF 		bl	UART_PutString
 971 04f4 6FE2     		b	.L58
 972              	.L36:
 973              	.LBE9:
 201:.\main.c      ****         }
 202:.\main.c      ****         
 203:.\main.c      ****         // Message of the form "TVP" toggle verbose printout for speed PID control
 204:.\main.c      ****         else if (strcmp(msgPrefix, "TVP") == 0) {
 974              		.loc 1 204 0
 975 04f6 07F13803 		add	r3, r7, #56
 976 04fa 1846     		mov	r0, r3
 977 04fc 40F20001 		movw	r1, #:lower16:.LC28
 978 0500 C0F20001 		movt	r1, #:upper16:.LC28
 979 0504 FFF7FEFF 		bl	strcmp
 980 0508 0346     		mov	r3, r0
 981 050a 002B     		cmp	r3, #0
 982 050c 1CD1     		bne	.L38
 205:.\main.c      ****             if (!SpeedControl_isVerbosePrintoutEnabled()) {
 983              		.loc 1 205 0
 984 050e FFF7FEFF 		bl	SpeedControl_isVerbosePrintoutEnabled
 985 0512 0346     		mov	r3, r0
 986 0514 002B     		cmp	r3, #0
 987 0516 02D1     		bne	.L39
 206:.\main.c      ****                 SpeedControl_enableVerbosePrintout();
 988              		.loc 1 206 0
 989 0518 FFF7FEFF 		bl	SpeedControl_enableVerbosePrintout
 990 051c 01E0     		b	.L40
 991              	.L39:
 207:.\main.c      ****             } else {
 208:.\main.c      ****                 SpeedControl_disableVerbosePrintout();
 992              		.loc 1 208 0
 993 051e FFF7FEFF 		bl	SpeedControl_disableVerbosePrintout
 994              	.L40:
 209:.\main.c      ****             }
 210:.\main.c      ****             if (SpeedControl_isVerbosePrintoutEnabled()) {
ARM GAS  C:\Users\bccho\AppData\Local\Temp\ccBO8fce.s 			page 24


 995              		.loc 1 210 0
 996 0522 FFF7FEFF 		bl	SpeedControl_isVerbosePrintoutEnabled
 997 0526 0346     		mov	r3, r0
 998 0528 002B     		cmp	r3, #0
 999 052a 06D0     		beq	.L41
 211:.\main.c      ****                 UART_PutString("Verbose printout on\n");
 1000              		.loc 1 211 0
 1001 052c 40F20000 		movw	r0, #:lower16:.LC29
 1002 0530 C0F20000 		movt	r0, #:upper16:.LC29
 1003 0534 FFF7FEFF 		bl	UART_PutString
 212:.\main.c      ****             } else {
 213:.\main.c      ****                 UART_PutString("Verbose printout off\n");
 1004              		.loc 1 213 0
 1005 0538 4DE2     		b	.L58
 1006              	.L41:
 1007 053a 40F20000 		movw	r0, #:lower16:.LC30
 1008 053e C0F20000 		movt	r0, #:upper16:.LC30
 1009 0542 FFF7FEFF 		bl	UART_PutString
 1010 0546 46E2     		b	.L58
 1011              	.L38:
 214:.\main.c      ****             }
 215:.\main.c      ****         }
 216:.\main.c      ****         
 217:.\main.c      ****         // Messages starting with "A" will abort
 218:.\main.c      ****         else if (strcmp(msgPrefix, "A") == 0) {
 1012              		.loc 1 218 0
 1013 0548 07F13803 		add	r3, r7, #56
 1014 054c 1846     		mov	r0, r3
 1015 054e 40F20001 		movw	r1, #:lower16:.LC31
 1016 0552 C0F20001 		movt	r1, #:upper16:.LC31
 1017 0556 FFF7FEFF 		bl	strcmp
 1018 055a 0346     		mov	r3, r0
 1019 055c 002B     		cmp	r3, #0
 1020 055e 02D1     		bne	.L43
 219:.\main.c      ****             SpeedControl_kill();
 1021              		.loc 1 219 0
 1022 0560 FFF7FEFF 		bl	SpeedControl_kill
 1023 0564 37E2     		b	.L58
 1024              	.L43:
 220:.\main.c      ****         }
 221:.\main.c      ****         
 222:.\main.c      ****         
 223:.\main.c      ****         
 224:.\main.c      ****         
 225:.\main.c      ****         
 226:.\main.c      ****         
 227:.\main.c      ****         
 228:.\main.c      ****         
 229:.\main.c      ****         
 230:.\main.c      ****         
 231:.\main.c      ****         
 232:.\main.c      ****         
 233:.\main.c      ****         
 234:.\main.c      ****         
 235:.\main.c      ****         
 236:.\main.c      ****         // Messages of the form "GC" retun all camera variables
 237:.\main.c      ****         else if (strcmp(msgPrefix, "GC") == 0) {
ARM GAS  C:\Users\bccho\AppData\Local\Temp\ccBO8fce.s 			page 25


 1025              		.loc 1 237 0
 1026 0566 07F13803 		add	r3, r7, #56
 1027 056a 1846     		mov	r0, r3
 1028 056c 40F20001 		movw	r1, #:lower16:.LC32
 1029 0570 C0F20001 		movt	r1, #:upper16:.LC32
 1030 0574 FFF7FEFF 		bl	strcmp
 1031 0578 0346     		mov	r3, r0
 1032 057a 002B     		cmp	r3, #0
 1033 057c 3CD1     		bne	.L44
 238:.\main.c      ****             sprintf(strbuffer, "Frame count = %d\nRow count = %d\nComparator counts (begin) = %d\nC
 1034              		.loc 1 238 0
 1035 057e 40F20003 		movw	r3, #:lower16:numFrames
 1036 0582 C0F20003 		movt	r3, #:upper16:numFrames
 1037 0586 1A68     		ldr	r2, [r3, #0]
 1038 0588 40F20003 		movw	r3, #:lower16:numRows
 1039 058c C0F20003 		movt	r3, #:upper16:numRows
 1040 0590 D3F800C0 		ldr	ip, [r3, #0]
 1041 0594 40F20003 		movw	r3, #:lower16:numCompBegin
 1042 0598 C0F20003 		movt	r3, #:upper16:numCompBegin
 1043 059c 1C68     		ldr	r4, [r3, #0]
 1044 059e 40F20003 		movw	r3, #:lower16:numCompEnd
 1045 05a2 C0F20003 		movt	r3, #:upper16:numCompEnd
 1046 05a6 D3F800E0 		ldr	lr, [r3, #0]
 1047 05aa 40F20003 		movw	r3, #:lower16:rowCycles
 1048 05ae C0F20003 		movt	r3, #:upper16:rowCycles
 1049 05b2 1868     		ldr	r0, [r3, #0]
 1050 05b4 40F20003 		movw	r3, #:lower16:lineBeginCycles
 1051 05b8 C0F20003 		movt	r3, #:upper16:lineBeginCycles
 1052 05bc 1968     		ldr	r1, [r3, #0]
 1053 05be 40F20003 		movw	r3, #:lower16:lineEndCycles
 1054 05c2 C0F20003 		movt	r3, #:upper16:lineEndCycles
 1055 05c6 1B68     		ldr	r3, [r3, #0]
 1056 05c8 0094     		str	r4, [sp, #0]
 1057 05ca CDF804E0 		str	lr, [sp, #4]
 1058 05ce 0290     		str	r0, [sp, #8]
 1059 05d0 0391     		str	r1, [sp, #12]
 1060 05d2 0493     		str	r3, [sp, #16]
 1061 05d4 40F20000 		movw	r0, #:lower16:strbuffer
 1062 05d8 C0F20000 		movt	r0, #:upper16:strbuffer
 1063 05dc 40F20001 		movw	r1, #:lower16:.LC33
 1064 05e0 C0F20001 		movt	r1, #:upper16:.LC33
 1065 05e4 6346     		mov	r3, ip
 1066 05e6 FFF7FEFF 		bl	sprintf
 239:.\main.c      ****                     numFrames, numRows, numCompBegin, numCompEnd, rowCycles, lineBeginCycles, lineE
 240:.\main.c      ****             UART_PutString(strbuffer);
 1067              		.loc 1 240 0
 1068 05ea 40F20000 		movw	r0, #:lower16:strbuffer
 1069 05ee C0F20000 		movt	r0, #:upper16:strbuffer
 1070 05f2 FFF7FEFF 		bl	UART_PutString
 1071 05f6 EEE1     		b	.L58
 1072              	.L44:
 241:.\main.c      ****         }
 242:.\main.c      ****         
 243:.\main.c      ****         // Messages of the form "GT" retun all test variables
 244:.\main.c      ****         else if (strcmp(msgPrefix, "GT") == 0) {
 1073              		.loc 1 244 0
 1074 05f8 07F13803 		add	r3, r7, #56
ARM GAS  C:\Users\bccho\AppData\Local\Temp\ccBO8fce.s 			page 26


 1075 05fc 1846     		mov	r0, r3
 1076 05fe 40F20001 		movw	r1, #:lower16:.LC34
 1077 0602 C0F20001 		movt	r1, #:upper16:.LC34
 1078 0606 FFF7FEFF 		bl	strcmp
 1079 060a 0346     		mov	r3, r0
 1080 060c 002B     		cmp	r3, #0
 1081 060e 5AD1     		bne	.L45
 245:.\main.c      ****             sprintf(strbuffer, "Frame count = %d\nComparator counts (begin) = %d\nComparator counts
 1082              		.loc 1 245 0
 1083 0610 40F20003 		movw	r3, #:lower16:numFrames
 1084 0614 C0F20003 		movt	r3, #:upper16:numFrames
 1085 0618 1A68     		ldr	r2, [r3, #0]
 1086 061a 40F20003 		movw	r3, #:lower16:numCompBegin
 1087 061e C0F20003 		movt	r3, #:upper16:numCompBegin
 1088 0622 D3F800C0 		ldr	ip, [r3, #0]
 1089 0626 40F20003 		movw	r3, #:lower16:numCompEnd
 1090 062a C0F20003 		movt	r3, #:upper16:numCompEnd
 1091 062e 1868     		ldr	r0, [r3, #0]
 1092 0630 40F20003 		movw	r3, #:lower16:lineBeginCycles
 1093 0634 C0F20003 		movt	r3, #:upper16:lineBeginCycles
 1094 0638 1968     		ldr	r1, [r3, #0]
 1095 063a 40F20003 		movw	r3, #:lower16:lineEndCycles
 1096 063e C0F20003 		movt	r3, #:upper16:lineEndCycles
 1097 0642 1B68     		ldr	r3, [r3, #0]
 1098 0644 0090     		str	r0, [sp, #0]
 1099 0646 0191     		str	r1, [sp, #4]
 1100 0648 0293     		str	r3, [sp, #8]
 1101 064a 40F20000 		movw	r0, #:lower16:strbuffer
 1102 064e C0F20000 		movt	r0, #:upper16:strbuffer
 1103 0652 40F20001 		movw	r1, #:lower16:.LC35
 1104 0656 C0F20001 		movt	r1, #:upper16:.LC35
 1105 065a 6346     		mov	r3, ip
 1106 065c FFF7FEFF 		bl	sprintf
 246:.\main.c      ****                     numFrames, numCompBegin, numCompEnd, lineBeginCycles, lineEndCycles);
 247:.\main.c      ****             UART_PutString(strbuffer);
 1107              		.loc 1 247 0
 1108 0660 40F20000 		movw	r0, #:lower16:strbuffer
 1109 0664 C0F20000 		movt	r0, #:upper16:strbuffer
 1110 0668 FFF7FEFF 		bl	UART_PutString
 248:.\main.c      ****             sprintf(strbuffer, "6: %d\n7: %d\n9: %d\nLine mid: %f\n", test6, test7, test9, lineMid)
 1111              		.loc 1 248 0
 1112 066c 40F20003 		movw	r3, #:lower16:test6
 1113 0670 C0F20003 		movt	r3, #:upper16:test6
 1114 0674 D3F800E0 		ldr	lr, [r3, #0]
 1115 0678 40F20003 		movw	r3, #:lower16:test7
 1116 067c C0F20003 		movt	r3, #:upper16:test7
 1117 0680 D3F800C0 		ldr	ip, [r3, #0]
 1118 0684 40F20003 		movw	r3, #:lower16:test9
 1119 0688 C0F20003 		movt	r3, #:upper16:test9
 1120 068c 1968     		ldr	r1, [r3, #0]
 1121 068e 40F20003 		movw	r3, #:lower16:lineMid
 1122 0692 C0F20003 		movt	r3, #:upper16:lineMid
 1123 0696 D3E90023 		ldrd	r2, [r3]
 1124 069a 0091     		str	r1, [sp, #0]
 1125 069c CDE90223 		strd	r2, [sp, #8]
 1126 06a0 40F20000 		movw	r0, #:lower16:strbuffer
 1127 06a4 C0F20000 		movt	r0, #:upper16:strbuffer
ARM GAS  C:\Users\bccho\AppData\Local\Temp\ccBO8fce.s 			page 27


 1128 06a8 40F20001 		movw	r1, #:lower16:.LC36
 1129 06ac C0F20001 		movt	r1, #:upper16:.LC36
 1130 06b0 7246     		mov	r2, lr
 1131 06b2 6346     		mov	r3, ip
 1132 06b4 FFF7FEFF 		bl	sprintf
 249:.\main.c      ****             UART_PutString(strbuffer);
 1133              		.loc 1 249 0
 1134 06b8 40F20000 		movw	r0, #:lower16:strbuffer
 1135 06bc C0F20000 		movt	r0, #:upper16:strbuffer
 1136 06c0 FFF7FEFF 		bl	UART_PutString
 1137 06c4 87E1     		b	.L58
 1138              	.L45:
 250:.\main.c      ****         }
 251:.\main.c      ****         
 252:.\main.c      ****         // Messages of the form "RC" resets camera variables
 253:.\main.c      ****         else if (strcmp(msgPrefix, "RC") == 0) {
 1139              		.loc 1 253 0
 1140 06c6 07F13803 		add	r3, r7, #56
 1141 06ca 1846     		mov	r0, r3
 1142 06cc 40F20001 		movw	r1, #:lower16:.LC37
 1143 06d0 C0F20001 		movt	r1, #:upper16:.LC37
 1144 06d4 FFF7FEFF 		bl	strcmp
 1145 06d8 0346     		mov	r3, r0
 1146 06da 002B     		cmp	r3, #0
 1147 06dc 37D1     		bne	.L46
 254:.\main.c      ****             numCompBegin = 0;
 1148              		.loc 1 254 0
 1149 06de 40F20003 		movw	r3, #:lower16:numCompBegin
 1150 06e2 C0F20003 		movt	r3, #:upper16:numCompBegin
 1151 06e6 4FF00002 		mov	r2, #0
 1152 06ea 1A60     		str	r2, [r3, #0]
 255:.\main.c      ****             numCompEnd = 0;
 1153              		.loc 1 255 0
 1154 06ec 40F20003 		movw	r3, #:lower16:numCompEnd
 1155 06f0 C0F20003 		movt	r3, #:upper16:numCompEnd
 1156 06f4 4FF00002 		mov	r2, #0
 1157 06f8 1A60     		str	r2, [r3, #0]
 256:.\main.c      ****             numFrames = 0;
 1158              		.loc 1 256 0
 1159 06fa 40F20003 		movw	r3, #:lower16:numFrames
 1160 06fe C0F20003 		movt	r3, #:upper16:numFrames
 1161 0702 4FF00002 		mov	r2, #0
 1162 0706 1A60     		str	r2, [r3, #0]
 257:.\main.c      ****             numRows = 0;
 1163              		.loc 1 257 0
 1164 0708 40F20003 		movw	r3, #:lower16:numRows
 1165 070c C0F20003 		movt	r3, #:upper16:numRows
 1166 0710 4FF00002 		mov	r2, #0
 1167 0714 1A60     		str	r2, [r3, #0]
 258:.\main.c      ****             
 259:.\main.c      ****             rowCycles = 0;
 1168              		.loc 1 259 0
 1169 0716 40F20003 		movw	r3, #:lower16:rowCycles
 1170 071a C0F20003 		movt	r3, #:upper16:rowCycles
 1171 071e 4FF00002 		mov	r2, #0
 1172 0722 1A60     		str	r2, [r3, #0]
 260:.\main.c      ****             lineBeginCycles = 0;
ARM GAS  C:\Users\bccho\AppData\Local\Temp\ccBO8fce.s 			page 28


 1173              		.loc 1 260 0
 1174 0724 40F20003 		movw	r3, #:lower16:lineBeginCycles
 1175 0728 C0F20003 		movt	r3, #:upper16:lineBeginCycles
 1176 072c 4FF00002 		mov	r2, #0
 1177 0730 1A60     		str	r2, [r3, #0]
 261:.\main.c      ****             lineEndCycles = 0;
 1178              		.loc 1 261 0
 1179 0732 40F20003 		movw	r3, #:lower16:lineEndCycles
 1180 0736 C0F20003 		movt	r3, #:upper16:lineEndCycles
 1181 073a 4FF00002 		mov	r2, #0
 1182 073e 1A60     		str	r2, [r3, #0]
 262:.\main.c      ****             
 263:.\main.c      ****             UART_PutString("Camera variables reset\n");
 1183              		.loc 1 263 0
 1184 0740 40F20000 		movw	r0, #:lower16:.LC38
 1185 0744 C0F20000 		movt	r0, #:upper16:.LC38
 1186 0748 FFF7FEFF 		bl	UART_PutString
 1187 074c 43E1     		b	.L58
 1188              	.L46:
 264:.\main.c      ****         }
 265:.\main.c      ****         
 266:.\main.c      ****         // Messages of the form "CSx" change servo direction to x (0 is full left, 1 is full right)
 267:.\main.c      ****         else if (strcmp(msgPrefix, "CS") == 0) {
 1189              		.loc 1 267 0
 1190 074e 07F13803 		add	r3, r7, #56
 1191 0752 1846     		mov	r0, r3
 1192 0754 40F20001 		movw	r1, #:lower16:.LC39
 1193 0758 C0F20001 		movt	r1, #:upper16:.LC39
 1194 075c FFF7FEFF 		bl	strcmp
 1195 0760 0346     		mov	r3, r0
 1196 0762 002B     		cmp	r3, #0
 1197 0764 40F03781 		bne	.L58
 1198              	.LBB10:
 268:.\main.c      ****             double value = 0;
 1199              		.loc 1 268 0
 1200 0768 4FF00002 		mov	r2, #0
 1201 076c 4FF00003 		mov	r3, #0
 1202 0770 C7E90223 		strd	r2, [r7, #8]
 269:.\main.c      ****             if (sscanf(message + prefixLen, "%lf", &value) > 0) {
 1203              		.loc 1 269 0
 1204 0774 FA6B     		ldr	r2, [r7, #60]
 1205 0776 7B68     		ldr	r3, [r7, #4]
 1206 0778 1A44     		add	r2, r2, r3
 1207 077a 07F10803 		add	r3, r7, #8
 1208 077e 1046     		mov	r0, r2
 1209 0780 40F20001 		movw	r1, #:lower16:.LC18
 1210 0784 C0F20001 		movt	r1, #:upper16:.LC18
 1211 0788 1A46     		mov	r2, r3
 1212 078a FFF7FEFF 		bl	sscanf
 1213 078e 0346     		mov	r3, r0
 1214 0790 002B     		cmp	r3, #0
 1215 0792 40F3C680 		ble	.L47
 1216              	.LBB11:
 270:.\main.c      ****                 if (value > 1) value = 1;
 1217              		.loc 1 270 0
 1218 0796 D7E90223 		ldrd	r2, [r7, #8]
 1219 079a 4FF00001 		mov	r1, #0
ARM GAS  C:\Users\bccho\AppData\Local\Temp\ccBO8fce.s 			page 29


 1220 079e 0C46     		mov	r4, r1
 1221 07a0 1046     		mov	r0, r2
 1222 07a2 1946     		mov	r1, r3
 1223 07a4 4FF00002 		mov	r2, #0
 1224 07a8 4FF07E53 		mov	r3, #1065353216
 1225 07ac 03F5E003 		add	r3, r3, #7340032
 1226 07b0 FFF7FEFF 		bl	__aeabi_dcmpgt
 1227 07b4 0346     		mov	r3, r0
 1228 07b6 002B     		cmp	r3, #0
 1229 07b8 02D0     		beq	.L48
 1230              	.L49:
 1231 07ba 4FF00103 		mov	r3, #1
 1232 07be 1C46     		mov	r4, r3
 1233              	.L48:
 1234 07c0 E3B2     		uxtb	r3, r4
 1235 07c2 002B     		cmp	r3, #0
 1236 07c4 07D0     		beq	.L50
 1237 07c6 4FF00002 		mov	r2, #0
 1238 07ca 4FF07E53 		mov	r3, #1065353216
 1239 07ce 03F5E003 		add	r3, r3, #7340032
 1240 07d2 C7E90223 		strd	r2, [r7, #8]
 1241              	.L50:
 271:.\main.c      ****                 if (value < 0) value = 0;
 1242              		.loc 1 271 0
 1243 07d6 D7E90223 		ldrd	r2, [r7, #8]
 1244 07da 4FF00001 		mov	r1, #0
 1245 07de 0C46     		mov	r4, r1
 1246 07e0 1046     		mov	r0, r2
 1247 07e2 1946     		mov	r1, r3
 1248 07e4 4FF00002 		mov	r2, #0
 1249 07e8 4FF00003 		mov	r3, #0
 1250 07ec FFF7FEFF 		bl	__aeabi_dcmplt
 1251 07f0 0346     		mov	r3, r0
 1252 07f2 002B     		cmp	r3, #0
 1253 07f4 02D0     		beq	.L51
 1254              	.L52:
 1255 07f6 4FF00103 		mov	r3, #1
 1256 07fa 1C46     		mov	r4, r3
 1257              	.L51:
 1258 07fc E3B2     		uxtb	r3, r4
 1259 07fe 002B     		cmp	r3, #0
 1260 0800 05D0     		beq	.L53
 1261 0802 4FF00002 		mov	r2, #0
 1262 0806 4FF00003 		mov	r3, #0
 1263 080a C7E90223 		strd	r2, [r7, #8]
 1264              	.L53:
 272:.\main.c      ****                 double servoTime = MIN_TIME_SERVO + (MAX_TIME_SERVO - MIN_TIME_SERVO) * value;
 1265              		.loc 1 272 0
 1266 080e 40F20003 		movw	r3, #:lower16:MAX_TIME_SERVO
 1267 0812 C0F20003 		movt	r3, #:upper16:MAX_TIME_SERVO
 1268 0816 D3E90001 		ldrd	r0, [r3]
 1269 081a 40F20003 		movw	r3, #:lower16:MIN_TIME_SERVO
 1270 081e C0F20003 		movt	r3, #:upper16:MIN_TIME_SERVO
 1271 0822 D3E90023 		ldrd	r2, [r3]
 1272 0826 FFF7FEFF 		bl	__aeabi_dsub
 1273 082a 0246     		mov	r2, r0
 1274 082c 0B46     		mov	r3, r1
ARM GAS  C:\Users\bccho\AppData\Local\Temp\ccBO8fce.s 			page 30


 1275 082e 1046     		mov	r0, r2
 1276 0830 1946     		mov	r1, r3
 1277 0832 D7E90223 		ldrd	r2, [r7, #8]
 1278 0836 FFF7FEFF 		bl	__aeabi_dmul
 1279 083a 0246     		mov	r2, r0
 1280 083c 0B46     		mov	r3, r1
 1281 083e 1046     		mov	r0, r2
 1282 0840 1946     		mov	r1, r3
 1283 0842 40F20003 		movw	r3, #:lower16:MIN_TIME_SERVO
 1284 0846 C0F20003 		movt	r3, #:upper16:MIN_TIME_SERVO
 1285 084a D3E90023 		ldrd	r2, [r3]
 1286 084e FFF7FEFF 		bl	__aeabi_dadd
 1287 0852 0246     		mov	r2, r0
 1288 0854 0B46     		mov	r3, r1
 1289 0856 C7E91423 		strd	r2, [r7, #80]
 273:.\main.c      ****                 double servoPeriod = servoTime * MAIN_CLK_FREQ;
 1290              		.loc 1 273 0
 1291 085a 40F20003 		movw	r3, #:lower16:MAIN_CLK_FREQ
 1292 085e C0F20003 		movt	r3, #:upper16:MAIN_CLK_FREQ
 1293 0862 D3E90023 		ldrd	r2, [r3]
 1294 0866 D7E91401 		ldrd	r0, [r7, #80]
 1295 086a FFF7FEFF 		bl	__aeabi_dmul
 1296 086e 0246     		mov	r2, r0
 1297 0870 0B46     		mov	r3, r1
 1298 0872 C7E91623 		strd	r2, [r7, #88]
 274:.\main.c      ****                 double midPeriod = 0.5*(MAX_TIME_SERVO + MIN_TIME_SERVO) * MAIN_CLK_FREQ;
 1299              		.loc 1 274 0
 1300 0876 40F20003 		movw	r3, #:lower16:MAX_TIME_SERVO
 1301 087a C0F20003 		movt	r3, #:upper16:MAX_TIME_SERVO
 1302 087e D3E90001 		ldrd	r0, [r3]
 1303 0882 40F20003 		movw	r3, #:lower16:MIN_TIME_SERVO
 1304 0886 C0F20003 		movt	r3, #:upper16:MIN_TIME_SERVO
 1305 088a D3E90023 		ldrd	r2, [r3]
 1306 088e FFF7FEFF 		bl	__aeabi_dadd
 1307 0892 0246     		mov	r2, r0
 1308 0894 0B46     		mov	r3, r1
 1309 0896 1046     		mov	r0, r2
 1310 0898 1946     		mov	r1, r3
 1311 089a 4FF00002 		mov	r2, #0
 1312 089e 4FF07E53 		mov	r3, #1065353216
 1313 08a2 03F5C003 		add	r3, r3, #6291456
 1314 08a6 FFF7FEFF 		bl	__aeabi_dmul
 1315 08aa 0246     		mov	r2, r0
 1316 08ac 0B46     		mov	r3, r1
 1317 08ae 1046     		mov	r0, r2
 1318 08b0 1946     		mov	r1, r3
 1319 08b2 40F20003 		movw	r3, #:lower16:MAIN_CLK_FREQ
 1320 08b6 C0F20003 		movt	r3, #:upper16:MAIN_CLK_FREQ
 1321 08ba D3E90023 		ldrd	r2, [r3]
 1322 08be FFF7FEFF 		bl	__aeabi_dmul
 1323 08c2 0246     		mov	r2, r0
 1324 08c4 0B46     		mov	r3, r1
 1325 08c6 C7E91823 		strd	r2, [r7, #96]
 275:.\main.c      ****                 if (servoPeriod > midPeriod) servoPeriod = floor(servoPeriod);
 1326              		.loc 1 275 0
 1327 08ca 4FF00003 		mov	r3, #0
 1328 08ce 1C46     		mov	r4, r3
ARM GAS  C:\Users\bccho\AppData\Local\Temp\ccBO8fce.s 			page 31


 1329 08d0 D7E91601 		ldrd	r0, [r7, #88]
 1330 08d4 D7E91823 		ldrd	r2, [r7, #96]
 1331 08d8 FFF7FEFF 		bl	__aeabi_dcmpgt
 1332 08dc 0346     		mov	r3, r0
 1333 08de 002B     		cmp	r3, #0
 1334 08e0 02D0     		beq	.L54
 1335              	.L55:
 1336 08e2 4FF00103 		mov	r3, #1
 1337 08e6 1C46     		mov	r4, r3
 1338              	.L54:
 1339 08e8 E3B2     		uxtb	r3, r4
 1340 08ea 002B     		cmp	r3, #0
 1341 08ec 08D0     		beq	.L56
 1342 08ee D7E91601 		ldrd	r0, [r7, #88]
 1343 08f2 FFF7FEFF 		bl	floor
 1344 08f6 0246     		mov	r2, r0
 1345 08f8 0B46     		mov	r3, r1
 1346 08fa C7E91623 		strd	r2, [r7, #88]
 1347 08fe 07E0     		b	.L57
 1348              	.L56:
 276:.\main.c      ****                 else servoPeriod = ceil(servoPeriod);
 1349              		.loc 1 276 0
 1350 0900 D7E91601 		ldrd	r0, [r7, #88]
 1351 0904 FFF7FEFF 		bl	ceil
 1352 0908 0246     		mov	r2, r0
 1353 090a 0B46     		mov	r3, r1
 1354 090c C7E91623 		strd	r2, [r7, #88]
 1355              	.L57:
 277:.\main.c      ****                 PWM_Servo_WriteCompare(servoPeriod);
 1356              		.loc 1 277 0
 1357 0910 D7E91601 		ldrd	r0, [r7, #88]
 1358 0914 FFF7FEFF 		bl	__aeabi_d2uiz
 1359 0918 0346     		mov	r3, r0
 1360 091a 9BB2     		uxth	r3, r3
 1361 091c 1846     		mov	r0, r3
 1362 091e FFF7FEFF 		bl	PWM_Servo_WriteCompare
 1363              	.L47:
 1364              	.LBE11:
 278:.\main.c      ****             }
 279:.\main.c      ****             double servoVal = PWM_Servo_ReadCompare() / MAIN_CLK_FREQ;
 1365              		.loc 1 279 0
 1366 0922 46F22A43 		movw	r3, #:lower16:1073767466
 1367 0926 C4F20003 		movt	r3, #:upper16:1073767466
 1368 092a 1B88     		ldrh	r3, [r3, #0]	@ movhi
 1369 092c 9BB2     		uxth	r3, r3
 1370 092e 1846     		mov	r0, r3
 1371 0930 FFF7FEFF 		bl	__aeabi_i2d
 1372 0934 40F20003 		movw	r3, #:lower16:MAIN_CLK_FREQ
 1373 0938 C0F20003 		movt	r3, #:upper16:MAIN_CLK_FREQ
 1374 093c D3E90023 		ldrd	r2, [r3]
 1375 0940 FFF7FEFF 		bl	__aeabi_ddiv
 1376 0944 0246     		mov	r2, r0
 1377 0946 0B46     		mov	r3, r1
 1378 0948 C7E91023 		strd	r2, [r7, #64]
 280:.\main.c      ****             double setVal = (servoVal - MIN_TIME_SERVO) / (MAX_TIME_SERVO - MIN_TIME_SERVO);
 1379              		.loc 1 280 0
 1380 094c 40F20003 		movw	r3, #:lower16:MIN_TIME_SERVO
ARM GAS  C:\Users\bccho\AppData\Local\Temp\ccBO8fce.s 			page 32


 1381 0950 C0F20003 		movt	r3, #:upper16:MIN_TIME_SERVO
 1382 0954 D3E90023 		ldrd	r2, [r3]
 1383 0958 D7E91001 		ldrd	r0, [r7, #64]
 1384 095c FFF7FEFF 		bl	__aeabi_dsub
 1385 0960 0246     		mov	r2, r0
 1386 0962 0B46     		mov	r3, r1
 1387 0964 1446     		mov	r4, r2
 1388 0966 1D46     		mov	r5, r3
 1389 0968 40F20003 		movw	r3, #:lower16:MAX_TIME_SERVO
 1390 096c C0F20003 		movt	r3, #:upper16:MAX_TIME_SERVO
 1391 0970 D3E90001 		ldrd	r0, [r3]
 1392 0974 40F20003 		movw	r3, #:lower16:MIN_TIME_SERVO
 1393 0978 C0F20003 		movt	r3, #:upper16:MIN_TIME_SERVO
 1394 097c D3E90023 		ldrd	r2, [r3]
 1395 0980 FFF7FEFF 		bl	__aeabi_dsub
 1396 0984 0246     		mov	r2, r0
 1397 0986 0B46     		mov	r3, r1
 1398 0988 2046     		mov	r0, r4
 1399 098a 2946     		mov	r1, r5
 1400 098c FFF7FEFF 		bl	__aeabi_ddiv
 1401 0990 0246     		mov	r2, r0
 1402 0992 0B46     		mov	r3, r1
 1403 0994 C7E91223 		strd	r2, [r7, #72]
 281:.\main.c      ****             sprintf(strbuffer, "Servo set to %.3f (%.3f ms)\n", setVal, servoVal*1000);
 1404              		.loc 1 281 0
 1405 0998 D7E91001 		ldrd	r0, [r7, #64]
 1406 099c 10A3     		adr	r3, .L60
 1407 099e D3E90023 		ldrd	r2, [r3]
 1408 09a2 FFF7FEFF 		bl	__aeabi_dmul
 1409 09a6 0246     		mov	r2, r0
 1410 09a8 0B46     		mov	r3, r1
 1411 09aa CDE90023 		strd	r2, [sp]
 1412 09ae 40F20000 		movw	r0, #:lower16:strbuffer
 1413 09b2 C0F20000 		movt	r0, #:upper16:strbuffer
 1414 09b6 40F20001 		movw	r1, #:lower16:.LC40
 1415 09ba C0F20001 		movt	r1, #:upper16:.LC40
 1416 09be D7E91223 		ldrd	r2, [r7, #72]
 1417 09c2 FFF7FEFF 		bl	sprintf
 282:.\main.c      ****             UART_PutString(strbuffer);
 1418              		.loc 1 282 0
 1419 09c6 40F20000 		movw	r0, #:lower16:strbuffer
 1420 09ca C0F20000 		movt	r0, #:upper16:strbuffer
 1421 09ce FFF7FEFF 		bl	UART_PutString
 1422 09d2 00E0     		b	.L58
 1423              	.L59:
 1424              	.LBE10:
 1425              	.LBE2:
 1426              		.loc 1 71 0
 1427 09d4 00BF     		nop
 1428              	.L58:
 283:.\main.c      ****         }
 284:.\main.c      ****     }
 285:.\main.c      **** }
 1429              		.loc 1 285 0
 1430 09d6 07F16C07 		add	r7, r7, #108
 1431 09da BD46     		mov	sp, r7
 1432 09dc BDE8F08F 		pop	{r4, r5, r6, r7, r8, r9, sl, fp, pc}
ARM GAS  C:\Users\bccho\AppData\Local\Temp\ccBO8fce.s 			page 33


 1433              	.L61:
 1434              		.align	3
 1435              	.L60:
 1436 09e0 00000000 		.word	0
 1437 09e4 00408F40 		.word	1083129856
 1438              		.cfi_endproc
 1439              	.LFE31:
 1440              		.size	parseMessage, .-parseMessage
 1441              		.section	.text.button_inter,"ax",%progbits
 1442              		.align	2
 1443              		.global	button_inter
 1444              		.thumb
 1445              		.thumb_func
 1446              		.type	button_inter, %function
 1447              	button_inter:
 1448              	.LFB32:
 286:.\main.c      **** 
 287:.\main.c      **** 
 288:.\main.c      **** /* Button interrupt */
 289:.\main.c      **** CY_ISR(button_inter) {
 1449              		.loc 1 289 0
 1450              		.cfi_startproc
 1451              		@ args = 0, pretend = 0, frame = 0
 1452              		@ frame_needed = 1, uses_anonymous_args = 0
 1453              		@ link register save eliminated.
 1454 0000 80B4     		push	{r7}
 1455              	.LCFI9:
 1456              		.cfi_def_cfa_offset 4
 1457 0002 00AF     		add	r7, sp, #0
 1458              		.cfi_offset 7, -4
 1459              	.LCFI10:
 1460              		.cfi_def_cfa_register 7
 290:.\main.c      **** //    if (buttonInterrupted) {
 291:.\main.c      **** //        UART_PutString("Error 1: Interrupt not handled\n");
 292:.\main.c      **** //    }
 293:.\main.c      ****     buttonInterrupted = 1;
 1461              		.loc 1 293 0
 1462 0004 40F20003 		movw	r3, #:lower16:buttonInterrupted
 1463 0008 C0F20003 		movt	r3, #:upper16:buttonInterrupted
 1464 000c 4FF00102 		mov	r2, #1
 1465 0010 1A60     		str	r2, [r3, #0]
 294:.\main.c      **** }
 1466              		.loc 1 294 0
 1467 0012 BD46     		mov	sp, r7
 1468 0014 80BC     		pop	{r7}
 1469 0016 7047     		bx	lr
 1470              		.cfi_endproc
 1471              	.LFE32:
 1472              		.size	button_inter, .-button_inter
 1473              		.section	.text.rx_inter,"ax",%progbits
 1474              		.align	2
 1475              		.global	rx_inter
 1476              		.thumb
 1477              		.thumb_func
 1478              		.type	rx_inter, %function
 1479              	rx_inter:
 1480              	.LFB33:
ARM GAS  C:\Users\bccho\AppData\Local\Temp\ccBO8fce.s 			page 34


 295:.\main.c      **** 
 296:.\main.c      **** /* Recieved data interrupt */
 297:.\main.c      **** CY_ISR(rx_inter) {
 1481              		.loc 1 297 0
 1482              		.cfi_startproc
 1483              		@ args = 0, pretend = 0, frame = 0
 1484              		@ frame_needed = 1, uses_anonymous_args = 0
 1485              		@ link register save eliminated.
 1486 0000 80B4     		push	{r7}
 1487              	.LCFI11:
 1488              		.cfi_def_cfa_offset 4
 1489 0002 00AF     		add	r7, sp, #0
 1490              		.cfi_offset 7, -4
 1491              	.LCFI12:
 1492              		.cfi_def_cfa_register 7
 298:.\main.c      **** //    if (rxInterrupted) {
 299:.\main.c      **** //        UART_PutString("Error 2: Interrupt not handled\n");
 300:.\main.c      **** //    }
 301:.\main.c      ****     rxInterrupted = 1;
 1493              		.loc 1 301 0
 1494 0004 40F20003 		movw	r3, #:lower16:rxInterrupted
 1495 0008 C0F20003 		movt	r3, #:upper16:rxInterrupted
 1496 000c 4FF00102 		mov	r2, #1
 1497 0010 1A60     		str	r2, [r3, #0]
 302:.\main.c      **** }
 1498              		.loc 1 302 0
 1499 0012 BD46     		mov	sp, r7
 1500 0014 80BC     		pop	{r7}
 1501 0016 7047     		bx	lr
 1502              		.cfi_endproc
 1503              	.LFE33:
 1504              		.size	rx_inter, .-rx_inter
 1505              		.section	.text.wheel_inter,"ax",%progbits
 1506              		.align	2
 1507              		.global	wheel_inter
 1508              		.thumb
 1509              		.thumb_func
 1510              		.type	wheel_inter, %function
 1511              	wheel_inter:
 1512              	.LFB34:
 303:.\main.c      **** 
 304:.\main.c      **** /* Wheel tick interrupt */
 305:.\main.c      **** CY_ISR(wheel_inter) {
 1513              		.loc 1 305 0
 1514              		.cfi_startproc
 1515              		@ args = 0, pretend = 0, frame = 0
 1516              		@ frame_needed = 1, uses_anonymous_args = 0
 1517              		@ link register save eliminated.
 1518 0000 80B4     		push	{r7}
 1519              	.LCFI13:
 1520              		.cfi_def_cfa_offset 4
 1521 0002 00AF     		add	r7, sp, #0
 1522              		.cfi_offset 7, -4
 1523              	.LCFI14:
 1524              		.cfi_def_cfa_register 7
 306:.\main.c      **** //    if (wheelTickInterrupted) {
 307:.\main.c      **** //        UART_PutString("Error 3: Interrupt not handled\n");
ARM GAS  C:\Users\bccho\AppData\Local\Temp\ccBO8fce.s 			page 35


 308:.\main.c      **** //    }
 309:.\main.c      ****     wheelTickInterrupted = 1;
 1525              		.loc 1 309 0
 1526 0004 40F20003 		movw	r3, #:lower16:wheelTickInterrupted
 1527 0008 C0F20003 		movt	r3, #:upper16:wheelTickInterrupted
 1528 000c 4FF00102 		mov	r2, #1
 1529 0010 1A60     		str	r2, [r3, #0]
 310:.\main.c      **** }
 1530              		.loc 1 310 0
 1531 0012 BD46     		mov	sp, r7
 1532 0014 80BC     		pop	{r7}
 1533 0016 7047     		bx	lr
 1534              		.cfi_endproc
 1535              	.LFE34:
 1536              		.size	wheel_inter, .-wheel_inter
 1537              		.section	.text.timeout_inter,"ax",%progbits
 1538              		.align	2
 1539              		.global	timeout_inter
 1540              		.thumb
 1541              		.thumb_func
 1542              		.type	timeout_inter, %function
 1543              	timeout_inter:
 1544              	.LFB35:
 311:.\main.c      **** 
 312:.\main.c      **** /* Wheel tick timeout interrupt */
 313:.\main.c      **** CY_ISR(timeout_inter) {
 1545              		.loc 1 313 0
 1546              		.cfi_startproc
 1547              		@ args = 0, pretend = 0, frame = 0
 1548              		@ frame_needed = 1, uses_anonymous_args = 0
 1549              		@ link register save eliminated.
 1550 0000 80B4     		push	{r7}
 1551              	.LCFI15:
 1552              		.cfi_def_cfa_offset 4
 1553 0002 00AF     		add	r7, sp, #0
 1554              		.cfi_offset 7, -4
 1555              	.LCFI16:
 1556              		.cfi_def_cfa_register 7
 314:.\main.c      **** //    if (tickTimeoutInterrupted) {
 315:.\main.c      **** //        UART_PutString("Error 4: Interrupt not handled\n");
 316:.\main.c      **** //    }
 317:.\main.c      ****     tickTimeoutInterrupted = 1;
 1557              		.loc 1 317 0
 1558 0004 40F20003 		movw	r3, #:lower16:tickTimeoutInterrupted
 1559 0008 C0F20003 		movt	r3, #:upper16:tickTimeoutInterrupted
 1560 000c 4FF00102 		mov	r2, #1
 1561 0010 1A60     		str	r2, [r3, #0]
 318:.\main.c      **** }
 1562              		.loc 1 318 0
 1563 0012 BD46     		mov	sp, r7
 1564 0014 80BC     		pop	{r7}
 1565 0016 7047     		bx	lr
 1566              		.cfi_endproc
 1567              	.LFE35:
 1568              		.size	timeout_inter, .-timeout_inter
 1569              		.section	.text.pid_inter,"ax",%progbits
 1570              		.align	2
ARM GAS  C:\Users\bccho\AppData\Local\Temp\ccBO8fce.s 			page 36


 1571              		.global	pid_inter
 1572              		.thumb
 1573              		.thumb_func
 1574              		.type	pid_inter, %function
 1575              	pid_inter:
 1576              	.LFB36:
 319:.\main.c      **** 
 320:.\main.c      **** /* PID timer interrupt */
 321:.\main.c      **** CY_ISR(pid_inter) {
 1577              		.loc 1 321 0
 1578              		.cfi_startproc
 1579              		@ args = 0, pretend = 0, frame = 0
 1580              		@ frame_needed = 1, uses_anonymous_args = 0
 1581              		@ link register save eliminated.
 1582 0000 80B4     		push	{r7}
 1583              	.LCFI17:
 1584              		.cfi_def_cfa_offset 4
 1585 0002 00AF     		add	r7, sp, #0
 1586              		.cfi_offset 7, -4
 1587              	.LCFI18:
 1588              		.cfi_def_cfa_register 7
 322:.\main.c      **** //    if (pidTimerInterrupted) {
 323:.\main.c      **** //        UART_PutString("Error 5: Interrupt not handled\n");
 324:.\main.c      **** //    }
 325:.\main.c      ****     pidTimerInterrupted = 1;
 1589              		.loc 1 325 0
 1590 0004 40F20003 		movw	r3, #:lower16:pidTimerInterrupted
 1591 0008 C0F20003 		movt	r3, #:upper16:pidTimerInterrupted
 1592 000c 4FF00102 		mov	r2, #1
 1593 0010 1A60     		str	r2, [r3, #0]
 326:.\main.c      **** }
 1594              		.loc 1 326 0
 1595 0012 BD46     		mov	sp, r7
 1596 0014 80BC     		pop	{r7}
 1597 0016 7047     		bx	lr
 1598              		.cfi_endproc
 1599              	.LFE36:
 1600              		.size	pid_inter, .-pid_inter
 1601              		.section	.text.cam_comp_rise_inter,"ax",%progbits
 1602              		.align	2
 1603              		.global	cam_comp_rise_inter
 1604              		.thumb
 1605              		.thumb_func
 1606              		.type	cam_comp_rise_inter, %function
 1607              	cam_comp_rise_inter:
 1608              	.LFB37:
 327:.\main.c      **** 
 328:.\main.c      **** /* Camera comparator rise interrupt */
 329:.\main.c      **** CY_ISR(cam_comp_rise_inter) {
 1609              		.loc 1 329 0
 1610              		.cfi_startproc
 1611              		@ args = 0, pretend = 0, frame = 0
 1612              		@ frame_needed = 1, uses_anonymous_args = 0
 1613              		@ link register save eliminated.
 1614 0000 80B4     		push	{r7}
 1615              	.LCFI19:
 1616              		.cfi_def_cfa_offset 4
ARM GAS  C:\Users\bccho\AppData\Local\Temp\ccBO8fce.s 			page 37


 1617 0002 00AF     		add	r7, sp, #0
 1618              		.cfi_offset 7, -4
 1619              	.LCFI20:
 1620              		.cfi_def_cfa_register 7
 330:.\main.c      **** //    if (camCompRiseInterrupted) {
 331:.\main.c      **** //        UART_PutString("Error 6: Interrupt not handled\n");
 332:.\main.c      **** //    }
 333:.\main.c      **** //    test6++;
 334:.\main.c      ****     camCompRiseInterrupted = 1;
 1621              		.loc 1 334 0
 1622 0004 40F20003 		movw	r3, #:lower16:camCompRiseInterrupted
 1623 0008 C0F20003 		movt	r3, #:upper16:camCompRiseInterrupted
 1624 000c 4FF00102 		mov	r2, #1
 1625 0010 1A60     		str	r2, [r3, #0]
 335:.\main.c      **** }
 1626              		.loc 1 335 0
 1627 0012 BD46     		mov	sp, r7
 1628 0014 80BC     		pop	{r7}
 1629 0016 7047     		bx	lr
 1630              		.cfi_endproc
 1631              	.LFE37:
 1632              		.size	cam_comp_rise_inter, .-cam_comp_rise_inter
 1633              		.section	.text.cam_comp_fall_inter,"ax",%progbits
 1634              		.align	2
 1635              		.global	cam_comp_fall_inter
 1636              		.thumb
 1637              		.thumb_func
 1638              		.type	cam_comp_fall_inter, %function
 1639              	cam_comp_fall_inter:
 1640              	.LFB38:
 336:.\main.c      **** 
 337:.\main.c      **** /* Camera comparator fall interrupt */
 338:.\main.c      **** CY_ISR(cam_comp_fall_inter) {
 1641              		.loc 1 338 0
 1642              		.cfi_startproc
 1643              		@ args = 0, pretend = 0, frame = 0
 1644              		@ frame_needed = 1, uses_anonymous_args = 0
 1645              		@ link register save eliminated.
 1646 0000 80B4     		push	{r7}
 1647              	.LCFI21:
 1648              		.cfi_def_cfa_offset 4
 1649 0002 00AF     		add	r7, sp, #0
 1650              		.cfi_offset 7, -4
 1651              	.LCFI22:
 1652              		.cfi_def_cfa_register 7
 339:.\main.c      **** //    if (camCompFallInterrupted) {
 340:.\main.c      **** //        UART_PutString("Error 7: Interrupt not handled\n");
 341:.\main.c      **** //    }
 342:.\main.c      **** //    test7++;
 343:.\main.c      ****     camCompFallInterrupted = 1;
 1653              		.loc 1 343 0
 1654 0004 40F20003 		movw	r3, #:lower16:camCompFallInterrupted
 1655 0008 C0F20003 		movt	r3, #:upper16:camCompFallInterrupted
 1656 000c 4FF00102 		mov	r2, #1
 1657 0010 1A60     		str	r2, [r3, #0]
 344:.\main.c      **** }
 1658              		.loc 1 344 0
ARM GAS  C:\Users\bccho\AppData\Local\Temp\ccBO8fce.s 			page 38


 1659 0012 BD46     		mov	sp, r7
 1660 0014 80BC     		pop	{r7}
 1661 0016 7047     		bx	lr
 1662              		.cfi_endproc
 1663              	.LFE38:
 1664              		.size	cam_comp_fall_inter, .-cam_comp_fall_inter
 1665              		.section	.text.cam_frame_inter,"ax",%progbits
 1666              		.align	2
 1667              		.global	cam_frame_inter
 1668              		.thumb
 1669              		.thumb_func
 1670              		.type	cam_frame_inter, %function
 1671              	cam_frame_inter:
 1672              	.LFB39:
 345:.\main.c      **** 
 346:.\main.c      **** /* Camera frame start interrupt */
 347:.\main.c      **** CY_ISR(cam_frame_inter) {
 1673              		.loc 1 347 0
 1674              		.cfi_startproc
 1675              		@ args = 0, pretend = 0, frame = 0
 1676              		@ frame_needed = 1, uses_anonymous_args = 0
 1677              		@ link register save eliminated.
 1678 0000 80B4     		push	{r7}
 1679              	.LCFI23:
 1680              		.cfi_def_cfa_offset 4
 1681 0002 00AF     		add	r7, sp, #0
 1682              		.cfi_offset 7, -4
 1683              	.LCFI24:
 1684              		.cfi_def_cfa_register 7
 348:.\main.c      **** //    if (camFrameInterrupted) {
 349:.\main.c      **** //        UART_PutString("Error 9: Interrupt not handled\n");
 350:.\main.c      **** //    }
 351:.\main.c      **** //    test9++;
 352:.\main.c      ****     camFrameInterrupted = 1;
 1685              		.loc 1 352 0
 1686 0004 40F20003 		movw	r3, #:lower16:camFrameInterrupted
 1687 0008 C0F20003 		movt	r3, #:upper16:camFrameInterrupted
 1688 000c 4FF00102 		mov	r2, #1
 1689 0010 1A60     		str	r2, [r3, #0]
 353:.\main.c      **** }
 1690              		.loc 1 353 0
 1691 0012 BD46     		mov	sp, r7
 1692 0014 80BC     		pop	{r7}
 1693 0016 7047     		bx	lr
 1694              		.cfi_endproc
 1695              	.LFE39:
 1696              		.size	cam_frame_inter, .-cam_frame_inter
 1697              		.section	.rodata
 1698 0369 000000   		.align	2
 1699              	.LC41:
 1700 036c 4C696E65 		.ascii	"Line mid: %f\012\000"
 1700      206D6964 
 1700      3A202566 
 1700      0A00
 1701 037a 00000000 		.section	.text.main,"ax",%progbits
 1701      0000
 1702              		.align	2
ARM GAS  C:\Users\bccho\AppData\Local\Temp\ccBO8fce.s 			page 39


 1703              		.global	main
 1704              		.thumb
 1705              		.thumb_func
 1706              		.type	main, %function
 1707              	main:
 1708              	.LFB40:
 354:.\main.c      **** 
 355:.\main.c      **** int main() {
 1709              		.loc 1 355 0
 1710              		.cfi_startproc
 1711              		@ args = 0, pretend = 0, frame = 32
 1712              		@ frame_needed = 1, uses_anonymous_args = 0
 1713 0000 B0B5     		push	{r4, r5, r7, lr}
 1714              	.LCFI25:
 1715              		.cfi_def_cfa_offset 16
 1716 0002 88B0     		sub	sp, sp, #32
 1717              	.LCFI26:
 1718              		.cfi_def_cfa_offset 48
 1719 0004 00AF     		add	r7, sp, #0
 1720              		.cfi_offset 14, -4
 1721              		.cfi_offset 7, -8
 1722              		.cfi_offset 5, -12
 1723              		.cfi_offset 4, -16
 1724              	.LCFI27:
 1725              		.cfi_def_cfa_register 7
 356:.\main.c      ****     /* Initialization */
 357:.\main.c      ****     CyGlobalIntEnable; // Enable global interrupts
 1726              		.loc 1 357 0
 1727              	@ 357 ".\main.c" 1
 1728 0006 62B6     		CPSIE   i
 1729              	@ 0 "" 2
 358:.\main.c      ****     
 359:.\main.c      ****     // Start LCD
 360:.\main.c      ****     LCD_Start();
 1730              		.loc 1 360 0
 1731              		.thumb
 1732 0008 FFF7FEFF 		bl	LCD_Start
 361:.\main.c      ****     
 362:.\main.c      ****     // Start motor PWM
 363:.\main.c      ****     PWM_Motor_Start();
 1733              		.loc 1 363 0
 1734 000c FFF7FEFF 		bl	PWM_Motor_Start
 364:.\main.c      ****     
 365:.\main.c      ****     // Start servo PWM
 366:.\main.c      ****     PWM_Servo_Start();
 1735              		.loc 1 366 0
 1736 0010 FFF7FEFF 		bl	PWM_Servo_Start
 367:.\main.c      ****     PWM_Servo_WriteCompare((MIN_TIME_SERVO + MAX_TIME_SERVO)/2 * MAIN_CLK_FREQ);
 1737              		.loc 1 367 0
 1738 0014 40F20003 		movw	r3, #:lower16:MIN_TIME_SERVO
 1739 0018 C0F20003 		movt	r3, #:upper16:MIN_TIME_SERVO
 1740 001c D3E90001 		ldrd	r0, [r3]
 1741 0020 40F20003 		movw	r3, #:lower16:MAX_TIME_SERVO
 1742 0024 C0F20003 		movt	r3, #:upper16:MAX_TIME_SERVO
 1743 0028 D3E90023 		ldrd	r2, [r3]
 1744 002c FFF7FEFF 		bl	__aeabi_dadd
 1745 0030 0246     		mov	r2, r0
ARM GAS  C:\Users\bccho\AppData\Local\Temp\ccBO8fce.s 			page 40


 1746 0032 0B46     		mov	r3, r1
 1747 0034 1046     		mov	r0, r2
 1748 0036 1946     		mov	r1, r3
 1749 0038 4FF00002 		mov	r2, #0
 1750 003c 4FF08043 		mov	r3, #1073741824
 1751 0040 FFF7FEFF 		bl	__aeabi_ddiv
 1752 0044 0246     		mov	r2, r0
 1753 0046 0B46     		mov	r3, r1
 1754 0048 1046     		mov	r0, r2
 1755 004a 1946     		mov	r1, r3
 1756 004c 40F20003 		movw	r3, #:lower16:MAIN_CLK_FREQ
 1757 0050 C0F20003 		movt	r3, #:upper16:MAIN_CLK_FREQ
 1758 0054 D3E90023 		ldrd	r2, [r3]
 1759 0058 FFF7FEFF 		bl	__aeabi_dmul
 1760 005c 0246     		mov	r2, r0
 1761 005e 0B46     		mov	r3, r1
 1762 0060 1046     		mov	r0, r2
 1763 0062 1946     		mov	r1, r3
 1764 0064 FFF7FEFF 		bl	__aeabi_d2uiz
 1765 0068 0346     		mov	r3, r0
 1766 006a 9BB2     		uxth	r3, r3
 1767 006c 1846     		mov	r0, r3
 1768 006e FFF7FEFF 		bl	PWM_Servo_WriteCompare
 368:.\main.c      ****     
 369:.\main.c      ****     // Start pushbutton
 370:.\main.c      ****     inter_button_Start();
 1769              		.loc 1 370 0
 1770 0072 FFF7FEFF 		bl	inter_button_Start
 371:.\main.c      ****     inter_button_SetVector(button_inter);
 1771              		.loc 1 371 0
 1772 0076 40F20000 		movw	r0, #:lower16:button_inter
 1773 007a C0F20000 		movt	r0, #:upper16:button_inter
 1774 007e FFF7FEFF 		bl	inter_button_SetVector
 372:.\main.c      ****     
 373:.\main.c      ****     // Start UART
 374:.\main.c      ****     UART_Start();
 1775              		.loc 1 374 0
 1776 0082 FFF7FEFF 		bl	UART_Start
 375:.\main.c      ****     rx_rcvd_Start();
 1777              		.loc 1 375 0
 1778 0086 FFF7FEFF 		bl	rx_rcvd_Start
 376:.\main.c      ****     rx_rcvd_SetVector(rx_inter);
 1779              		.loc 1 376 0
 1780 008a 40F20000 		movw	r0, #:lower16:rx_inter
 1781 008e C0F20000 		movt	r0, #:upper16:rx_inter
 1782 0092 FFF7FEFF 		bl	rx_rcvd_SetVector
 377:.\main.c      ****     
 378:.\main.c      ****     // Start wheel tick timer
 379:.\main.c      ****     Timer_Wheel_Tick_Start();
 1783              		.loc 1 379 0
 1784 0096 FFF7FEFF 		bl	Timer_Wheel_Tick_Start
 380:.\main.c      ****     wheel_tick_Start();
 1785              		.loc 1 380 0
 1786 009a FFF7FEFF 		bl	wheel_tick_Start
 381:.\main.c      ****     wheel_tick_SetVector(wheel_inter);
 1787              		.loc 1 381 0
 1788 009e 40F20000 		movw	r0, #:lower16:wheel_inter
ARM GAS  C:\Users\bccho\AppData\Local\Temp\ccBO8fce.s 			page 41


 1789 00a2 C0F20000 		movt	r0, #:upper16:wheel_inter
 1790 00a6 FFF7FEFF 		bl	wheel_tick_SetVector
 382:.\main.c      ****     
 383:.\main.c      ****     // Start tick timeout counter
 384:.\main.c      ****     Counter_Tick_Timeout_Start();
 1791              		.loc 1 384 0
 1792 00aa FFF7FEFF 		bl	Counter_Tick_Timeout_Start
 385:.\main.c      ****     tick_timeout_Start();
 1793              		.loc 1 385 0
 1794 00ae FFF7FEFF 		bl	tick_timeout_Start
 386:.\main.c      ****     tick_timeout_SetVector(timeout_inter);
 1795              		.loc 1 386 0
 1796 00b2 40F20000 		movw	r0, #:lower16:timeout_inter
 1797 00b6 C0F20000 		movt	r0, #:upper16:timeout_inter
 1798 00ba FFF7FEFF 		bl	tick_timeout_SetVector
 387:.\main.c      ****     
 388:.\main.c      ****     // Start PID update counter
 389:.\main.c      ****     Counter_PID_Start();
 1799              		.loc 1 389 0
 1800 00be FFF7FEFF 		bl	Counter_PID_Start
 390:.\main.c      ****     throttle_update_Start();
 1801              		.loc 1 390 0
 1802 00c2 FFF7FEFF 		bl	throttle_update_Start
 391:.\main.c      ****     throttle_update_SetVector(pid_inter);
 1803              		.loc 1 391 0
 1804 00c6 40F20000 		movw	r0, #:lower16:pid_inter
 1805 00ca C0F20000 		movt	r0, #:upper16:pid_inter
 1806 00ce FFF7FEFF 		bl	throttle_update_SetVector
 392:.\main.c      ****     
 393:.\main.c      ****     // Start camera interrupts
 394:.\main.c      ****     camera_comp_rise_Start();
 1807              		.loc 1 394 0
 1808 00d2 FFF7FEFF 		bl	camera_comp_rise_Start
 395:.\main.c      ****     camera_comp_rise_SetVector(cam_comp_rise_inter);
 1809              		.loc 1 395 0
 1810 00d6 40F20000 		movw	r0, #:lower16:cam_comp_rise_inter
 1811 00da C0F20000 		movt	r0, #:upper16:cam_comp_rise_inter
 1812 00de FFF7FEFF 		bl	camera_comp_rise_SetVector
 396:.\main.c      ****     camera_comp_fall_Start();
 1813              		.loc 1 396 0
 1814 00e2 FFF7FEFF 		bl	camera_comp_fall_Start
 397:.\main.c      ****     camera_comp_fall_SetVector(cam_comp_fall_inter);
 1815              		.loc 1 397 0
 1816 00e6 40F20000 		movw	r0, #:lower16:cam_comp_fall_inter
 1817 00ea C0F20000 		movt	r0, #:upper16:cam_comp_fall_inter
 1818 00ee FFF7FEFF 		bl	camera_comp_fall_SetVector
 398:.\main.c      ****     camera_frame_start_Start();
 1819              		.loc 1 398 0
 1820 00f2 FFF7FEFF 		bl	camera_frame_start_Start
 399:.\main.c      ****     camera_frame_start_SetVector(cam_frame_inter);
 1821              		.loc 1 399 0
 1822 00f6 40F20000 		movw	r0, #:lower16:cam_frame_inter
 1823 00fa C0F20000 		movt	r0, #:upper16:cam_frame_inter
 1824 00fe FFF7FEFF 		bl	camera_frame_start_SetVector
 400:.\main.c      ****     Timer_Line_Begin_Start();
 1825              		.loc 1 400 0
 1826 0102 FFF7FEFF 		bl	Timer_Line_Begin_Start
ARM GAS  C:\Users\bccho\AppData\Local\Temp\ccBO8fce.s 			page 42


 401:.\main.c      ****     Timer_Line_End_Start(); 
 1827              		.loc 1 401 0
 1828 0106 FFF7FEFF 		bl	Timer_Line_End_Start
 402:.\main.c      ****     Timer_Row_Start();
 1829              		.loc 1 402 0
 1830 010a FFF7FEFF 		bl	Timer_Row_Start
 403:.\main.c      ****     
 404:.\main.c      ****     Counter_First_Row_Start();
 1831              		.loc 1 404 0
 1832 010e FFF7FEFF 		bl	Counter_First_Row_Start
 405:.\main.c      ****     Counter_Last_Row_Start();
 1833              		.loc 1 405 0
 1834 0112 FFF7FEFF 		bl	Counter_Last_Row_Start
 406:.\main.c      ****     
 407:.\main.c      ****     // LCD initial text
 408:.\main.c      ****     LCD_Position(0, 0);
 1835              		.loc 1 408 0
 1836 0116 4FF00000 		mov	r0, #0
 1837 011a 4FF00001 		mov	r1, #0
 1838 011e FFF7FEFF 		bl	LCD_Position
 409:.\main.c      ****     LCD_PrintString(buildVersion);
 1839              		.loc 1 409 0
 1840 0122 40F20000 		movw	r0, #:lower16:buildVersion
 1841 0126 C0F20000 		movt	r0, #:upper16:buildVersion
 1842 012a FFF7FEFF 		bl	LCD_PrintString
 410:.\main.c      ****     
 411:.\main.c      ****     // Init serial
 412:.\main.c      ****     Serial_init();
 1843              		.loc 1 412 0
 1844 012e FFF7FEFF 		bl	Serial_init
 413:.\main.c      ****     
 414:.\main.c      ****     // Init speed control
 415:.\main.c      ****     SpeedControl_init();
 1845              		.loc 1 415 0
 1846 0132 FFF7FEFF 		bl	SpeedControl_init
 1847 0136 00E0     		b	.L99
 1848              	.L101:
 416:.\main.c      ****     
 417:.\main.c      ****     for(;;)
 418:.\main.c      ****     {
 419:.\main.c      ****         // Handle push button interrupt
 420:.\main.c      ****         if (buttonInterrupted) {
 421:.\main.c      ****             if (SpeedControl_isEnabled()) {
 422:.\main.c      ****                 SpeedControl_kill();
 423:.\main.c      ****             } else {
 424:.\main.c      ****                 SpeedControl_enableDistanceControl();
 425:.\main.c      ****                 SpeedControl_enable();
 426:.\main.c      ****             }
 427:.\main.c      ****             buttonInterrupted = 0;
 428:.\main.c      ****         }
 429:.\main.c      ****         
 430:.\main.c      ****         // Handle incoming serial data
 431:.\main.c      ****         if (rxInterrupted) {
 432:.\main.c      ****             char *message = Serial_handleData();
 433:.\main.c      ****             parseMessage(message);
 434:.\main.c      ****             rxInterrupted = 0;
 435:.\main.c      ****         }
ARM GAS  C:\Users\bccho\AppData\Local\Temp\ccBO8fce.s 			page 43


 436:.\main.c      ****         
 437:.\main.c      ****         // Handle wheel ticks
 438:.\main.c      ****         if (wheelTickInterrupted) {
 439:.\main.c      ****             SpeedControl_handleWheelTick();
 440:.\main.c      ****             wheelTickInterrupted = 0;
 441:.\main.c      ****         }
 442:.\main.c      ****         
 443:.\main.c      ****         // Handle wheel tick timeout
 444:.\main.c      ****         if (tickTimeoutInterrupted) {
 445:.\main.c      ****             SpeedControl_handleWheelTickTimeout();
 446:.\main.c      ****             tickTimeoutInterrupted = 0;
 447:.\main.c      ****         }
 448:.\main.c      ****         
 449:.\main.c      ****         // Perform PID update and update time count
 450:.\main.c      ****         if (pidTimerInterrupted) {
 451:.\main.c      ****             SpeedControl_handleTimer();
 452:.\main.c      ****             sprintf(strbuffer, "Line mid: %f\n", lineMid);
 453:.\main.c      ****             UART_PutString(strbuffer);
 454:.\main.c      ****             pidTimerInterrupted = 0;
 455:.\main.c      ****         }
 456:.\main.c      ****         
 457:.\main.c      ****         // Handle comparator rise interrupt
 458:.\main.c      ****         if (camCompRiseInterrupted) {
 459:.\main.c      ****             double lineBeginCyclesTemp = CAMERA_TIMER_PERIOD - Timer_Line_Begin_ReadCapture();
 460:.\main.c      ****             if (lineBeginCyclesTemp > 0.15*EXPECTED_ROW_CYCLES && lineBeginCyclesTemp < 0.95*EXPECT
 461:.\main.c      ****                 numCompBegin++;
 462:.\main.c      ****                 lineBeginCycles = lineBeginCyclesTemp;
 463:.\main.c      ****             }
 464:.\main.c      ****             camCompRiseInterrupted = 0;
 465:.\main.c      ****         }
 466:.\main.c      ****         
 467:.\main.c      ****         // Handle comparator fall interrupt
 468:.\main.c      ****         if (camCompFallInterrupted) {
 469:.\main.c      ****             double lineEndCyclesTemp = CAMERA_TIMER_PERIOD - Timer_Line_End_ReadCapture();
 470:.\main.c      ****             if (lineEndCyclesTemp > 0.15*EXPECTED_ROW_CYCLES && lineEndCyclesTemp < 0.95*EXPECTED_R
 471:.\main.c      ****                 numCompEnd++;
 472:.\main.c      ****                 lineEndCycles = lineEndCyclesTemp;
 473:.\main.c      ****                 int diff = lineEndCycles - lineBeginCycles;
 474:.\main.c      ****                 if (diff < 150 && diff > 0) {
 475:.\main.c      ****                     lineMid = ((lineEndCycles + lineBeginCycles)/2)/EXPECTED_ROW_CYCLES;
 476:.\main.c      ****                 }
 477:.\main.c      ****             }
 478:.\main.c      ****             camCompFallInterrupted = 0;
 479:.\main.c      ****         }
 480:.\main.c      ****         
 481:.\main.c      ****         // Handle frame interrupts
 482:.\main.c      ****         if (camFrameInterrupted) {
 483:.\main.c      ****             numFrames++;
 484:.\main.c      ****             camFrameInterrupted = 0;
 485:.\main.c      ****         }
 486:.\main.c      ****     }
 1849              		.loc 1 486 0
 1850 0138 00BF     		nop
 1851              	.L99:
 1852              		.loc 1 420 0
 1853 013a 40F20003 		movw	r3, #:lower16:buttonInterrupted
 1854 013e C0F20003 		movt	r3, #:upper16:buttonInterrupted
ARM GAS  C:\Users\bccho\AppData\Local\Temp\ccBO8fce.s 			page 44


 1855 0142 1B68     		ldr	r3, [r3, #0]
 1856 0144 002B     		cmp	r3, #0
 1857 0146 12D0     		beq	.L79
 1858              		.loc 1 421 0
 1859 0148 FFF7FEFF 		bl	SpeedControl_isEnabled
 1860 014c 0346     		mov	r3, r0
 1861 014e 002B     		cmp	r3, #0
 1862 0150 02D0     		beq	.L80
 1863              		.loc 1 422 0
 1864 0152 FFF7FEFF 		bl	SpeedControl_kill
 1865 0156 03E0     		b	.L81
 1866              	.L80:
 1867              		.loc 1 424 0
 1868 0158 FFF7FEFF 		bl	SpeedControl_enableDistanceControl
 1869              		.loc 1 425 0
 1870 015c FFF7FEFF 		bl	SpeedControl_enable
 1871              	.L81:
 1872              		.loc 1 427 0
 1873 0160 40F20003 		movw	r3, #:lower16:buttonInterrupted
 1874 0164 C0F20003 		movt	r3, #:upper16:buttonInterrupted
 1875 0168 4FF00002 		mov	r2, #0
 1876 016c 1A60     		str	r2, [r3, #0]
 1877              	.L79:
 1878              		.loc 1 431 0
 1879 016e 40F20003 		movw	r3, #:lower16:rxInterrupted
 1880 0172 C0F20003 		movt	r3, #:upper16:rxInterrupted
 1881 0176 1B68     		ldr	r3, [r3, #0]
 1882 0178 002B     		cmp	r3, #0
 1883 017a 0DD0     		beq	.L82
 1884              	.LBB12:
 1885              		.loc 1 432 0
 1886 017c FFF7FEFF 		bl	Serial_handleData
 1887 0180 0346     		mov	r3, r0
 1888 0182 7B60     		str	r3, [r7, #4]
 1889              		.loc 1 433 0
 1890 0184 7868     		ldr	r0, [r7, #4]
 1891 0186 FFF7FEFF 		bl	parseMessage
 1892              		.loc 1 434 0
 1893 018a 40F20003 		movw	r3, #:lower16:rxInterrupted
 1894 018e C0F20003 		movt	r3, #:upper16:rxInterrupted
 1895 0192 4FF00002 		mov	r2, #0
 1896 0196 1A60     		str	r2, [r3, #0]
 1897              	.L82:
 1898              	.LBE12:
 1899              		.loc 1 438 0
 1900 0198 40F20003 		movw	r3, #:lower16:wheelTickInterrupted
 1901 019c C0F20003 		movt	r3, #:upper16:wheelTickInterrupted
 1902 01a0 1B68     		ldr	r3, [r3, #0]
 1903 01a2 002B     		cmp	r3, #0
 1904 01a4 08D0     		beq	.L83
 1905              		.loc 1 439 0
 1906 01a6 FFF7FEFF 		bl	SpeedControl_handleWheelTick
 1907              		.loc 1 440 0
 1908 01aa 40F20003 		movw	r3, #:lower16:wheelTickInterrupted
 1909 01ae C0F20003 		movt	r3, #:upper16:wheelTickInterrupted
 1910 01b2 4FF00002 		mov	r2, #0
 1911 01b6 1A60     		str	r2, [r3, #0]
ARM GAS  C:\Users\bccho\AppData\Local\Temp\ccBO8fce.s 			page 45


 1912              	.L83:
 1913              		.loc 1 444 0
 1914 01b8 40F20003 		movw	r3, #:lower16:tickTimeoutInterrupted
 1915 01bc C0F20003 		movt	r3, #:upper16:tickTimeoutInterrupted
 1916 01c0 1B68     		ldr	r3, [r3, #0]
 1917 01c2 002B     		cmp	r3, #0
 1918 01c4 08D0     		beq	.L84
 1919              		.loc 1 445 0
 1920 01c6 FFF7FEFF 		bl	SpeedControl_handleWheelTickTimeout
 1921              		.loc 1 446 0
 1922 01ca 40F20003 		movw	r3, #:lower16:tickTimeoutInterrupted
 1923 01ce C0F20003 		movt	r3, #:upper16:tickTimeoutInterrupted
 1924 01d2 4FF00002 		mov	r2, #0
 1925 01d6 1A60     		str	r2, [r3, #0]
 1926              	.L84:
 1927              		.loc 1 450 0
 1928 01d8 40F20003 		movw	r3, #:lower16:pidTimerInterrupted
 1929 01dc C0F20003 		movt	r3, #:upper16:pidTimerInterrupted
 1930 01e0 1B68     		ldr	r3, [r3, #0]
 1931 01e2 002B     		cmp	r3, #0
 1932 01e4 1ED0     		beq	.L85
 1933              		.loc 1 451 0
 1934 01e6 FFF7FEFF 		bl	SpeedControl_handleTimer
 1935              		.loc 1 452 0
 1936 01ea 40F20003 		movw	r3, #:lower16:lineMid
 1937 01ee C0F20003 		movt	r3, #:upper16:lineMid
 1938 01f2 D3E90023 		ldrd	r2, [r3]
 1939 01f6 40F20000 		movw	r0, #:lower16:strbuffer
 1940 01fa C0F20000 		movt	r0, #:upper16:strbuffer
 1941 01fe 40F20001 		movw	r1, #:lower16:.LC41
 1942 0202 C0F20001 		movt	r1, #:upper16:.LC41
 1943 0206 FFF7FEFF 		bl	sprintf
 1944              		.loc 1 453 0
 1945 020a 40F20000 		movw	r0, #:lower16:strbuffer
 1946 020e C0F20000 		movt	r0, #:upper16:strbuffer
 1947 0212 FFF7FEFF 		bl	UART_PutString
 1948              		.loc 1 454 0
 1949 0216 40F20003 		movw	r3, #:lower16:pidTimerInterrupted
 1950 021a C0F20003 		movt	r3, #:upper16:pidTimerInterrupted
 1951 021e 4FF00002 		mov	r2, #0
 1952 0222 1A60     		str	r2, [r3, #0]
 1953              	.L85:
 1954              		.loc 1 458 0
 1955 0224 40F20003 		movw	r3, #:lower16:camCompRiseInterrupted
 1956 0228 C0F20003 		movt	r3, #:upper16:camCompRiseInterrupted
 1957 022c 1B68     		ldr	r3, [r3, #0]
 1958 022e 002B     		cmp	r3, #0
 1959 0230 74D0     		beq	.L86
 1960              	.LBB13:
 1961              		.loc 1 459 0
 1962 0232 40F20003 		movw	r3, #:lower16:CAMERA_TIMER_PERIOD
 1963 0236 C0F20003 		movt	r3, #:upper16:CAMERA_TIMER_PERIOD
 1964 023a D3E90045 		ldrd	r4, [r3]
 1965 023e FFF7FEFF 		bl	Timer_Line_Begin_ReadCapture
 1966 0242 0346     		mov	r3, r0
 1967 0244 1846     		mov	r0, r3
 1968 0246 FFF7FEFF 		bl	__aeabi_i2d
ARM GAS  C:\Users\bccho\AppData\Local\Temp\ccBO8fce.s 			page 46


 1969 024a 0246     		mov	r2, r0
 1970 024c 0B46     		mov	r3, r1
 1971 024e 2046     		mov	r0, r4
 1972 0250 2946     		mov	r1, r5
 1973 0252 FFF7FEFF 		bl	__aeabi_dsub
 1974 0256 0246     		mov	r2, r0
 1975 0258 0B46     		mov	r3, r1
 1976 025a C7E90223 		strd	r2, [r7, #8]
 1977              		.loc 1 460 0
 1978 025e 40F20003 		movw	r3, #:lower16:EXPECTED_ROW_CYCLES
 1979 0262 C0F20003 		movt	r3, #:upper16:EXPECTED_ROW_CYCLES
 1980 0266 D3E90023 		ldrd	r2, [r3]
 1981 026a 1046     		mov	r0, r2
 1982 026c 1946     		mov	r1, r3
 1983 026e 94A3     		adr	r3, .L102
 1984 0270 D3E90023 		ldrd	r2, [r3]
 1985 0274 FFF7FEFF 		bl	__aeabi_dmul
 1986 0278 0246     		mov	r2, r0
 1987 027a 0B46     		mov	r3, r1
 1988 027c 4FF00001 		mov	r1, #0
 1989 0280 0C46     		mov	r4, r1
 1990 0282 1046     		mov	r0, r2
 1991 0284 1946     		mov	r1, r3
 1992 0286 D7E90223 		ldrd	r2, [r7, #8]
 1993 028a FFF7FEFF 		bl	__aeabi_dcmplt
 1994 028e 0346     		mov	r3, r0
 1995 0290 002B     		cmp	r3, #0
 1996 0292 02D0     		beq	.L87
 1997              	.L88:
 1998 0294 4FF00103 		mov	r3, #1
 1999 0298 1C46     		mov	r4, r3
 2000              	.L87:
 2001 029a E3B2     		uxtb	r3, r4
 2002 029c 002B     		cmp	r3, #0
 2003 029e 36D0     		beq	.L89
 2004 02a0 40F20003 		movw	r3, #:lower16:EXPECTED_ROW_CYCLES
 2005 02a4 C0F20003 		movt	r3, #:upper16:EXPECTED_ROW_CYCLES
 2006 02a8 D3E90023 		ldrd	r2, [r3]
 2007 02ac 1046     		mov	r0, r2
 2008 02ae 1946     		mov	r1, r3
 2009 02b0 85A3     		adr	r3, .L102+8
 2010 02b2 D3E90023 		ldrd	r2, [r3]
 2011 02b6 FFF7FEFF 		bl	__aeabi_dmul
 2012 02ba 0246     		mov	r2, r0
 2013 02bc 0B46     		mov	r3, r1
 2014 02be 4FF00001 		mov	r1, #0
 2015 02c2 0C46     		mov	r4, r1
 2016 02c4 1046     		mov	r0, r2
 2017 02c6 1946     		mov	r1, r3
 2018 02c8 D7E90223 		ldrd	r2, [r7, #8]
 2019 02cc FFF7FEFF 		bl	__aeabi_dcmpgt
 2020 02d0 0346     		mov	r3, r0
 2021 02d2 002B     		cmp	r3, #0
 2022 02d4 02D0     		beq	.L90
 2023              	.L91:
 2024 02d6 4FF00103 		mov	r3, #1
 2025 02da 1C46     		mov	r4, r3
ARM GAS  C:\Users\bccho\AppData\Local\Temp\ccBO8fce.s 			page 47


 2026              	.L90:
 2027 02dc E3B2     		uxtb	r3, r4
 2028 02de 002B     		cmp	r3, #0
 2029 02e0 15D0     		beq	.L89
 2030              		.loc 1 461 0
 2031 02e2 40F20003 		movw	r3, #:lower16:numCompBegin
 2032 02e6 C0F20003 		movt	r3, #:upper16:numCompBegin
 2033 02ea 1B68     		ldr	r3, [r3, #0]
 2034 02ec 03F10102 		add	r2, r3, #1
 2035 02f0 40F20003 		movw	r3, #:lower16:numCompBegin
 2036 02f4 C0F20003 		movt	r3, #:upper16:numCompBegin
 2037 02f8 1A60     		str	r2, [r3, #0]
 2038              		.loc 1 462 0
 2039 02fa D7E90201 		ldrd	r0, [r7, #8]
 2040 02fe FFF7FEFF 		bl	__aeabi_d2iz
 2041 0302 0246     		mov	r2, r0
 2042 0304 40F20003 		movw	r3, #:lower16:lineBeginCycles
 2043 0308 C0F20003 		movt	r3, #:upper16:lineBeginCycles
 2044 030c 1A60     		str	r2, [r3, #0]
 2045              	.L89:
 2046              		.loc 1 464 0
 2047 030e 40F20003 		movw	r3, #:lower16:camCompRiseInterrupted
 2048 0312 C0F20003 		movt	r3, #:upper16:camCompRiseInterrupted
 2049 0316 4FF00002 		mov	r2, #0
 2050 031a 1A60     		str	r2, [r3, #0]
 2051              	.L86:
 2052              	.LBE13:
 2053              		.loc 1 468 0
 2054 031c 40F20003 		movw	r3, #:lower16:camCompFallInterrupted
 2055 0320 C0F20003 		movt	r3, #:upper16:camCompFallInterrupted
 2056 0324 1B68     		ldr	r3, [r3, #0]
 2057 0326 002B     		cmp	r3, #0
 2058 0328 00F0AD80 		beq	.L92
 2059              	.LBB14:
 2060              		.loc 1 469 0
 2061 032c 40F20003 		movw	r3, #:lower16:CAMERA_TIMER_PERIOD
 2062 0330 C0F20003 		movt	r3, #:upper16:CAMERA_TIMER_PERIOD
 2063 0334 D3E90045 		ldrd	r4, [r3]
 2064 0338 FFF7FEFF 		bl	Timer_Line_End_ReadCapture
 2065 033c 0346     		mov	r3, r0
 2066 033e 1846     		mov	r0, r3
 2067 0340 FFF7FEFF 		bl	__aeabi_i2d
 2068 0344 0246     		mov	r2, r0
 2069 0346 0B46     		mov	r3, r1
 2070 0348 2046     		mov	r0, r4
 2071 034a 2946     		mov	r1, r5
 2072 034c FFF7FEFF 		bl	__aeabi_dsub
 2073 0350 0246     		mov	r2, r0
 2074 0352 0B46     		mov	r3, r1
 2075 0354 C7E90423 		strd	r2, [r7, #16]
 2076              		.loc 1 470 0
 2077 0358 40F20003 		movw	r3, #:lower16:EXPECTED_ROW_CYCLES
 2078 035c C0F20003 		movt	r3, #:upper16:EXPECTED_ROW_CYCLES
 2079 0360 D3E90023 		ldrd	r2, [r3]
 2080 0364 1046     		mov	r0, r2
 2081 0366 1946     		mov	r1, r3
 2082 0368 55A3     		adr	r3, .L102
ARM GAS  C:\Users\bccho\AppData\Local\Temp\ccBO8fce.s 			page 48


 2083 036a D3E90023 		ldrd	r2, [r3]
 2084 036e FFF7FEFF 		bl	__aeabi_dmul
 2085 0372 0246     		mov	r2, r0
 2086 0374 0B46     		mov	r3, r1
 2087 0376 4FF00001 		mov	r1, #0
 2088 037a 0C46     		mov	r4, r1
 2089 037c 1046     		mov	r0, r2
 2090 037e 1946     		mov	r1, r3
 2091 0380 D7E90423 		ldrd	r2, [r7, #16]
 2092 0384 FFF7FEFF 		bl	__aeabi_dcmplt
 2093 0388 0346     		mov	r3, r0
 2094 038a 002B     		cmp	r3, #0
 2095 038c 02D0     		beq	.L93
 2096              	.L94:
 2097 038e 4FF00103 		mov	r3, #1
 2098 0392 1C46     		mov	r4, r3
 2099              	.L93:
 2100 0394 E3B2     		uxtb	r3, r4
 2101 0396 002B     		cmp	r3, #0
 2102 0398 6ED0     		beq	.L95
 2103 039a 40F20003 		movw	r3, #:lower16:EXPECTED_ROW_CYCLES
 2104 039e C0F20003 		movt	r3, #:upper16:EXPECTED_ROW_CYCLES
 2105 03a2 D3E90023 		ldrd	r2, [r3]
 2106 03a6 1046     		mov	r0, r2
 2107 03a8 1946     		mov	r1, r3
 2108 03aa 47A3     		adr	r3, .L102+8
 2109 03ac D3E90023 		ldrd	r2, [r3]
 2110 03b0 FFF7FEFF 		bl	__aeabi_dmul
 2111 03b4 0246     		mov	r2, r0
 2112 03b6 0B46     		mov	r3, r1
 2113 03b8 4FF00001 		mov	r1, #0
 2114 03bc 0C46     		mov	r4, r1
 2115 03be 1046     		mov	r0, r2
 2116 03c0 1946     		mov	r1, r3
 2117 03c2 D7E90423 		ldrd	r2, [r7, #16]
 2118 03c6 FFF7FEFF 		bl	__aeabi_dcmpgt
 2119 03ca 0346     		mov	r3, r0
 2120 03cc 002B     		cmp	r3, #0
 2121 03ce 02D0     		beq	.L96
 2122              	.L97:
 2123 03d0 4FF00103 		mov	r3, #1
 2124 03d4 1C46     		mov	r4, r3
 2125              	.L96:
 2126 03d6 E3B2     		uxtb	r3, r4
 2127 03d8 002B     		cmp	r3, #0
 2128 03da 4DD0     		beq	.L95
 2129              	.LBB15:
 2130              		.loc 1 471 0
 2131 03dc 40F20003 		movw	r3, #:lower16:numCompEnd
 2132 03e0 C0F20003 		movt	r3, #:upper16:numCompEnd
 2133 03e4 1B68     		ldr	r3, [r3, #0]
 2134 03e6 03F10102 		add	r2, r3, #1
 2135 03ea 40F20003 		movw	r3, #:lower16:numCompEnd
 2136 03ee C0F20003 		movt	r3, #:upper16:numCompEnd
 2137 03f2 1A60     		str	r2, [r3, #0]
 2138              		.loc 1 472 0
 2139 03f4 D7E90401 		ldrd	r0, [r7, #16]
ARM GAS  C:\Users\bccho\AppData\Local\Temp\ccBO8fce.s 			page 49


 2140 03f8 FFF7FEFF 		bl	__aeabi_d2iz
 2141 03fc 0246     		mov	r2, r0
 2142 03fe 40F20003 		movw	r3, #:lower16:lineEndCycles
 2143 0402 C0F20003 		movt	r3, #:upper16:lineEndCycles
 2144 0406 1A60     		str	r2, [r3, #0]
 2145              		.loc 1 473 0
 2146 0408 40F20003 		movw	r3, #:lower16:lineEndCycles
 2147 040c C0F20003 		movt	r3, #:upper16:lineEndCycles
 2148 0410 1A68     		ldr	r2, [r3, #0]
 2149 0412 40F20003 		movw	r3, #:lower16:lineBeginCycles
 2150 0416 C0F20003 		movt	r3, #:upper16:lineBeginCycles
 2151 041a 1B68     		ldr	r3, [r3, #0]
 2152 041c C3EB0203 		rsb	r3, r3, r2
 2153 0420 FB61     		str	r3, [r7, #28]
 2154              		.loc 1 474 0
 2155 0422 FB69     		ldr	r3, [r7, #28]
 2156 0424 952B     		cmp	r3, #149
 2157 0426 27DC     		bgt	.L95
 2158 0428 FB69     		ldr	r3, [r7, #28]
 2159 042a 002B     		cmp	r3, #0
 2160 042c 24DD     		ble	.L95
 2161              		.loc 1 475 0
 2162 042e 40F20003 		movw	r3, #:lower16:lineEndCycles
 2163 0432 C0F20003 		movt	r3, #:upper16:lineEndCycles
 2164 0436 1A68     		ldr	r2, [r3, #0]
 2165 0438 40F20003 		movw	r3, #:lower16:lineBeginCycles
 2166 043c C0F20003 		movt	r3, #:upper16:lineBeginCycles
 2167 0440 1B68     		ldr	r3, [r3, #0]
 2168 0442 1344     		add	r3, r2, r3
 2169 0444 4FEAD372 		lsr	r2, r3, #31
 2170 0448 1344     		add	r3, r2, r3
 2171 044a 4FEA6303 		asr	r3, r3, #1
 2172 044e 1846     		mov	r0, r3
 2173 0450 FFF7FEFF 		bl	__aeabi_i2d
 2174 0454 40F20003 		movw	r3, #:lower16:EXPECTED_ROW_CYCLES
 2175 0458 C0F20003 		movt	r3, #:upper16:EXPECTED_ROW_CYCLES
 2176 045c D3E90023 		ldrd	r2, [r3]
 2177 0460 FFF7FEFF 		bl	__aeabi_ddiv
 2178 0464 0246     		mov	r2, r0
 2179 0466 0B46     		mov	r3, r1
 2180 0468 1046     		mov	r0, r2
 2181 046a 1946     		mov	r1, r3
 2182 046c 40F20003 		movw	r3, #:lower16:lineMid
 2183 0470 C0F20003 		movt	r3, #:upper16:lineMid
 2184 0474 C3E90001 		strd	r0, [r3]
 2185              	.L95:
 2186              	.LBE15:
 2187              		.loc 1 478 0
 2188 0478 40F20003 		movw	r3, #:lower16:camCompFallInterrupted
 2189 047c C0F20003 		movt	r3, #:upper16:camCompFallInterrupted
 2190 0480 4FF00002 		mov	r2, #0
 2191 0484 1A60     		str	r2, [r3, #0]
 2192              	.L92:
 2193              	.LBE14:
 2194              		.loc 1 482 0
 2195 0486 40F20003 		movw	r3, #:lower16:camFrameInterrupted
 2196 048a C0F20003 		movt	r3, #:upper16:camFrameInterrupted
ARM GAS  C:\Users\bccho\AppData\Local\Temp\ccBO8fce.s 			page 50


 2197 048e 1B68     		ldr	r3, [r3, #0]
 2198 0490 002B     		cmp	r3, #0
 2199 0492 3FF451AE 		beq	.L101
 2200              		.loc 1 483 0
 2201 0496 40F20003 		movw	r3, #:lower16:numFrames
 2202 049a C0F20003 		movt	r3, #:upper16:numFrames
 2203 049e 1B68     		ldr	r3, [r3, #0]
 2204 04a0 03F10102 		add	r2, r3, #1
 2205 04a4 40F20003 		movw	r3, #:lower16:numFrames
 2206 04a8 C0F20003 		movt	r3, #:upper16:numFrames
 2207 04ac 1A60     		str	r2, [r3, #0]
 2208              		.loc 1 484 0
 2209 04ae 40F20003 		movw	r3, #:lower16:camFrameInterrupted
 2210 04b2 C0F20003 		movt	r3, #:upper16:camFrameInterrupted
 2211 04b6 4FF00002 		mov	r2, #0
 2212 04ba 1A60     		str	r2, [r3, #0]
 2213              		.loc 1 486 0
 2214 04bc 3DE6     		b	.L99
 2215              	.L103:
 2216 04be 00BF     		.align	3
 2217              	.L102:
 2218 04c0 33333333 		.word	858993459
 2219 04c4 3333C33F 		.word	1069757235
 2220 04c8 66666666 		.word	1717986918
 2221 04cc 6666EE3F 		.word	1072588390
 2222              		.cfi_endproc
 2223              	.LFE40:
 2224              		.size	main, .-main
 2225              		.text
 2226              	.Letext0: