ARM GAS  C:\Users\bccho\AppData\Local\Temp\ccBO8fce.s 			page 1


   1              		.syntax unified
   2              		.cpu cortex-m3
   3              		.fpu softvfp
   4              		.eabi_attribute 20, 1
   5              		.eabi_attribute 21, 1
   6              		.eabi_attribute 23, 3
   7              		.eabi_attribute 24, 1
   8              		.eabi_attribute 25, 1
   9              		.eabi_attribute 26, 1
  10              		.eabi_attribute 30, 6
  11              		.eabi_attribute 18, 4
  12              		.thumb
  13              		.file	"main.c"
  14              		.section	.debug_abbrev,"",%progbits
  15              	.Ldebug_abbrev0:
  16              		.section	.debug_info,"",%progbits
  17              	.Ldebug_info0:
  18              		.section	.debug_line,"",%progbits
  19              	.Ldebug_line0:
  20 0000 06020000 		.text
  20      02004600 
  20      00000201 
  20      FB0E0D00 
  20      01010101 
  21              	.Ltext0:
  22              		.cfi_sections	.debug_frame
  23              		.global	buildVersion
  24              		.data
  25              		.align	2
  26              		.type	buildVersion, %object
  27              		.size	buildVersion, 12
  28              	buildVersion:
  29 0000 4275696C 		.ascii	"Build 1.0.0\000"
  29      6420312E 
  29      302E3000 
  30              		.comm	strbuffer,100,4
  31              		.global	buttonInterrupted
  32              		.bss
  33              		.align	2
  34              		.type	buttonInterrupted, %object
  35              		.size	buttonInterrupted, 4
  36              	buttonInterrupted:
  37 0000 00000000 		.space	4
  38              		.global	rxInterrupted
  39              		.align	2
  40              		.type	rxInterrupted, %object
  41              		.size	rxInterrupted, 4
  42              	rxInterrupted:
  43 0004 00000000 		.space	4
  44              		.global	wheelTickInterrupted
  45              		.align	2
  46              		.type	wheelTickInterrupted, %object
  47              		.size	wheelTickInterrupted, 4
  48              	wheelTickInterrupted:
  49 0008 00000000 		.space	4
  50              		.global	tickTimeoutInterrupted
  51              		.align	2
ARM GAS  C:\Users\bccho\AppData\Local\Temp\ccBO8fce.s 			page 2


  52              		.type	tickTimeoutInterrupted, %object
  53              		.size	tickTimeoutInterrupted, 4
  54              	tickTimeoutInterrupted:
  55 000c 00000000 		.space	4
  56              		.global	pidTimerInterrupted
  57              		.align	2
  58              		.type	pidTimerInterrupted, %object
  59              		.size	pidTimerInterrupted, 4
  60              	pidTimerInterrupted:
  61 0010 00000000 		.space	4
  62              		.global	camCompRiseInterrupted
  63              		.align	2
  64              		.type	camCompRiseInterrupted, %object
  65              		.size	camCompRiseInterrupted, 4
  66              	camCompRiseInterrupted:
  67 0014 00000000 		.space	4
  68              		.global	camCompFallInterrupted
  69              		.align	2
  70              		.type	camCompFallInterrupted, %object
  71              		.size	camCompFallInterrupted, 4
  72              	camCompFallInterrupted:
  73 0018 00000000 		.space	4
  74              		.global	camRowInterrupted
  75              		.align	2
  76              		.type	camRowInterrupted, %object
  77              		.size	camRowInterrupted, 4
  78              	camRowInterrupted:
  79 001c 00000000 		.space	4
  80              		.global	camFrameInterrupted
  81              		.align	2
  82              		.type	camFrameInterrupted, %object
  83              		.size	camFrameInterrupted, 4
  84              	camFrameInterrupted:
  85 0020 00000000 		.space	4
  86              		.global	numFrames
  87              		.align	2
  88              		.type	numFrames, %object
  89              		.size	numFrames, 4
  90              	numFrames:
  91 0024 00000000 		.space	4
  92              		.global	numRows
  93              		.align	2
  94              		.type	numRows, %object
  95              		.size	numRows, 4
  96              	numRows:
  97 0028 00000000 		.space	4
  98              		.global	numCompBegin
  99              		.align	2
 100              		.type	numCompBegin, %object
 101              		.size	numCompBegin, 4
 102              	numCompBegin:
 103 002c 00000000 		.space	4
 104              		.global	numCompEnd
 105              		.align	2
 106              		.type	numCompEnd, %object
 107              		.size	numCompEnd, 4
 108              	numCompEnd:
ARM GAS  C:\Users\bccho\AppData\Local\Temp\ccBO8fce.s 			page 3


 109 0030 00000000 		.space	4
 110              		.global	rowCycles
 111              		.align	2
 112              		.type	rowCycles, %object
 113              		.size	rowCycles, 4
 114              	rowCycles:
 115 0034 00000000 		.space	4
 116              		.global	lineBeginCycles
 117              		.align	2
 118              		.type	lineBeginCycles, %object
 119              		.size	lineBeginCycles, 4
 120              	lineBeginCycles:
 121 0038 00000000 		.space	4
 122              		.global	lineEndCycles
 123              		.align	2
 124              		.type	lineEndCycles, %object
 125              		.size	lineEndCycles, 4
 126              	lineEndCycles:
 127 003c 00000000 		.space	4
 128              		.global	MAIN_CLK_FREQ
 129              		.section	.rodata
 130              		.align	3
 131              		.type	MAIN_CLK_FREQ, %object
 132              		.size	MAIN_CLK_FREQ, 8
 133              	MAIN_CLK_FREQ:
 134 0000 00000000 		.word	0
 135 0004 006AF840 		.word	1090021888
 136              		.global	MIN_TIME_SERVO
 137              		.align	3
 138              		.type	MIN_TIME_SERVO, %object
 139              		.size	MIN_TIME_SERVO, 8
 140              	MIN_TIME_SERVO:
 141 0008 158C4AEA 		.word	-364213227
 142 000c 0434513F 		.word	1062286340
 143              		.global	MAX_TIME_SERVO
 144              		.align	3
 145              		.type	MAX_TIME_SERVO, %object
 146              		.size	MAX_TIME_SERVO, 8
 147              	MAX_TIME_SERVO:
 148 0010 8E40BCAE 		.word	-1363394418
 149 0014 5FB05B3F 		.word	1062973535
 150              		.global	CAMERA_TIMER_PERIOD
 151              		.align	3
 152              		.type	CAMERA_TIMER_PERIOD, %object
 153              		.size	CAMERA_TIMER_PERIOD, 8
 154              	CAMERA_TIMER_PERIOD:
 155 0018 00000000 		.word	0
 156 001c 0000F040 		.word	1089470464
 157              		.global	EXPECTED_ROW_CYCLES
 158              		.align	3
 159              		.type	EXPECTED_ROW_CYCLES, %object
 160              		.size	EXPECTED_ROW_CYCLES, 8
 161              	EXPECTED_ROW_CYCLES:
 162 0020 00000000 		.word	0
 163 0024 00208640 		.word	1082531840
 164              		.global	test6
 165              		.bss
ARM GAS  C:\Users\bccho\AppData\Local\Temp\ccBO8fce.s 			page 4


 166              		.align	2
 167              		.type	test6, %object
 168              		.size	test6, 4
 169              	test6:
 170 0040 00000000 		.space	4
 171              		.global	test7
 172              		.align	2
 173              		.type	test7, %object
 174              		.size	test7, 4
 175              	test7:
 176 0044 00000000 		.space	4
 177              		.global	test8
 178              		.align	2
 179              		.type	test8, %object
 180              		.size	test8, 4
 181              	test8:
 182 0048 00000000 		.space	4
 183              		.global	test9
 184              		.align	2
 185              		.type	test9, %object
 186              		.size	test9, 4
 187              	test9:
 188 004c 00000000 		.space	4
 189              		.global	lineMid
 190              		.align	3
 191              		.type	lineMid, %object
 192              		.size	lineMid, 8
 193              	lineMid:
 194 0050 00000000 		.space	8
 194      00000000 
 195              		.global	__aeabi_d2iz
 196              		.global	__aeabi_i2d
 197              		.section	.text.floor,"ax",%progbits
 198              		.align	2
 199              		.global	floor
 200              		.thumb
 201              		.thumb_func
 202              		.type	floor, %function
 203              	floor:
 204              	.LFB29:
 205              		.file 1 ".\\main.c"
   1:.\main.c      **** /*-----------------------------------------------------------------*/
   2:.\main.c      **** /* main.c                                                          */
   3:.\main.c      **** /*                                                                 */
   4:.\main.c      **** /* BC Cho (bccho@) and TJ Smith (tjs8@)                            */
   5:.\main.c      **** /*-----------------------------------------------------------------*/
   6:.\main.c      **** #include <device.h>
   7:.\main.c      **** #include <stdio.h>
   8:.\main.c      **** #include <speedcontrol.h>
   9:.\main.c      **** #include <serial.h>
  10:.\main.c      **** 
  11:.\main.c      **** char buildVersion[] = "Build 1.0.0";
  12:.\main.c      **** char strbuffer[100];
  13:.\main.c      **** 
  14:.\main.c      **** // Function prototypes
  15:.\main.c      **** void parseMessage();
  16:.\main.c      **** 
ARM GAS  C:\Users\bccho\AppData\Local\Temp\ccBO8fce.s 			page 5


  17:.\main.c      **** 
  18:.\main.c      **** int buttonInterrupted = 0;
  19:.\main.c      **** int rxInterrupted = 0;
  20:.\main.c      **** int wheelTickInterrupted = 0;
  21:.\main.c      **** int tickTimeoutInterrupted = 0;
  22:.\main.c      **** int pidTimerInterrupted = 0;
  23:.\main.c      **** int camCompRiseInterrupted = 0;
  24:.\main.c      **** int camCompFallInterrupted = 0;
  25:.\main.c      **** int camRowInterrupted = 0;
  26:.\main.c      **** int camFrameInterrupted = 0;
  27:.\main.c      **** 
  28:.\main.c      **** int numFrames = 0;
  29:.\main.c      **** int numRows = 0;
  30:.\main.c      **** int numCompBegin = 0;
  31:.\main.c      **** int numCompEnd = 0;
  32:.\main.c      **** int rowCycles = 0;
  33:.\main.c      **** int lineBeginCycles = 0;
  34:.\main.c      **** int lineEndCycles = 0;
  35:.\main.c      **** #define CAM_CLK_FREQ 12000000
  36:.\main.c      **** const double MAIN_CLK_FREQ = 100000;
  37:.\main.c      **** 
  38:.\main.c      **** // Control pulse times in s
  39:.\main.c      **** const double MIN_TIME_SERVO = 0.00105;
  40:.\main.c      **** const double MAX_TIME_SERVO = 0.00169;
  41:.\main.c      **** 
  42:.\main.c      **** const double CAMERA_TIMER_PERIOD = 65536;
  43:.\main.c      **** 
  44:.\main.c      **** #define EXPECTED_ROW_TIME 0.000059
  45:.\main.c      **** const double EXPECTED_ROW_CYCLES = EXPECTED_ROW_TIME * CAM_CLK_FREQ;
  46:.\main.c      **** 
  47:.\main.c      **** int test6 = 0;
  48:.\main.c      **** int test7 = 0;
  49:.\main.c      **** int test8 = 0;
  50:.\main.c      **** int test9 = 0;
  51:.\main.c      **** 
  52:.\main.c      **** double lineMid = 0;
  53:.\main.c      **** 
  54:.\main.c      **** double floor(double a) {
  55:.\main.c      ****     return (double) (int) a;
 206              		.loc 1 55 0
 207              		.cfi_startproc
 208              		@ args = 0, pretend = 0, frame = 8
 209              		@ frame_needed = 1, uses_anonymous_args = 0
 210 0000 80B5     		push	{r7, lr}
 211              	.LCFI0:
 212              		.cfi_def_cfa_offset 8
 213 0002 82B0     		sub	sp, sp, #8
 214              	.LCFI1:
 215              		.cfi_def_cfa_offset 16
 216 0004 00AF     		add	r7, sp, #0
 217              		.cfi_offset 14, -4
 218              		.cfi_offset 7, -8
 219              	.LCFI2:
 220              		.cfi_def_cfa_register 7
 221 0006 C7E90001 		strd	r0, [r7]
 222              		.loc 1 55 0
 223 000a D7E90001 		ldrd	r0, [r7]
ARM GAS  C:\Users\bccho\AppData\Local\Temp\ccBO8fce.s 			page 6


 224 000e FFF7FEFF 		bl	__aeabi_d2iz
 225 0012 0346     		mov	r3, r0
 226 0014 1846     		mov	r0, r3
 227 0016 FFF7FEFF 		bl	__aeabi_i2d
 228 001a 0246     		mov	r2, r0
 229 001c 0B46     		mov	r3, r1
  56:.\main.c      **** }
 230              		.loc 1 56 0
 231 001e 1046     		mov	r0, r2
 232 0020 1946     		mov	r1, r3
 233 0022 07F10807 		add	r7, r7, #8
 234 0026 BD46     		mov	sp, r7
 235 0028 80BD     		pop	{r7, pc}
 236              		.cfi_endproc
 237              	.LFE29:
 238              		.size	floor, .-floor
 239              		.global	__aeabi_dadd
 240 002a 00BF     		.section	.text.ceil,"ax",%progbits
 241              		.align	2
 242              		.global	ceil
 243              		.thumb
 244              		.thumb_func
 245              		.type	ceil, %function
 246              	ceil:
 247              	.LFB30:
  57:.\main.c      **** 
  58:.\main.c      **** double ceil(double a) {
  59:.\main.c      ****     return floor(a) + 1;
 248              		.loc 1 59 0
 249              		.cfi_startproc
 250              		@ args = 0, pretend = 0, frame = 8
 251              		@ frame_needed = 1, uses_anonymous_args = 0
 252 0000 80B5     		push	{r7, lr}
 253              	.LCFI3:
 254              		.cfi_def_cfa_offset 8
 255 0002 82B0     		sub	sp, sp, #8
 256              	.LCFI4:
 257              		.cfi_def_cfa_offset 16
 258 0004 00AF     		add	r7, sp, #0
 259              		.cfi_offset 14, -4
 260              		.cfi_offset 7, -8
 261              	.LCFI5:
 262              		.cfi_def_cfa_register 7
 263 0006 C7E90001 		strd	r0, [r7]
 264              		.loc 1 59 0
 265 000a D7E90001 		ldrd	r0, [r7]
 266 000e FFF7FEFF 		bl	floor
 267 0012 0246     		mov	r2, r0
 268 0014 0B46     		mov	r3, r1
 269 0016 1046     		mov	r0, r2
 270 0018 1946     		mov	r1, r3
 271 001a 4FF00002 		mov	r2, #0
 272 001e 4FF07E53 		mov	r3, #1065353216
 273 0022 03F5E003 		add	r3, r3, #7340032
 274 0026 FFF7FEFF 		bl	__aeabi_dadd
 275 002a 0246     		mov	r2, r0
 276 002c 0B46     		mov	r3, r1
ARM GAS  C:\Users\bccho\AppData\Local\Temp\ccBO8fce.s 			page 7


  60:.\main.c      **** }
 277              		.loc 1 60 0
 278 002e 1046     		mov	r0, r2
 279 0030 1946     		mov	r1, r3
 280 0032 07F10807 		add	r7, r7, #8
 281 0036 BD46     		mov	sp, r7
 282 0038 80BD     		pop	{r7, pc}
 283              		.cfi_endproc
 284              	.LFE30:
 285              		.size	ceil, .-ceil
 286 003a 00BF     		.section	.rodata
 287              		.align	2
 288              	.LC0:
 289 0028 25335B41 		.ascii	"%3[A-Za-z]\000"
 289      2D5A612D 
 289      7A5D00
 290 0033 00       		.align	2
 291              	.LC1:
 292 0034 435400   		.ascii	"CT\000"
 293 0037 00       		.align	2
 294              	.LC2:
 295 0038 256900   		.ascii	"%i\000"
 296 003b 00       		.align	2
 297              	.LC3:
 298 003c 5468726F 		.ascii	"Throttle = %i\012\000"
 298      74746C65 
 298      203D2025 
 298      690A00
 299 004b 00       		.align	2
 300              	.LC4:
 301 004c 4700     		.ascii	"G\000"
 302 004e 0000     		.align	2
 303              	.LC5:
 304 0050 5468726F 		.ascii	"Throttle: %d\012Speed: %f ft/s\012P = %.2f\011I = %"
 304      74746C65 
 304      3A202564 
 304      0A537065 
 304      65643A20 
 305 007a 2E326609 		.ascii	".2f\011D = %.2f\012\000"
 305      44203D20 
 305      252E3266 
 305      0A00
 306              		.align	2
 307              	.LC6:
 308 0088 545000   		.ascii	"TP\000"
 309 008b 00       		.align	2
 310              	.LC7:
 311 008c 50494420 		.ascii	"PID control on\012\000"
 311      636F6E74 
 311      726F6C20 
 311      6F6E0A00 
 312              		.align	2
 313              	.LC8:
 314 009c 50494420 		.ascii	"PID control off\012\000"
 314      636F6E74 
 314      726F6C20 
 314      6F66660A 
ARM GAS  C:\Users\bccho\AppData\Local\Temp\ccBO8fce.s 			page 8


 314      00
 315 00ad 000000   		.align	2
 316              	.LC9:
 317 00b0 54444300 		.ascii	"TDC\000"
 318              		.align	2
 319              	.LC10:
 320 00b4 44697374 		.ascii	"Distance control on\012\000"
 320      616E6365 
 320      20636F6E 
 320      74726F6C 
 320      206F6E0A 
 321 00c9 000000   		.align	2
 322              	.LC11:
 323 00cc 44697374 		.ascii	"Distance control off\012\000"
 323      616E6365 
 323      20636F6E 
 323      74726F6C 
 323      206F6666 
 324 00e2 0000     		.align	2
 325              	.LC12:
 326 00e4 54445300 		.ascii	"TDS\000"
 327              		.align	2
 328              	.LC13:
 329 00e8 44796E61 		.ascii	"Dynamic target speed update on\012\000"
 329      6D696320 
 329      74617267 
 329      65742073 
 329      70656564 
 330              		.align	2
 331              	.LC14:
 332 0108 44796E61 		.ascii	"Dynamic target speed update off\012\000"
 332      6D696320 
 332      74617267 
 332      65742073 
 332      70656564 
 333 0129 000000   		.align	2
 334              	.LC15:
 335 012c 435000   		.ascii	"CP\000"
 336 012f 00       		.align	2
 337              	.LC16:
 338 0130 50203D20 		.ascii	"P = %.2f\012\000"
 338      252E3266 
 338      0A00
 339 013a 0000     		.align	2
 340              	.LC17:
 341 013c 434900   		.ascii	"CI\000"
 342 013f 00       		.align	2
 343              	.LC18:
 344 0140 256C6600 		.ascii	"%lf\000"
 345              		.align	2
 346              	.LC19:
 347 0144 49203D20 		.ascii	"I = %.2f\012\000"
 347      252E3266 
 347      0A00
 348 014e 0000     		.align	2
 349              	.LC20:
 350 0150 434400   		.ascii	"CD\000"
ARM GAS  C:\Users\bccho\AppData\Local\Temp\ccBO8fce.s 			page 9


 351 0153 00       		.align	2
 352              	.LC21:
 353 0154 44203D20 		.ascii	"D = %.2f\012\000"
 353      252E3266 
 353      0A00
 354 015e 0000     		.align	2
 355              	.LC22:
 356 0160 43535300 		.ascii	"CSS\000"
 357              		.align	2
 358              	.LC23:
 359 0164 53532054 		.ascii	"SS Throttle = %i\012\000"
 359      68726F74 
 359      746C6520 
 359      3D202569 
 359      0A00
 360 0176 0000     		.align	2
 361              	.LC24:
 362 0178 43545300 		.ascii	"CTS\000"
 363              		.align	2
 364              	.LC25:
 365 017c 54617267 		.ascii	"Target Speed = %f ft/s\012\000"
 365      65742053 
 365      70656564 
 365      203D2025 
 365      66206674 
 366              		.align	2
 367              	.LC26:
 368 0194 43544400 		.ascii	"CTD\000"
 369              		.align	2
 370              	.LC27:
 371 0198 54617267 		.ascii	"Target distance = %.2f ft\012\000"
 371      65742064 
 371      69737461 
 371      6E636520 
 371      3D20252E 
 372 01b3 00       		.align	2
 373              	.LC28:
 374 01b4 54565000 		.ascii	"TVP\000"
 375              		.align	2
 376              	.LC29:
 377 01b8 56657262 		.ascii	"Verbose printout on\012\000"
 377      6F736520 
 377      7072696E 
 377      746F7574 
 377      206F6E0A 
 378 01cd 000000   		.align	2
 379              	.LC30:
 380 01d0 56657262 		.ascii	"Verbose printout off\012\000"
 380      6F736520 
 380      7072696E 
 380      746F7574 
 380      206F6666 
 381 01e6 0000     		.align	2
 382              	.LC31:
 383 01e8 4100     		.ascii	"A\000"
 384 01ea 0000     		.align	2
 385              	.LC32:
ARM GAS  C:\Users\bccho\AppData\Local\Temp\ccBO8fce.s 			page 10


 386 01ec 474300   		.ascii	"GC\000"
 387 01ef 00       		.align	2
 388              	.LC33:
 389 01f0 4672616D 		.ascii	"Frame count = %d\012Row count = %d\012Comparator co"
 389      6520636F 
 389      756E7420 
 389      3D202564 
 389      0A526F77 
 390 021d 756E7473 		.ascii	"unts (begin) = %d\012Comparator counts (end) = %d\012"
 390      20286265 
 390      67696E29 
 390      203D2025 
 390      640A436F 
 391 024c 526F7720 		.ascii	"Row cycles = %d\012Line begin cycles = %d\012Line e"
 391      6379636C 
 391      6573203D 
 391      2025640A 
 391      4C696E65 
 392 0279 6E642063 		.ascii	"nd cycles = %d\012\000"
 392      79636C65 
 392      73203D20 
 392      25640A00 
 393 0289 000000   		.align	2
 394              	.LC34:
 395 028c 475400   		.ascii	"GT\000"
 396 028f 00       		.align	2
 397              	.LC35:
 398 0290 4672616D 		.ascii	"Frame count = %d\012Comparator counts (begin) = %d\012"
 398      6520636F 
 398      756E7420 
 398      3D202564 
 398      0A436F6D 
 399 02c0 436F6D70 		.ascii	"Comparator counts (end) = %d\012Line begin cycles ="
 399      61726174 
 399      6F722063 
 399      6F756E74 
 399      73202865 
 400 02f0 2025640A 		.ascii	" %d\012Line end cycles = %d\012\000"
 400      4C696E65 
 400      20656E64 
 400      20637963 
 400      6C657320 
 401 030a 0000     		.align	2
 402              	.LC36:
 403 030c 363A2025 		.ascii	"6: %d\0127: %d\0129: %d\012Line mid: %f\012\000"
 403      640A373A 
 403      2025640A 
 403      393A2025 
 403      640A4C69 
 404              		.align	2
 405              	.LC37:
 406 032c 524300   		.ascii	"RC\000"
 407 032f 00       		.align	2
 408              	.LC38:
 409 0330 43616D65 		.ascii	"Camera variables reset\012\000"
 409      72612076 
 409      61726961 
ARM GAS  C:\Users\bccho\AppData\Local\Temp\ccBO8fce.s 			page 11


 409      626C6573 
 409      20726573 
 410              		.align	2
 411              	.LC39:
 412 0348 435300   		.ascii	"CS\000"
 413              		.global	__aeabi_dcmpgt
 414              		.global	__aeabi_dcmplt
 415              		.global	__aeabi_dsub
 416              		.global	__aeabi_dmul
 417              		.global	__aeabi_d2uiz
 418              		.global	__aeabi_ddiv
 419 034b 00       		.align	2
 420              	.LC40:
 421 034c 53657276 		.ascii	"Servo set to %.3f (%.3f ms)\012\000"
 421      6F207365 
 421      7420746F 
 421      20252E33 
 421      66202825 
 422              		.section	.text.parseMessage,"ax",%progbits
 423              		.align	2
 424              		.global	parseMessage
 425              		.thumb
 426              		.thumb_func
 427              		.type	parseMessage, %function
 428              	parseMessage:
 429              	.LFB31:
  61:.\main.c      **** 
  62:.\main.c      **** /*
  63:.\main.c      ****  * parseMessage()
  64:.\main.c      ****  *
  65:.\main.c      ****  * Parse serial input string and act on it
  66:.\main.c      ****  *
  67:.\main.c      ****  * Inputs: message
  68:.\main.c      ****  * Returns: none
  69:.\main.c      ****  */
  70:.\main.c      **** void parseMessage(char *message) {
 430              		.loc 1 70 0
 431              		.cfi_startproc
 432              		@ args = 0, pretend = 0, frame = 104
 433              		@ frame_needed = 1, uses_anonymous_args = 0
 434 0000 2DE9F04F 		push	{r4, r5, r6, r7, r8, r9, sl, fp, lr}
 435              	.LCFI6:
 436              		.cfi_def_cfa_offset 36
 437 0004 A3B0     		sub	sp, sp, #140
 438              	.LCFI7:
 439              		.cfi_def_cfa_offset 176
 440 0006 08AF     		add	r7, sp, #32
 441              		.cfi_offset 14, -4
 442              		.cfi_offset 11, -8
 443              		.cfi_offset 10, -12
 444              		.cfi_offset 9, -16
 445              		.cfi_offset 8, -20
 446              		.cfi_offset 7, -24
 447              		.cfi_offset 6, -28
 448              		.cfi_offset 5, -32
 449              		.cfi_offset 4, -36
 450              	.LCFI8:
ARM GAS  C:\Users\bccho\AppData\Local\Temp\ccBO8fce.s 			page 12


 451              		.cfi_def_cfa 7, 144
 452 0008 7860     		str	r0, [r7, #4]
  71:.\main.c      ****     if (message == NULL) return;
 453              		.loc 1 71 0
 454 000a 7B68     		ldr	r3, [r7, #4]
 455 000c 002B     		cmp	r3, #0
 456 000e 00F0E184 		beq	.L59
 457              	.L6:
  72:.\main.c      ****     
  73:.\main.c      ****     char msgPrefix[4];
  74:.\main.c      ****     if (sscanf(message, "%3[A-Za-z]", msgPrefix) == 1) {
 458              		.loc 1 74 0
 459 0012 07F13803 		add	r3, r7, #56
 460 0016 7868     		ldr	r0, [r7, #4]
 461 0018 40F20001 		movw	r1, #:lower16:.LC0
 462 001c C0F20001 		movt	r1, #:upper16:.LC0
 463 0020 1A46     		mov	r2, r3
 464 0022 FFF7FEFF 		bl	sscanf
 465 0026 0346     		mov	r3, r0
 466 0028 012B     		cmp	r3, #1
 467 002a 40F0D484 		bne	.L58
 468              	.LBB2:
  75:.\main.c      ****         int prefixLen = strlen(msgPrefix);
 469              		.loc 1 75 0
 470 002e 07F13803 		add	r3, r7, #56
 471 0032 1846     		mov	r0, r3
 472 0034 FFF7FEFF 		bl	strlen
 473 0038 0346     		mov	r3, r0
 474 003a FB63     		str	r3, [r7, #60]
  76:.\main.c      ****         
  77:.\main.c      ****         // Messages of the form "CTx" (x integer) set the duty cycle to x out of MAX_THROTTLE
  78:.\main.c      ****         if (strcmp(msgPrefix, "CT") == 0) {
 475              		.loc 1 78 0
 476 003c 07F13803 		add	r3, r7, #56
 477 0040 1846     		mov	r0, r3
 478 0042 40F20001 		movw	r1, #:lower16:.LC1
 479 0046 C0F20001 		movt	r1, #:upper16:.LC1
 480 004a FFF7FEFF 		bl	strcmp
 481 004e 0346     		mov	r3, r0
 482 0050 002B     		cmp	r3, #0
 483 0052 2CD1     		bne	.L8
 484              	.LBB3:
  79:.\main.c      ****             int value = 0;
 485              		.loc 1 79 0
 486 0054 4FF00003 		mov	r3, #0
 487 0058 7B63     		str	r3, [r7, #52]
  80:.\main.c      ****             if (sscanf(message + prefixLen, "%i", &value) > 0) {
 488              		.loc 1 80 0
 489 005a FA6B     		ldr	r2, [r7, #60]
 490 005c 7B68     		ldr	r3, [r7, #4]
 491 005e 1A44     		add	r2, r2, r3
 492 0060 07F13403 		add	r3, r7, #52
 493 0064 1046     		mov	r0, r2
 494 0066 40F20001 		movw	r1, #:lower16:.LC2
 495 006a C0F20001 		movt	r1, #:upper16:.LC2
 496 006e 1A46     		mov	r2, r3
 497 0070 FFF7FEFF 		bl	sscanf
ARM GAS  C:\Users\bccho\AppData\Local\Temp\ccBO8fce.s 			page 13


 498 0074 0346     		mov	r3, r0
 499 0076 002B     		cmp	r3, #0
 500 0078 03DD     		ble	.L9
  81:.\main.c      ****                 SpeedControl_setThrottle(value);
 501              		.loc 1 81 0
 502 007a 7B6B     		ldr	r3, [r7, #52]
 503 007c 1846     		mov	r0, r3
 504 007e FFF7FEFF 		bl	SpeedControl_setThrottle
 505              	.L9:
  82:.\main.c      ****             }
  83:.\main.c      ****             sprintf(strbuffer, "Throttle = %i\n", SpeedControl_getThrottle());
 506              		.loc 1 83 0
 507 0082 FFF7FEFF 		bl	SpeedControl_getThrottle
 508 0086 0346     		mov	r3, r0
 509 0088 40F20000 		movw	r0, #:lower16:strbuffer
 510 008c C0F20000 		movt	r0, #:upper16:strbuffer
 511 0090 40F20001 		movw	r1, #:lower16:.LC3
 512 0094 C0F20001 		movt	r1, #:upper16:.LC3
 513 0098 1A46     		mov	r2, r3
 514 009a FFF7FEFF 		bl	sprintf
  84:.\main.c      ****             UART_PutString(strbuffer);
 515              		.loc 1 84 0
 516 009e 40F20000 		movw	r0, #:lower16:strbuffer
 517 00a2 C0F20000 		movt	r0, #:upper16:strbuffer
 518 00a6 FFF7FEFF 		bl	UART_PutString
 519 00aa 00F094BC 		b	.L58
 520              	.L8:
 521              	.LBE3:
  85:.\main.c      ****         }
  86:.\main.c      ****         
  87:.\main.c      ****         // Messages beginning with "G" return the throttle, speed, and PID controls
  88:.\main.c      ****         else if (strcmp(msgPrefix, "G") == 0) {
 522              		.loc 1 88 0
 523 00ae 07F13803 		add	r3, r7, #56
 524 00b2 1846     		mov	r0, r3
 525 00b4 40F20001 		movw	r1, #:lower16:.LC4
 526 00b8 C0F20001 		movt	r1, #:upper16:.LC4
 527 00bc FFF7FEFF 		bl	strcmp
 528 00c0 0346     		mov	r3, r0
 529 00c2 002B     		cmp	r3, #0
 530 00c4 2DD1     		bne	.L10
  89:.\main.c      ****             sprintf(strbuffer, "Throttle: %d\nSpeed: %f ft/s\nP = %.2f\tI = %.2f\tD = %.2f\n", 
 531              		.loc 1 89 0
 532 00c6 FFF7FEFF 		bl	SpeedControl_getThrottle
 533 00ca 0646     		mov	r6, r0
 534 00cc FFF7FEFF 		bl	SpeedControl_getSpeed
 535 00d0 8246     		mov	sl, r0
 536 00d2 8B46     		mov	fp, r1
 537 00d4 FFF7FEFF 		bl	SpeedControl_getP
 538 00d8 8046     		mov	r8, r0
 539 00da 8946     		mov	r9, r1
 540 00dc FFF7FEFF 		bl	SpeedControl_getI
 541 00e0 0446     		mov	r4, r0
 542 00e2 0D46     		mov	r5, r1
 543 00e4 FFF7FEFF 		bl	SpeedControl_getD
 544 00e8 0246     		mov	r2, r0
 545 00ea 0B46     		mov	r3, r1
ARM GAS  C:\Users\bccho\AppData\Local\Temp\ccBO8fce.s 			page 14


 546 00ec CDE900AB 		strd	sl, [sp]
 547 00f0 CDE90289 		strd	r8, [sp, #8]
 548 00f4 CDE90445 		strd	r4, [sp, #16]
 549 00f8 CDE90623 		strd	r2, [sp, #24]
 550 00fc 40F20000 		movw	r0, #:lower16:strbuffer
 551 0100 C0F20000 		movt	r0, #:upper16:strbuffer
 552 0104 40F20001 		movw	r1, #:lower16:.LC5
 553 0108 C0F20001 		movt	r1, #:upper16:.LC5
 554 010c 3246     		mov	r2, r6
 555 010e FFF7FEFF 		bl	sprintf
  90:.\main.c      ****                     SpeedControl_getThrottle(), SpeedControl_getSpeed(), SpeedControl_getP(), 
  91:.\main.c      ****                     SpeedControl_getI(), SpeedControl_getD());
  92:.\main.c      ****             UART_PutString(strbuffer);
 556              		.loc 1 92 0
 557 0112 40F20000 		movw	r0, #:lower16:strbuffer
 558 0116 C0F20000 		movt	r0, #:upper16:strbuffer
 559 011a FFF7FEFF 		bl	UART_PutString
 560 011e 00F05ABC 		b	.L58
 561              	.L10:
  93:.\main.c      ****         }
  94:.\main.c      ****         
  95:.\main.c      ****         // Messages beginning with "TP" toggle PID control
  96:.\main.c      ****         else if (strcmp(msgPrefix, "TP") == 0) {
 562              		.loc 1 96 0
 563 0122 07F13803 		add	r3, r7, #56
 564 0126 1846     		mov	r0, r3
 565 0128 40F20001 		movw	r1, #:lower16:.LC6
 566 012c C0F20001 		movt	r1, #:upper16:.LC6
 567 0130 FFF7FEFF 		bl	strcmp
 568 0134 0346     		mov	r3, r0
 569 0136 002B     		cmp	r3, #0
 570 0138 1ED1     		bne	.L11
  97:.\main.c      ****             if (!SpeedControl_isEnabled()) {
 571              		.loc 1 97 0
 572 013a FFF7FEFF 		bl	SpeedControl_isEnabled
 573 013e 0346     		mov	r3, r0
 574 0140 002B     		cmp	r3, #0
 575 0142 02D1     		bne	.L12
  98:.\main.c      ****                 SpeedControl_enable();
 576              		.loc 1 98 0
 577 0144 FFF7FEFF 		bl	SpeedControl_enable
 578 0148 01E0     		b	.L13
 579              	.L12:
  99:.\main.c      ****             } else {
 100:.\main.c      ****                 SpeedControl_disable();
 580              		.loc 1 100 0
 581 014a FFF7FEFF 		bl	SpeedControl_disable
 582              	.L13:
 101:.\main.c      ****             }
 102:.\main.c      ****             if (SpeedControl_isEnabled()) {
 583              		.loc 1 102 0
 584 014e FFF7FEFF 		bl	SpeedControl_isEnabled
 585 0152 0346     		mov	r3, r0
 586 0154 002B     		cmp	r3, #0
 587 0156 07D0     		beq	.L14
 103:.\main.c      ****                 UART_PutString("PID control on\n");
 588              		.loc 1 103 0
ARM GAS  C:\Users\bccho\AppData\Local\Temp\ccBO8fce.s 			page 15


 589 0158 40F20000 		movw	r0, #:lower16:.LC7
 590 015c C0F20000 		movt	r0, #:upper16:.LC7
 591 0160 FFF7FEFF 		bl	UART_PutString
 104:.\main.c      ****             } else {
 105:.\main.c      ****                 UART_PutString("PID control off\n");
 592              		.loc 1 105 0
 593 0164 00F037BC 		b	.L58
 594              	.L14:
 595 0168 40F20000 		movw	r0, #:lower16:.LC8
 596 016c C0F20000 		movt	r0, #:upper16:.LC8
 597 0170 FFF7FEFF 		bl	UART_PutString
 598 0174 00F02FBC 		b	.L58
 599              	.L11:
 106:.\main.c      ****             }
 107:.\main.c      ****         }
 108:.\main.c      ****         
 109:.\main.c      ****         // Messages of the form "TPT" toggle distance control
 110:.\main.c      ****         else if (strcmp(msgPrefix, "TDC") == 0) {
 600              		.loc 1 110 0
 601 0178 07F13803 		add	r3, r7, #56
 602 017c 1846     		mov	r0, r3
 603 017e 40F20001 		movw	r1, #:lower16:.LC9
 604 0182 C0F20001 		movt	r1, #:upper16:.LC9
 605 0186 FFF7FEFF 		bl	strcmp
 606 018a 0346     		mov	r3, r0
 607 018c 002B     		cmp	r3, #0
 608 018e 1ED1     		bne	.L16
 111:.\main.c      ****             if (!SpeedControl_isDistanceControlEnabled()) {
 609              		.loc 1 111 0
 610 0190 FFF7FEFF 		bl	SpeedControl_isDistanceControlEnabled
 611 0194 0346     		mov	r3, r0
 612 0196 002B     		cmp	r3, #0
 613 0198 02D1     		bne	.L17
 112:.\main.c      ****                 SpeedControl_enableDistanceControl();
 614              		.loc 1 112 0
 615 019a FFF7FEFF 		bl	SpeedControl_enableDistanceControl
 616 019e 01E0     		b	.L18
 617              	.L17:
 113:.\main.c      ****             } else {
 114:.\main.c      ****                 SpeedControl_disableDistanceControl();
 618              		.loc 1 114 0
 619 01a0 FFF7FEFF 		bl	SpeedControl_disableDistanceControl
 620              	.L18:
 115:.\main.c      ****             }
 116:.\main.c      ****             if (SpeedControl_isDistanceControlEnabled()) {
 621              		.loc 1 116 0
 622 01a4 FFF7FEFF 		bl	SpeedControl_isDistanceControlEnabled
 623 01a8 0346     		mov	r3, r0
 624 01aa 002B     		cmp	r3, #0
 625 01ac 07D0     		beq	.L19
 117:.\main.c      ****                 UART_PutString("Distance control on\n");
 626              		.loc 1 117 0
 627 01ae 40F20000 		movw	r0, #:lower16:.LC10
 628 01b2 C0F20000 		movt	r0, #:upper16:.LC10
 629 01b6 FFF7FEFF 		bl	UART_PutString
 118:.\main.c      ****             } else {
 119:.\main.c      ****                 UART_PutString("Distance control off\n");
ARM GAS  C:\Users\bccho\AppData\Local\Temp\ccBO8fce.s 			page 16


 630              		.loc 1 119 0
 631 01ba 00F00CBC 		b	.L58
 632              	.L19:
 633 01be 40F20000 		movw	r0, #:lower16:.LC11
 634 01c2 C0F20000 		movt	r0, #:upper16:.LC11
 635 01c6 FFF7FEFF 		bl	UART_PutString
 636 01ca 00F004BC 		b	.L58
 637              	.L16:
 120:.\main.c      ****             }
 121:.\main.c      ****         }
 122:.\main.c      ****         
 123:.\main.c      ****         // Messages beginning with "TDS" toggle whether we dynamically update target speed to reach
 124:.\main.c      ****         else if (strcmp(msgPrefix, "TDS") == 0) {
 638              		.loc 1 124 0
 639 01ce 07F13803 		add	r3, r7, #56
 640 01d2 1846     		mov	r0, r3
 641 01d4 40F20001 		movw	r1, #:lower16:.LC12
 642 01d8 C0F20001 		movt	r1, #:upper16:.LC12
 643 01dc FFF7FEFF 		bl	strcmp
 644 01e0 0346     		mov	r3, r0
 645 01e2 002B     		cmp	r3, #0
 646 01e4 1CD1     		bne	.L21
 125:.\main.c      ****             if (!SpeedControl_isDynamicTargetUpdateEnabled()) {
 647              		.loc 1 125 0
 648 01e6 FFF7FEFF 		bl	SpeedControl_isDynamicTargetUpdateEnabled
 649 01ea 0346     		mov	r3, r0
 650 01ec 002B     		cmp	r3, #0
 651 01ee 02D1     		bne	.L22
 126:.\main.c      ****                 SpeedControl_enableDynamicTargetUpdate();
 652              		.loc 1 126 0
 653 01f0 FFF7FEFF 		bl	SpeedControl_enableDynamicTargetUpdate
 654 01f4 01E0     		b	.L23
 655              	.L22:
 127:.\main.c      ****             } else {
 128:.\main.c      ****                 SpeedControl_disableDynamicTargetUpdate();
 656              		.loc 1 128 0
 657 01f6 FFF7FEFF 		bl	SpeedControl_disableDynamicTargetUpdate
 658              	.L23:
 129:.\main.c      ****             }
 130:.\main.c      ****             if (SpeedControl_isDynamicTargetUpdateEnabled()) {
 659              		.loc 1 130 0
 660 01fa FFF7FEFF 		bl	SpeedControl_isDynamicTargetUpdateEnabled
 661 01fe 0346     		mov	r3, r0
 662 0200 002B     		cmp	r3, #0
 663 0202 06D0     		beq	.L24
 131:.\main.c      ****                 UART_PutString("Dynamic target speed update on\n");
 664              		.loc 1 131 0
 665 0204 40F20000 		movw	r0, #:lower16:.LC13
 666 0208 C0F20000 		movt	r0, #:upper16:.LC13
 667 020c FFF7FEFF 		bl	UART_PutString
 132:.\main.c      ****             } else {
 133:.\main.c      ****                 UART_PutString("Dynamic target speed update off\n");
 668              		.loc 1 133 0
 669 0210 E1E3     		b	.L58
 670              	.L24:
 671 0212 40F20000 		movw	r0, #:lower16:.LC14
 672 0216 C0F20000 		movt	r0, #:upper16:.LC14
ARM GAS  C:\Users\bccho\AppData\Local\Temp\ccBO8fce.s 			page 17


 673 021a FFF7FEFF 		bl	UART_PutString
 674 021e DAE3     		b	.L58
 675              	.L21:
 134:.\main.c      ****             }
 135:.\main.c      ****         }
 136:.\main.c      ****         
 137:.\main.c      ****         // Messages of the form "CPx" (x integer) change the proportional term to x
 138:.\main.c      ****         else if (strcmp(msgPrefix, "CP") == 0) {
 676              		.loc 1 138 0
 677 0220 07F13803 		add	r3, r7, #56
 678 0224 1846     		mov	r0, r3
 679 0226 40F20001 		movw	r1, #:lower16:.LC15
 680 022a C0F20001 		movt	r1, #:upper16:.LC15
 681 022e FFF7FEFF 		bl	strcmp
 682 0232 0346     		mov	r3, r0
 683 0234 002B     		cmp	r3, #0
 684 0236 31D1     		bne	.L26
 685              	.LBB4:
 139:.\main.c      ****             int value = 0;
 686              		.loc 1 139 0
 687 0238 4FF00003 		mov	r3, #0
 688 023c 3B63     		str	r3, [r7, #48]
 140:.\main.c      ****             if (sscanf(message + prefixLen, "%i", &value) > 0) {
 689              		.loc 1 140 0
 690 023e FA6B     		ldr	r2, [r7, #60]
 691 0240 7B68     		ldr	r3, [r7, #4]
 692 0242 1A44     		add	r2, r2, r3
 693 0244 07F13003 		add	r3, r7, #48
 694 0248 1046     		mov	r0, r2
 695 024a 40F20001 		movw	r1, #:lower16:.LC2
 696 024e C0F20001 		movt	r1, #:upper16:.LC2
 697 0252 1A46     		mov	r2, r3
 698 0254 FFF7FEFF 		bl	sscanf
 699 0258 0346     		mov	r3, r0
 700 025a 002B     		cmp	r3, #0
 701 025c 09DD     		ble	.L27
 141:.\main.c      ****                 SpeedControl_setP(value);
 702              		.loc 1 141 0
 703 025e 3B6B     		ldr	r3, [r7, #48]
 704 0260 1846     		mov	r0, r3
 705 0262 FFF7FEFF 		bl	__aeabi_i2d
 706 0266 0246     		mov	r2, r0
 707 0268 0B46     		mov	r3, r1
 708 026a 1046     		mov	r0, r2
 709 026c 1946     		mov	r1, r3
 710 026e FFF7FEFF 		bl	SpeedControl_setP
 711              	.L27:
 142:.\main.c      ****             }
 143:.\main.c      **** 
 144:.\main.c      ****             sprintf(strbuffer, "P = %.2f\n", SpeedControl_getP());
 712              		.loc 1 144 0
 713 0272 FFF7FEFF 		bl	SpeedControl_getP
 714 0276 0246     		mov	r2, r0
 715 0278 0B46     		mov	r3, r1
 716 027a 40F20000 		movw	r0, #:lower16:strbuffer
 717 027e C0F20000 		movt	r0, #:upper16:strbuffer
 718 0282 40F20001 		movw	r1, #:lower16:.LC16
ARM GAS  C:\Users\bccho\AppData\Local\Temp\ccBO8fce.s 			page 18


 719 0286 C0F20001 		movt	r1, #:upper16:.LC16
 720 028a FFF7FEFF 		bl	sprintf
 145:.\main.c      ****             UART_PutString(strbuffer);
 721              		.loc 1 145 0
 722 028e 40F20000 		movw	r0, #:lower16:strbuffer
 723 0292 C0F20000 		movt	r0, #:upper16:strbuffer
 724 0296 FFF7FEFF 		bl	UART_PutString
 725 029a 9CE3     		b	.L58
 726              	.L26:
 727              	.LBE4:
 146:.\main.c      ****         }
 147:.\main.c      ****         
 148:.\main.c      ****         // Messages of the form "CIx" (x float) change the integral term to x
 149:.\main.c      ****         else if (strcmp(msgPrefix, "CI") == 0) {
 728              		.loc 1 149 0
 729 029c 07F13803 		add	r3, r7, #56
 730 02a0 1846     		mov	r0, r3
 731 02a2 40F20001 		movw	r1, #:lower16:.LC17
 732 02a6 C0F20001 		movt	r1, #:upper16:.LC17
 733 02aa FFF7FEFF 		bl	strcmp
 734 02ae 0346     		mov	r3, r0
 735 02b0 002B     		cmp	r3, #0
 736 02b2 30D1     		bne	.L28
 737              	.LBB5:
 150:.\main.c      ****             double value = 0;
 738              		.loc 1 150 0
 739 02b4 4FF00002 		mov	r2, #0
 740 02b8 4FF00003 		mov	r3, #0
 741 02bc C7E90A23 		strd	r2, [r7, #40]
 151:.\main.c      ****             if (sscanf(message + prefixLen, "%lf", &value) > 0) {
 742              		.loc 1 151 0
 743 02c0 FA6B     		ldr	r2, [r7, #60]
 744 02c2 7B68     		ldr	r3, [r7, #4]
 745 02c4 1A44     		add	r2, r2, r3
 746 02c6 07F12803 		add	r3, r7, #40
 747 02ca 1046     		mov	r0, r2
 748 02cc 40F20001 		movw	r1, #:lower16:.LC18
 749 02d0 C0F20001 		movt	r1, #:upper16:.LC18
 750 02d4 1A46     		mov	r2, r3
 751 02d6 FFF7FEFF 		bl	sscanf
 752 02da 0346     		mov	r3, r0
 753 02dc 002B     		cmp	r3, #0
 754 02de 05DD     		ble	.L29
 152:.\main.c      ****                 SpeedControl_setI(value);
 755              		.loc 1 152 0
 756 02e0 D7E90A23 		ldrd	r2, [r7, #40]
 757 02e4 1046     		mov	r0, r2
 758 02e6 1946     		mov	r1, r3
 759 02e8 FFF7FEFF 		bl	SpeedControl_setI
 760              	.L29:
 153:.\main.c      ****             }
 154:.\main.c      **** 
 155:.\main.c      ****             sprintf(strbuffer, "I = %.2f\n", SpeedControl_getI());
 761              		.loc 1 155 0
 762 02ec FFF7FEFF 		bl	SpeedControl_getI
 763 02f0 0246     		mov	r2, r0
 764 02f2 0B46     		mov	r3, r1
ARM GAS  C:\Users\bccho\AppData\Local\Temp\ccBO8fce.s 			page 19


 765 02f4 40F20000 		movw	r0, #:lower16:strbuffer
 766 02f8 C0F20000 		movt	r0, #:upper16:strbuffer
 767 02fc 40F20001 		movw	r1, #:lower16:.LC19
 768 0300 C0F20001 		movt	r1, #:upper16:.LC19
 769 0304 FFF7FEFF 		bl	sprintf
 156:.\main.c      ****             UART_PutString(strbuffer);
 770              		.loc 1 156 0
 771 0308 40F20000 		movw	r0, #:lower16:strbuffer
 772 030c C0F20000 		movt	r0, #:upper16:strbuffer
 773 0310 FFF7FEFF 		bl	UART_PutString
 774 0314 5FE3     		b	.L58
 775              	.L28:
 776              	.LBE5:
 157:.\main.c      ****         }
 158:.\main.c      ****         
 159:.\main.c      ****         // Messages of the form "CDx" (x integer) change the derivative term to x
 160:.\main.c      ****         else if (strcmp(msgPrefix, "CD") == 0) {
 777              		.loc 1 160 0
 778 0316 07F13803 		add	r3, r7, #56
 779 031a 1846     		mov	r0, r3
 780 031c 40F20001 		movw	r1, #:lower16:.LC20
 781 0320 C0F20001 		movt	r1, #:upper16:.LC20
 782 0324 FFF7FEFF 		bl	strcmp
 783 0328 0346     		mov	r3, r0
 784 032a 002B     		cmp	r3, #0
 785 032c 31D1     		bne	.L30
 786              	.LBB6:
 161:.\main.c      ****             int value = 0;
 787              		.loc 1 161 0
 788 032e 4FF00003 		mov	r3, #0
 789 0332 7B62     		str	r3, [r7, #36]
 162:.\main.c      ****             if (sscanf(message + prefixLen, "%i", &value) > 0) {
 790              		.loc 1 162 0
 791 0334 FA6B     		ldr	r2, [r7, #60]
 792 0336 7B68     		ldr	r3, [r7, #4]
 793 0338 1A44     		add	r2, r2, r3
 794 033a 07F12403 		add	r3, r7, #36
 795 033e 1046     		mov	r0, r2
 796 0340 40F20001 		movw	r1, #:lower16:.LC2
 797 0344 C0F20001 		movt	r1, #:upper16:.LC2
 798 0348 1A46     		mov	r2, r3
 799 034a FFF7FEFF 		bl	sscanf
 800 034e 0346     		mov	r3, r0
 801 0350 002B     		cmp	r3, #0
 802 0352 09DD     		ble	.L31
 163:.\main.c      ****                 SpeedControl_setD(value);
 803              		.loc 1 163 0
 804 0354 7B6A     		ldr	r3, [r7, #36]
 805 0356 1846     		mov	r0, r3
 806 0358 FFF7FEFF 		bl	__aeabi_i2d
 807 035c 0246     		mov	r2, r0
 808 035e 0B46     		mov	r3, r1
 809 0360 1046     		mov	r0, r2
 810 0362 1946     		mov	r1, r3
 811 0364 FFF7FEFF 		bl	SpeedControl_setD
 812              	.L31:
 164:.\main.c      ****             }
ARM GAS  C:\Users\bccho\AppData\Local\Temp\ccBO8fce.s 			page 20


 165:.\main.c      **** 
 166:.\main.c      ****             sprintf(strbuffer, "D = %.2f\n", SpeedControl_getD());
 813              		.loc 1 166 0
 814 0368 FFF7FEFF 		bl	SpeedControl_getD
 815 036c 0246     		mov	r2, r0
 816 036e 0B46     		mov	r3, r1
 817 0370 40F20000 		movw	r0, #:lower16:strbuffer
 818 0374 C0F20000 		movt	r0, #:upper16:strbuffer
 819 0378 40F20001 		movw	r1, #:lower16:.LC21
 820 037c C0F20001 		movt	r1, #:upper16:.LC21
 821 0380 FFF7FEFF 		bl	sprintf
 167:.\main.c      ****             UART_PutString(strbuffer);
 822              		.loc 1 167 0
 823 0384 40F20000 		movw	r0, #:lower16:strbuffer
 824 0388 C0F20000 		movt	r0, #:upper16:strbuffer
 825 038c FFF7FEFF 		bl	UART_PutString
 826 0390 21E3     		b	.L58
 827              	.L30:
 828              	.LBE6:
 168:.\main.c      ****         }
 169:.\main.c      ****         
 170:.\main.c      ****         // Messages of the form "CSSx" (x integer) change steady state throttle to x
 171:.\main.c      ****          else if (strcmp(msgPrefix, "CSS") == 0) {
 829              		.loc 1 171 0
 830 0392 07F13803 		add	r3, r7, #56
 831 0396 1846     		mov	r0, r3
 832 0398 40F20001 		movw	r1, #:lower16:.LC22
 833 039c C0F20001 		movt	r1, #:upper16:.LC22
 834 03a0 FFF7FEFF 		bl	strcmp
 835 03a4 0346     		mov	r3, r0
 836 03a6 002B     		cmp	r3, #0
 837 03a8 2BD1     		bne	.L32
 838              	.LBB7:
 172:.\main.c      ****             int value = 0;
 839              		.loc 1 172 0
 840 03aa 4FF00003 		mov	r3, #0
 841 03ae 3B62     		str	r3, [r7, #32]
 173:.\main.c      ****             if (sscanf(message + prefixLen, "%i", &value) > 0) {
 842              		.loc 1 173 0
 843 03b0 FA6B     		ldr	r2, [r7, #60]
 844 03b2 7B68     		ldr	r3, [r7, #4]
 845 03b4 1A44     		add	r2, r2, r3
 846 03b6 07F12003 		add	r3, r7, #32
 847 03ba 1046     		mov	r0, r2
 848 03bc 40F20001 		movw	r1, #:lower16:.LC2
 849 03c0 C0F20001 		movt	r1, #:upper16:.LC2
 850 03c4 1A46     		mov	r2, r3
 851 03c6 FFF7FEFF 		bl	sscanf
 852 03ca 0346     		mov	r3, r0
 853 03cc 002B     		cmp	r3, #0
 854 03ce 03DD     		ble	.L33
 174:.\main.c      ****                 SpeedControl_setSteadyStateThrottle(value);
 855              		.loc 1 174 0
 856 03d0 3B6A     		ldr	r3, [r7, #32]
 857 03d2 1846     		mov	r0, r3
 858 03d4 FFF7FEFF 		bl	SpeedControl_setSteadyStateThrottle
 859              	.L33:
ARM GAS  C:\Users\bccho\AppData\Local\Temp\ccBO8fce.s 			page 21


 175:.\main.c      ****             }
 176:.\main.c      ****             
 177:.\main.c      ****             sprintf(strbuffer, "SS Throttle = %i\n", SpeedControl_getSteadyStateThrottle());
 860              		.loc 1 177 0
 861 03d8 FFF7FEFF 		bl	SpeedControl_getSteadyStateThrottle
 862 03dc 0346     		mov	r3, r0
 863 03de 40F20000 		movw	r0, #:lower16:strbuffer
 864 03e2 C0F20000 		movt	r0, #:upper16:strbuffer
 865 03e6 40F20001 		movw	r1, #:lower16:.LC23
 866 03ea C0F20001 		movt	r1, #:upper16:.LC23
 867 03ee 1A46     		mov	r2, r3
 868 03f0 FFF7FEFF 		bl	sprintf
 178:.\main.c      ****             UART_PutString(strbuffer);
 869              		.loc 1 178 0
 870 03f4 40F20000 		movw	r0, #:lower16:strbuffer
 871 03f8 C0F20000 		movt	r0, #:upper16:strbuffer
 872 03fc FFF7FEFF 		bl	UART_PutString
 873 0400 E9E2     		b	.L58
 874              	.L32:
 875              	.LBE7:
 179:.\main.c      ****         }
 180:.\main.c      ****         
 181:.\main.c      ****         // Messages of the form "CTSx" (x float) change target speed to x ft/s
 182:.\main.c      ****         else if (strcmp(msgPrefix, "CTS") == 0) {
 876              		.loc 1 182 0
 877 0402 07F13803 		add	r3, r7, #56
 878 0406 1846     		mov	r0, r3
 879 0408 40F20001 		movw	r1, #:lower16:.LC24
 880 040c C0F20001 		movt	r1, #:upper16:.LC24
 881 0410 FFF7FEFF 		bl	strcmp
 882 0414 0346     		mov	r3, r0
 883 0416 002B     		cmp	r3, #0
 884 0418 30D1     		bne	.L34
 885              	.LBB8:
 183:.\main.c      ****             double value = 0;
 886              		.loc 1 183 0
 887 041a 4FF00002 		mov	r2, #0
 888 041e 4FF00003 		mov	r3, #0
 889 0422 C7E90623 		strd	r2, [r7, #24]
 184:.\main.c      ****             if (sscanf(message + prefixLen, "%lf", &value) > 0) {
 890              		.loc 1 184 0
 891 0426 FA6B     		ldr	r2, [r7, #60]
 892 0428 7B68     		ldr	r3, [r7, #4]
 893 042a 1A44     		add	r2, r2, r3
 894 042c 07F11803 		add	r3, r7, #24
 895 0430 1046     		mov	r0, r2
 896 0432 40F20001 		movw	r1, #:lower16:.LC18
 897 0436 C0F20001 		movt	r1, #:upper16:.LC18
 898 043a 1A46     		mov	r2, r3
 899 043c FFF7FEFF 		bl	sscanf
 900 0440 0346     		mov	r3, r0
 901 0442 002B     		cmp	r3, #0
 902 0444 05DD     		ble	.L35
 185:.\main.c      ****                 SpeedControl_setTargetSpeed(value);
 903              		.loc 1 185 0
 904 0446 D7E90623 		ldrd	r2, [r7, #24]
 905 044a 1046     		mov	r0, r2
ARM GAS  C:\Users\bccho\AppData\Local\Temp\ccBO8fce.s 			page 22


 906 044c 1946     		mov	r1, r3
 907 044e FFF7FEFF 		bl	SpeedControl_setTargetSpeed
 908              	.L35:
 186:.\main.c      ****             }
 187:.\main.c      ****             
 188:.\main.c      ****             sprintf(strbuffer, "Target Speed = %f ft/s\n", SpeedControl_getTargetSpeed());
 909              		.loc 1 188 0
 910 0452 FFF7FEFF 		bl	SpeedControl_getTargetSpeed
 911 0456 0246     		mov	r2, r0
 912 0458 0B46     		mov	r3, r1
 913 045a 40F20000 		movw	r0, #:lower16:strbuffer
 914 045e C0F20000 		movt	r0, #:upper16:strbuffer
 915 0462 40F20001 		movw	r1, #:lower16:.LC25
 916 0466 C0F20001 		movt	r1, #:upper16:.LC25
 917 046a FFF7FEFF 		bl	sprintf
 189:.\main.c      ****             UART_PutString(strbuffer);
 918              		.loc 1 189 0
 919 046e 40F20000 		movw	r0, #:lower16:strbuffer
 920 0472 C0F20000 		movt	r0, #:upper16:strbuffer
 921 0476 FFF7FEFF 		bl	UART_PutString
 922 047a ACE2     		b	.L58
 923              	.L34:
 924              	.LBE8:
 190:.\main.c      ****         }
 191:.\main.c      ****         
 192:.\main.c      ****         // Messages of the form "CTDx" (x float) change target distance to x ft
 193:.\main.c      ****         else if (strcmp(msgPrefix, "CTD") == 0) {
 925              		.loc 1 193 0
 926 047c 07F13803 		add	r3, r7, #56
 927 0480 1846     		mov	r0, r3
 928 0482 40F20001 		movw	r1, #:lower16:.LC26
 929 0486 C0F20001 		movt	r1, #:upper16:.LC26
 930 048a FFF7FEFF 		bl	strcmp
 931 048e 0346     		mov	r3, r0
 932 0490 002B     		cmp	r3, #0
 933 0492 30D1     		bne	.L36
 934              	.LBB9:
 194:.\main.c      ****             double value = 0;
 935              		.loc 1 194 0
 936 0494 4FF00002 		mov	r2, #0
 937 0498 4FF00003 		mov	r3, #0
 938 049c C7E90423 		strd	r2, [r7, #16]
 195:.\main.c      ****             if (sscanf(message + prefixLen, "%lf", &value) > 0) {
 939              		.loc 1 195 0
 940 04a0 FA6B     		ldr	r2, [r7, #60]
 941 04a2 7B68     		ldr	r3, [r7, #4]
 942 04a4 1A44     		add	r2, r2, r3
 943 04a6 07F11003 		add	r3, r7, #16
 944 04aa 1046     		mov	r0, r2
 945 04ac 40F20001 		movw	r1, #:lower16:.LC18
 946 04b0 C0F20001 		movt	r1, #:upper16:.LC18
 947 04b4 1A46     		mov	r2, r3
 948 04b6 FFF7FEFF 		bl	sscanf
 949 04ba 0346     		mov	r3, r0
 950 04bc 002B     		cmp	r3, #0
 951 04be 05DD     		ble	.L37
 196:.\main.c      ****                 SpeedControl_setTargetDistance(value);
ARM GAS  C:\Users\bccho\AppData\Local\Temp\ccBO8fce.s 			page 23


 952              		.loc 1 196 0
 953 04c0 D7E90423 		ldrd	r2, [r7, #16]
 954 04c4 1046     		mov	r0, r2
 955 04c6 1946     		mov	r1, r3
 956 04c8 FFF7FEFF 		bl	SpeedControl_setTargetDistance
 957              	.L37:
 197:.\main.c      ****             }
 198:.\main.c      ****             
 199:.\main.c      ****             sprintf(strbuffer, "Target distance = %.2f ft\n", SpeedControl_getTargetDistance());
 958              		.loc 1 199 0
 959 04cc FFF7FEFF 		bl	SpeedControl_getTargetDistance
 960 04d0 0246     		mov	r2, r0
 961 04d2 0B46     		mov	r3, r1
 962 04d4 40F20000 		movw	r0, #:lower16:strbuffer
 963 04d8 C0F20000 		movt	r0, #:upper16:strbuffer
 964 04dc 40F20001 		movw	r1, #:lower16:.LC27
 965 04e0 C0F20001 		movt	r1, #:upper16:.LC27
 966 04e4 FFF7FEFF 		bl	sprintf
 200:.\main.c      ****             UART_PutString(strbuffer);
 967              		.loc 1 200 0
 968 04e8 40F20000 		movw	r0, #:lower16:strbuffer
 969 04ec C0F20000 		movt	r0, #:upper16:strbuffer
 970 04f0 FFF7FEFF 		bl	UART_PutString
 971 04f4 6FE2     		b	.L58
 972              	.L36:
 973              	.LBE9:
 201:.\main.c      ****         }
 202:.\main.c      ****         
 203:.\main.c      ****         // Message of the form "TVP" toggle verbose printout for speed PID control
 204:.\main.c      ****         else if (strcmp(msgPrefix, "TVP") == 0) {
 974              		.loc 1 204 0
 975 04f6 07F13803 		add	r3, r7, #56
 976 04fa 1846     		mov	r0, r3
 977 04fc 40F20001 		movw	r1, #:lower16:.LC28
 978 0500 C0F20001 		movt	r1, #:upper16:.LC28
 979 0504 FFF7FEFF 		bl	strcmp
 980 0508 0346     		mov	r3, r0
 981 050a 002B     		cmp	r3, #0
 982 050c 1CD1     		bne	.L38
 205:.\main.c      ****             if (!SpeedControl_isVerbosePrintoutEnabled()) {
 983              		.loc 1 205 0
 984 050e FFF7FEFF 		bl	SpeedControl_isVerbosePrintoutEnabled
 985 0512 0346     		mov	r3, r0
 986 0514 002B     		cmp	r3, #0
 987 0516 02D1     		bne	.L39
 206:.\main.c      ****                 SpeedControl_enableVerbosePrintout();
 988              		.loc 1 206 0
 989 0518 FFF7FEFF 		bl	SpeedControl_enableVerbosePrintout
 990 051c 01E0     		b	.L40
 991              	.L39:
 207:.\main.c      ****             } else {
 208:.\main.c      ****                 SpeedControl_disableVerbosePrintout();
 992              		.loc 1 208 0
 993 051e FFF7FEFF 		bl	SpeedControl_disableVerbosePrintout
 994              	.L40:
 209:.\main.c      ****             }
 210:.\main.c      ****             if (SpeedControl_isVerbosePrintoutEnabled()) {
ARM GAS  C:\Users\bccho\AppData\Local\Temp\ccBO8fce.s 			page 24


 995              		.loc 1 210 0
 996 0522 FFF7FEFF 		bl	SpeedControl_isVerbosePrintoutEnabled
 997 0526 0346     		mov	r3, r0
 998 0528 002B     		cmp	r3, #0
 999 052a 06D0     		beq	.L41
 211:.\main.c      ****                 UART_PutString("Verbose printout on\n");
 1000              		.loc 1 211 0
 1001 052c 40F20000 		movw	r0, #:lower16:.LC29
 1002 0530 C0F20000 		movt	r0, #:upper16:.LC29
 1003 0534 FFF7FEFF 		bl	UART_PutString
 212:.\main.c      ****             } else {
 213:.\main.c      ****                 UART_PutString("Verbose printout off\n");
 1004              		.loc 1 213 0
 1005 0538 4DE2     		b	.L58
 1006              	.L41:
 1007 053a 40F20000 		movw	r0, #:lower16:.LC30
 1008 053e C0F20000 		movt	r0, #:upper16:.LC30
 1009 0542 FFF7FEFF 		bl	UART_PutString
 1010 0546 46E2     		b	.L58
 1011              	.L38:
 214:.\main.c      ****             }
 215:.\main.c      ****         }
 216:.\main.c      ****         
 217:.\main.c      ****         // Messages starting with "A" will abort
 218:.\main.c      ****         else if (strcmp(msgPrefix, "A") == 0) {
 1012              		.loc 1 218 0
 1013 0548 07F13803 		add	r3, r7, #56
 1014 054c 1846     		mov	r0, r3
 1015 054e 40F20001 		movw	r1, #:lower16:.LC31
 1016 0552 C0F20001 		movt	r1, #:upper16:.LC31
 1017 0556 FFF7FEFF 		bl	strcmp
 1018 055a 0346     		mov	r3, r0
 1019 055c 002B     		cmp	r3, #0
 1020 055e 02D1     		bne	.L43
 219:.\main.c      ****             SpeedControl_kill();
 1021              		.loc 1 219 0
 1022 0560 FFF7FEFF 		bl	SpeedControl_kill
 1023 0564 37E2     		b	.L58
 1024              	.L43:
 220:.\main.c      ****         }
 221:.\main.c      ****         
 222:.\main.c      ****         
 223:.\main.c      ****         
 224:.\main.c      ****         
 225:.\main.c      ****         
 226:.\main.c      ****         
 227:.\main.c      ****         
 228:.\main.c      ****         
 229:.\main.c      ****         
 230:.\main.c      ****         
 231:.\main.c      ****         
 232:.\main.c      ****         
 233:.\main.c      ****         
 234:.\main.c      ****         
 235:.\main.c      ****         
 236:.\main.c      ****         // Messages of the form "GC" retun all camera variables
 237:.\main.c      ****         else if (strcmp(msgPrefix, "GC") == 0) {
ARM GAS  C:\Users\bccho\AppData\Local\Temp\ccBO8fce.s 			page 25


 1025              		.loc 1 237 0
 1026 0566 07F13803 		add	r3, r7, #56
 1027 056a 1846     		mov	r0, r3
 1028 056c 40F20001 		movw	r1, #:lower16:.LC32
 1029 0570 C0F20001 		movt	r1, #:upper16:.LC32
 1030 0574 FFF7FEFF 		bl	strcmp
 1031 0578 0346     		mov	r3, r0
 1032 057a 002B     		cmp	r3, #0
 1033 057c 3CD1     		bne	.L44
 238:.\main.c      ****             sprintf(strbuffer, "Frame count = %d\nRow count = %d\nComparator counts (begin) = %d\nC
 1034              		.loc 1 238 0
 1035 057e 40F20003 		movw	r3, #:lower16:numFrames
 1036 0582 C0F20003 		movt	r3, #:upper16:numFrames
 1037 0586 1A68     		ldr	r2, [r3, #0]
 1038 0588 40F20003 		movw	r3, #:lower16:numRows
 1039 058c C0F20003 		movt	r3, #:upper16:numRows
 1040 0590 D3F800C0 		ldr	ip, [r3, #0]
 1041 0594 40F20003 		movw	r3, #:lower16:numCompBegin
 1042 0598 C0F20003 		movt	r3, #:upper16:numCompBegin
 1043 059c 1C68     		ldr	r4, [r3, #0]
 1044 059e 40F20003 		movw	r3, #:lower16:numCompEnd
 1045 05a2 C0F20003 		movt	r3, #:upper16:numCompEnd
 1046 05a6 D3F800E0 		ldr	lr, [r3, #0]
 1047 05aa 40F20003 		movw	r3, #:lower16:rowCycles
 1048 05ae C0F20003 		movt	r3, #:upper16:rowCycles
 1049 05b2 1868     		ldr	r0, [r3, #0]
 1050 05b4 40F20003 		movw	r3, #:lower16:lineBeginCycles
 1051 05b8 C0F20003 		movt	r3, #:upper16:lineBeginCycles
 1052 05bc 1968     		ldr	r1, [r3, #0]
 1053 05be 40F20003 		movw	r3, #:lower16:lineEndCycles
 1054 05c2 C0F20003 		movt	r3, #:upper16:lineEndCycles
 1055 05c6 1B68     		ldr	r3, [r3, #0]
 1056 05c8 0094     		str	r4, [sp, #0]
 1057 05ca CDF804E0 		str	lr, [sp, #4]
 1058 05ce 0290     		str	r0, [sp, #8]
 1059 05d0 0391     		str	r1, [sp, #12]
 1060 05d2 0493     		str	r3, [sp, #16]
 1061 05d4 40F20000 		movw	r0, #:lower16:strbuffer
 1062 05d8 C0F20000 		movt	r0, #:upper16:strbuffer
 1063 05dc 40F20001 		movw	r1, #:lower16:.LC33
 1064 05e0 C0F20001 		movt	r1, #:upper16:.LC33
 1065 05e4 6346     		mov	r3, ip
 1066 05e6 FFF7FEFF 		bl	sprintf
 239:.\main.c      ****                     numFrames, numRows, numCompBegin, numCompEnd, rowCycles, lineBeginCycles, lineE
 240:.\main.c      ****             UART_PutString(strbuffer);
 1067              		.loc 1 240 0
 1068 05ea 40F20000 		movw	r0, #:lower16:strbuffer
 1069 05ee C0F20000 		movt	r0, #:upper16:strbuffer
 1070 05f2 FFF7FEFF 		bl	UART_PutString
 1071 05f6 EEE1     		b	.L58
 1072              	.L44:
 241:.\main.c      ****         }
 242:.\main.c      ****         
 243:.\main.c      ****         // Messages of the form "GT" retun all test variables
 244:.\main.c      ****         else if (strcmp(msgPrefix, "GT") == 0) {
 1073              		.loc 1 244 0
 1074 05f8 07F13803 		add	r3, r7, #56
ARM GAS  C:\Users\bccho\AppData\Local\Temp\ccBO8fce.s 			page 26


 1075 05fc 1846     		mov	r0, r3
 1076 05fe 40F20001 		movw	r1, #:lower16:.LC34
 1077 0602 C0F20001 		movt	r1, #:upper16:.LC34
 1078 0606 FFF7FEFF 		bl	strcmp
 1079 060a 0346     		mov	r3, r0
 1080 060c 002B     		cmp	r3, #0
 1081 060e 5AD1     		bne	.L45
 245:.\main.c      ****             sprintf(strbuffer, "Frame count = %d\nComparator counts (begin) = %d\nComparator counts
 1082              		.loc 1 245 0
 1083 0610 40F20003 		movw	r3, #:lower16:numFrames
 1084 0614 C0F20003 		movt	r3, #:upper16:numFrames
 1085 0618 1A68     		ldr	r2, [r3, #0]
 1086 061a 40F20003 		movw	r3, #:lower16:numCompBegin
 1087 061e C0F20003 		movt	r3, #:upper16:numCompBegin
 1088 0622 D3F800C0 		ldr	ip, [r3, #0]
 1089 0626 40F20003 		movw	r3, #:lower16:numCompEnd
 1090 062a C0F20003 		movt	r3, #:upper16:numCompEnd
 1091 062e 1868     		ldr	r0, [r3, #0]
 1092 0630 40F20003 		movw	r3, #:lower16:lineBeginCycles
 1093 0634 C0F20003 		movt	r3, #:upper16:lineBeginCycles
 1094 0638 1968     		ldr	r1, [r3, #0]
 1095 063a 40F20003 		movw	r3, #:lower16:lineEndCycles
 1096 063e C0F20003 		movt	r3, #:upper16:lineEndCycles
 1097 0642 1B68     		ldr	r3, [r3, #0]
 1098 0644 0090     		str	r0, [sp, #0]
 1099 0646 0191     		str	r1, [sp, #4]
 1100 0648 0293     		str	r3, [sp, #8]
 1101 064a 40F20000 		movw	r0, #:lower16:strbuffer
 1102 064e C0F20000 		movt	r0, #:upper16:strbuffer
 1103 0652 40F20001 		movw	r1, #:lower16:.LC35
 1104 0656 C0F20001 		movt	r1, #:upper16:.LC35
 1105 065a 6346     		mov	r3, ip
 1106 065c FFF7FEFF 		bl	sprintf
 246:.\main.c      ****                     numFrames, numCompBegin, numCompEnd, lineBeginCycles, lineEndCycles);
 247:.\main.c      ****             UART_PutString(strbuffer);
 1107              		.loc 1 247 0
 1108 0660 40F20000 		movw	r0, #:lower16:strbuffer
 1109 0664 C0F20000 		movt	r0, #:upper16:strbuffer
 1110 0668 FFF7FEFF 		bl	UART_PutString
 248:.\main.c      ****             sprintf(strbuffer, "6: %d\n7: %d\n9: %d\nLine mid: %f\n", test6, test7, test9, lineMid)
 1111              		.loc 1 248 0
 1112 066c 40F20003 		movw	r3, #:lower16:test6
 1113 0670 C0F20003 		movt	r3, #:upper16:test6
 1114 0674 D3F800E0 		ldr	lr, [r3, #0]
 1115 0678 40F20003 		movw	r3, #:lower16:test7
 1116 067c C0F20003 		movt	r3, #:upper16:test7
 1117 0680 D3F800C0 		ldr	ip, [r3, #0]
 1118 0684 40F20003 		movw	r3, #:lower16:test9
 1119 0688 C0F20003 		movt	r3, #:upper16:test9
 1120 068c 1968     		ldr	r1, [r3, #0]
 1121 068e 40F20003 		movw	r3, #:lower16:lineMid
 1122 0692 C0F20003 		movt	r3, #:upper16:lineMid
 1123 0696 D3E90023 		ldrd	r2, [r3]
 1124 069a 0091     		str	r1, [sp, #0]
 1125 069c CDE90223 		strd	r2, [sp, #8]
 1126 06a0 40F20000 		movw	r0, #:lower16:strbuffer
 1127 06a4 C0F20000 		movt	r0, #:upper16:strbuffer
ARM GAS  C:\Users\bccho\AppData\Local\Temp\ccBO8fce.s 			page 27


 1128 06a8 40F20001 		movw	r1, #:lower16:.LC36
 1129 06ac C0F20001 		movt	r1, #:upper16:.LC36
 1130 06b0 7246     		mov	r2, lr
 1131 06b2 6346     		mov	r3, ip
 1132 06b4 FFF7FEFF 		bl	sprintf
 249:.\main.c      ****             UART_PutString(strbuffer);
 1133              		.loc 1 249 0
 1134 06b8 40F20000 		movw	r0, #:lower16:strbuffer
 1135 06bc C0F20000 		movt	r0, #:upper16:strbuffer
 1136 06c0 FFF7FEFF 		bl	UART_PutString
 1137 06c4 87E1     		b	.L58
 1138              	.L45:
 250:.\main.c      ****         }
 251:.\main.c      ****         
 252:.\main.c      ****         // Messages of the form "RC" resets camera variables
 253:.\main.c      ****         else if (strcmp(msgPrefix, "RC") == 0) {
 1139              		.loc 1 253 0
 1140 06c6 07F13803 		add	r3, r7, #56
 1141 06ca 1846     		mov	r0, r3
 1142 06cc 40F20001 		movw	r1, #:lower16:.LC37
 1143 06d0 C0F20001 		movt	r1, #:upper16:.LC37
 1144 06d4 FFF7FEFF 		bl	strcmp
 1145 06d8 0346     		mov	r3, r0
 1146 06da 002B     		cmp	r3, #0
 1147 06dc 37D1     		bne	.L46
 254:.\main.c      ****             numCompBegin = 0;
 1148              		.loc 1 254 0
 1149 06de 40F20003 		movw	r3, #:lower16:numCompBegin
 1150 06e2 C0F20003 		movt	r3, #:upper16:numCompBegin
 1151 06e6 4FF00002 		mov	r2, #0
 1152 06ea 1A60     		str	r2, [r3, #0]
 255:.\main.c      ****             numCompEnd = 0;
 1153              		.loc 1 255 0
 1154 06ec 40F20003 		movw	r3, #:lower16:numCompEnd
 1155 06f0 C0F20003 		movt	r3, #:upper16:numCompEnd
 1156 06f4 4FF00002 		mov	r2, #0
 1157 06f8 1A60     		str	r2, [r3, #0]
 256:.\main.c      ****             numFrames = 0;
 1158              		.loc 1 256 0
 1159 06fa 40F20003 		movw	r3, #:lower16:numFrames
 1160 06fe C0F20003 		movt	r3, #:upper16:numFrames
 1161 0702 4FF00002 		mov	r2, #0
 1162 0706 1A60     		str	r2, [r3, #0]
 257:.\main.c      ****             numRows = 0;
 1163              		.loc 1 257 0
 1164 0708 40F20003 		movw	r3, #:lower16:numRows
 1165 070c C0F20003 		movt	r3, #:upper16:numRows
 1166 0710 4FF00002 		mov	r2, #0
 1167 0714 1A60     		str	r2, [r3, #0]
 258:.\main.c      ****             
 259:.\main.c      ****             rowCycles = 0;
 1168              		.loc 1 259 0
 1169 0716 40F20003 		movw	r3, #:lower16:rowCycles
 1170 071a C0F20003 		movt	r3, #:upper16:rowCycles
 1171 071e 4FF00002 		mov	r2, #0
 1172 0722 1A60     		str	r2, [r3, #0]
 260:.\main.c      ****             lineBeginCycles = 0;
ARM GAS  C:\Users\bccho\AppData\Local\Temp\ccBO8fce.s 			page 28


 1173              		.loc 1 260 0
 1174 0724 40F20003 		movw	r3, #:lower16:lineBeginCycles
 1175 0728 C0F20003 		movt	r3, #:upper16:lineBeginCycles
 1176 072c 4FF00002 		mov	r2, #0
 1177 0730 1A60     		str	r2, [r3, #0]
 261:.\main.c      ****             lineEndCycles = 0;
 1178              		.loc 1 261 0
 1179 0732 40F20003 		movw	r3, #:lower16:lineEndCycles
 1180 0736 C0F20003 		movt	r3, #:upper16:lineEndCycles
 1181 073a 4FF00002 		mov	r2, #0
 1182 073e 1A60     		str	r2, [r3, #0]
 262:.\main.c      ****             
 263:.\main.c      ****             UART_PutString("Camera variables reset\n");
 1183              		.loc 1 263 0
 1184 0740 40F20000 		movw	r0, #:lower16:.LC38
 1185 0744 C0F20000 		movt	r0, #:upper16:.LC38
 1186 0748 FFF7FEFF 		bl	UART_PutString
 1187 074c 43E1     		b	.L58
 1188              	.L46:
 264:.\main.c      ****         }
 265:.\main.c      ****         
 266:.\main.c      ****         // Messages of the form "CSx" change servo direction to x (0 is full left, 1 is full right)
 267:.\main.c      ****         else if (strcmp(msgPrefix, "CS") == 0) {
 1189              		.loc 1 267 0
 1190 074e 07F13803 		add	r3, r7, #56
 1191 0752 1846     		mov	r0, r3
 1192 0754 40F20001 		movw	r1, #:lower16:.LC39
 1193 0758 C0F20001 		movt	r1, #:upper16:.LC39
 1194 075c FFF7FEFF 		bl	strcmp
 1195 0760 0346     		mov	r3, r0
 1196 0762 002B     		cmp	r3, #0
 1197 0764 40F03781 		bne	.L58
 1198              	.LBB10:
 268:.\main.c      ****             double value = 0;
 1199              		.loc 1 268 0
 1200 0768 4FF00002 		mov	r2, #0
 1201 076c 4FF00003 		mov	r3, #0
 1202 0770 C7E90223 		strd	r2, [r7, #8]
 269:.\main.c      ****             if (sscanf(message + prefixLen, "%lf", &value) > 0) {
 1203              		.loc 1 269 0
 1204 0774 FA6B     		ldr	r2, [r7, #60]
 1205 0776 7B68     		ldr	r3, [r7, #4]
 1206 0778 1A44     		add	r2, r2, r3
 1207 077a 07F10803 		add	r3, r7, #8
 1208 077e 1046     		mov	r0, r2
 1209 0780 40F20001 		movw	r1, #:lower16:.LC18
 1210 0784 C0F20001 		movt	r1, #:upper16:.LC18
 1211 0788 1A46     		mov	r2, r3
 1212 078a FFF7FEFF 		bl	sscanf
 1213 078e 0346     		mov	r3, r0
 1214 0790 002B     		cmp	r3, #0
 1215 0792 40F3C680 		ble	.L47
 1216              	.LBB11:
 270:.\main.c      ****                 if (value > 1) value = 1;
 1217              		.loc 1 270 0
 1218 0796 D7E90223 		ldrd	r2, [r7, #8]
 1219 079a 4FF00001 		mov	r1, #0
ARM GAS  C:\Users\bccho\AppData\Local\Temp\ccBO8fce.s 			page 29


 1220 079e 0C46     		mov	r4, r1
 1221 07a0 1046     		mov	r0, r2
 1222 07a2 1946     		mov	r1, r3
 1223 07a4 4FF00002 		mov	r2, #0
 1224 07a8 4FF07E53 		mov	r3, #1065353216
 1225 07ac 03F5E003 		add	r3, r3, #7340032
 1226 07b0 FFF7FEFF 		bl	__aeabi_dcmpgt
 1227 07b4 0346     		mov	r3, r0
 1228 07b6 002B     		cmp	r3, #0
 1229 07b8 02D0     		beq	.L48
 1230              	.L49:
 1231 07ba 4FF00103 		mov	r3, #1
 1232 07be 1C46     		mov	r4, r3
 1233              	.L48:
 1234 07c0 E3B2     		uxtb	r3, r4
 1235 07c2 002B     		cmp	r3, #0
 1236 07c4 07D0     		beq	.L50
 1237 07c6 4FF00002 		mov	r2, #0
 1238 07ca 4FF07E53 		mov	r3, #1065353216
 1239 07ce 03F5E003 		add	r3, r3, #7340032
 1240 07d2 C7E90223 		strd	r2, [r7, #8]
 1241              	.L50:
 271:.\main.c      ****                 if (value < 0) value = 0;
 1242              		.loc 1 271 0
 1243 07d6 D7E90223 		ldrd	r2, [r7, #8]
 1244 07da 4FF00001 		mov	r1, #0
 1245 07de 0C46     		mov	r4, r1
 1246 07e0 1046     		mov	r0, r2
 1247 07e2 1946     		mov	r1, r3
 1248 07e4 4FF00002 		mov	r2, #0
 1249 07e8 4FF00003 		mov	r3, #0
 1250 07ec FFF7FEFF 		bl	__aeabi_dcmplt
 1251 07f0 0346     		mov	r3, r0
 1252 07f2 002B     		cmp	r3, #0
 1253 07f4 02D0     		beq	.L51
 1254              	.L52:
 1255 07f6 4FF00103 		mov	r3, #1
 1256 07fa 1C46     		mov	r4, r3
 1257              	.L51:
 1258 07fc E3B2     		uxtb	r3, r4
 1259 07fe 002B     		cmp	r3, #0
 1260 0800 05D0     		beq	.L53
 1261 0802 4FF00002 		mov	r2, #0
 1262 0806 4FF00003 		mov	r3, #0
 1263 080a C7E90223 		strd	r2, [r7, #8]
 1264              	.L53:
 272:.\main.c      ****                 double servoTime = MIN_TIME_SERVO + (MAX_TIME_SERVO - MIN_TIME_SERVO) * value;
 1265              		.loc 1 272 0
 1266 080e 40F20003 		movw	r3, #:lower16:MAX_TIME_SERVO
 1267 0812 C0F20003 		movt	r3, #:upper16:MAX_TIME_SERVO
 1268 0816 D3E90001 		ldrd	r0, [r3]
 1269 081a 40F20003 		movw	r3, #:lower16:MIN_TIME_SERVO
 1270 081e C0F20003 		movt	r3, #:upper16:MIN_TIME_SERVO
 1271 0822 D3E90023 		ldrd	r2, [r3]
 1272 0826 FFF7FEFF 		bl	__aeabi_dsub
 1273 082a 0246     		mov	r2, r0
 1274 082c 0B46     		mov	r3, r1
ARM GAS  C:\Users\bccho\AppData\Local\Temp\ccBO8fce.s 			page 30


 1275 082e 1046     		mov	r0, r2
 1276 0830 1946     		mov	r1, r3
 1277 0832 D7E90223 		ldrd	r2, [r7, #8]
 1278 0836 FFF7FEFF 		bl	__aeabi_dmul
 1279 083a 0246     		mov	r2, r0
 1280 083c 0B46     		mov	r3, r1
 1281 083e 1046     		mov	r0, r2
 1282 0840 1946     		mov	r1, r3
 1283 0842 40F20003 		movw	r3, #:lower16:MIN_TIME_SERVO
 1284 0846 C0F20003 		movt	r3, #:upper16:MIN_TIME_SERVO
 1285 084a D3E90023 		ldrd	r2, [r3]
 1286 084e FFF7FEFF 		bl	__aeabi_dadd
 1287 0852 0246     		mov	r2, r0
 1288 0854 0B46     		mov	r3, r1
 1289 0856 C7E91423 		strd	r2, [r7, #80]
 273:.\main.c      ****                 double servoPeriod = servoTime * MAIN_CLK_FREQ;
 1290              		.loc 1 273 0
 1291 085a 40F20003 		movw	r3, #:lower16:MAIN_CLK_FREQ
 1292 085e C0F20003 		movt	r3, #:upper16:MAIN_CLK_FREQ
 1293 0862 D3E90023 		ldrd	r2, [r3]
 1294 0866 D7E91401 		ldrd	r0, [r7, #80]
 1295 086a FFF7FEFF 		bl	__aeabi_dmul
 1296 086e 0246     		mov	r2, r0
 1297 0870 0B46     		mov	r3, r1
 1298 0872 C7E91623 		strd	r2, [r7, #88]
 274:.\main.c      ****                 double midPeriod = 0.5*(MAX_TIME_SERVO + MIN_TIME_SERVO) * MAIN_CLK_FREQ;
 1299              		.loc 1 274 0
 1300 0876 40F20003 		movw	r3, #:lower16:MAX_TIME_SERVO
 1301 087a C0F20003 		movt	r3, #:upper16:MAX_TIME_SERVO
 1302 087e D3E90001 		ldrd	r0, [r3]
 1303 0882 40F20003 		movw	r3, #:lower16:MIN_TIME_SERVO
 1304 0886 C0F20003 		movt	r3, #:upper16:MIN_TIME_SERVO
 1305 088a D3E90023 		ldrd	r2, [r3]
 1306 088e FFF7FEFF 		bl	__aeabi_dadd
 1307 0892 0246     		mov	r2, r0
 1308 0894 0B46     		mov	r3, r1
 1309 0896 1046     		mov	r0, r2
 1310 0898 1946     		mov	r1, r3
 1311 089a 4FF00002 		mov	r2, #0
 1312 089e 4FF07E53 		mov	r3, #1065353216
 1313 08a2 03F5C003 		add	r3, r3, #6291456
 1314 08a6 FFF7FEFF 		bl	__aeabi_dmul
 1315 08aa 0246     		mov	r2, r0
 1316 08ac 0B46     		mov	r3, r1
 1317 08ae 1046     		mov	r0, r2
 1318 08b0 1946     		mov	r1, r3
 1319 08b2 40F20003 		movw	r3, #:lower16:MAIN_CLK_FREQ
 1320 08b6 C0F20003 		movt	r3, #:upper16:MAIN_CLK_FREQ
 1321 08ba D3E90023 		ldrd	r2, [r3]
 1322 08be FFF7FEFF 		bl	__aeabi_dmul
 1323 08c2 0246     		mov	r2, r0
 1324 08c4 0B46     		mov	r3, r1
 1325 08c6 C7E91823 		strd	r2, [r7, #96]
 275:.\main.c      ****                 if (servoPeriod > midPeriod) servoPeriod = floor(servoPeriod);
 1326              		.loc 1 275 0
 1327 08ca 4FF00003 		mov	r3, #0
 1328 08ce 1C46     		mov	r4, r3
ARM GAS  C:\Users\bccho\AppData\Local\Temp\ccBO8fce.s 			page 31


 1329 08d0 D7E91601 		ldrd	r0, [r7, #88]
 1330 08d4 D7E91823 		ldrd	r2, [r7, #96]
 1331 08d8 FFF7FEFF 		bl	__aeabi_dcmpgt
 1332 08dc 0346     		mov	r3, r0
 1333 08de 002B     		cmp	r3, #0
 1334 08e0 02D0     		beq	.L54
 1335              	.L55:
 1336 08e2 4FF00103 		mov	r3, #1
 1337 08e6 1C46     		mov	r4, r3
 1338              	.L54:
 1339 08e8 E3B2     		uxtb	r3, r4
 1340 08ea 002B     		cmp	r3, #0
 1341 08ec 08D0     		beq	.L56
 1342 08ee D7E91601 		ldrd	r0, [r7, #88]
 1343 08f2 FFF7FEFF 		bl	floor
 1344 08f6 0246     		mov	r2, r0
 1345 08f8 0B46     		mov	r3, r1
 1346 08fa C7E91623 		strd	r2, [r7, #88]
 1347 08fe 07E0     		b	.L57
 1348              	.L56:
 276:.\main.c      ****                 else servoPeriod = ceil(servoPeriod);
 1349              		.loc 1 276 0
 1350 0900 D7E91601 		ldrd	r0, [r7, #88]
 1351 0904 FFF7FEFF 		bl	ceil
 1352 0908 0246     		mov	r2, r0
 1353 090a 0B46     		mov	r3, r1
 1354 090c C7E91623 		strd	r2, [r7, #88]
 1355              	.L57:
 277:.\main.c      ****                 PWM_Servo_WriteCompare(servoPeriod);
 1356              		.loc 1 277 0
 1357 0910 D7E91601 		ldrd	r0, [r7, #88]
 1358 0914 FFF7FEFF 		bl	__aeabi_d2uiz
 1359 0918 0346     		mov	r3, r0
 1360 091a 9BB2     		uxth	r3, r3
 1361 091c 1846     		mov	r0, r3
 1362 091e FFF7FEFF 		bl	PWM_Servo_WriteCompare
 1363              	.L47:
 1364              	.LBE11:
 278:.\main.c      ****             }
 279:.\main.c      ****             double servoVal = PWM_Servo_ReadCompare() / MAIN_CLK_FREQ;
 1365              		.loc 1 279 0
 1366 0922 46F22A43 		movw	r3, #:lower16:1073767466
 1367 0926 C4F20003 		movt	r3, #:upper16:1073767466
 1368 092a 1B88     		ldrh	r3, [r3, #0]	@ movhi
 1369 092c 9BB2     		uxth	r3, r3
 1370 092e 1846     		mov	r0, r3
 1371 0930 FFF7FEFF 		bl	__aeabi_i2d
 1372 0934 40F20003 		movw	r3, #:lower16:MAIN_CLK_FREQ
 1373 0938 C0F20003 		movt	r3, #:upper16:MAIN_CLK_FREQ
 1374 093c D3E90023 		ldrd	r2, [r3]
 1375 0940 FFF7FEFF 		bl	__aeabi_ddiv
 1376 0944 0246     		mov	r2, r0
 1377 0946 0B46     		mov	r3, r1
 1378 0948 C7E91023 		strd	r2, [r7, #64]
 280:.\main.c      ****             double setVal = (servoVal - MIN_TIME_SERVO) / (MAX_TIME_SERVO - MIN_TIME_SERVO);
 1379              		.loc 1 280 0
 1380 094c 40F20003 		movw	r3, #:lower16:MIN_TIME_SERVO
ARM GAS  C:\Users\bccho\AppData\Local\Temp\ccBO8fce.s 			page 32


 1381 0950 C0F20003 		movt	r3, #:upper16:MIN_TIME_SERVO
 1382 0954 D3E90023 		ldrd	r2, [r3]
 1383 0958 D7E91001 		ldrd	r0, [r7, #64]
 1384 095c FFF7FEFF 		bl	__aeabi_dsub
 1385 0960 0246     		mov	r2, r0
 1386 0962 0B46     		mov	r3, r1
 1387 0964 1446     		mov	r4, r2
 1388 0966 1D46     		mov	r5, r3
 1389 0968 40F20003 		movw	r3, #:lower16:MAX_TIME_SERVO
 1390 096c C0F20003 		movt	r3, #:upper16:MAX_TIME_SERVO
 1391 0970 D3E90001 		ldrd	r0, [r3]
 1392 0974 40F20003 		movw	r3, #:lower16:MIN_TIME_SERVO
 1393 0978 C0F20003 		movt	r3, #:upper16:MIN_TIME_SERVO
 1394 097c D3E90023 		ldrd	r2, [r3]
 1395 0980 FFF7FEFF 		bl	__aeabi_dsub
 1396 0984 0246     		mov	r2, r0
 1397 0986 0B46     		mov	r3, r1
 1398 0988 2046     		mov	r0, r4
 1399 098a 2946     		mov	r1, r5
 1400 098c FFF7FEFF 		bl	__aeabi_ddiv
 1401 0990 0246     		mov	r2, r0
 1402 0992 0B46     		mov	r3, r1
 1403 0994 C7E91223 		strd	r2, [r7, #72]
 281:.\main.c      ****             sprintf(strbuffer, "Servo set to %.3f (%.3f ms)\n", setVal, servoVal*1000);
 1404              		.loc 1 281 0
 1405 0998 D7E91001 		ldrd	r0, [r7, #64]
 1406 099c 10A3     		adr	r3, .L60
 1407 099e D3E90023 		ldrd	r2, [r3]
 1408 09a2 FFF7FEFF 		bl	__aeabi_dmul
 1409 09a6 0246     		mov	r2, r0
 1410 09a8 0B46     		mov	r3, r1
 1411 09aa CDE90023 		strd	r2, [sp]
 1412 09ae 40F20000 		movw	r0, #:lower16:strbuffer
 1413 09b2 C0F20000 		movt	r0, #:upper16:strbuffer
 1414 09b6 40F20001 		movw	r1, #:lower16:.LC40
 1415 09ba C0F20001 		movt	r1, #:upper16:.LC40
 1416 09be D7E91223 		ldrd	r2, [r7, #72]
 1417 09c2 FFF7FEFF 		bl	sprintf
 282:.\main.c      ****             UART_PutString(strbuffer);
 1418              		.loc 1 282 0
 1419 09c6 40F20000 		movw	r0, #:lower16:strbuffer
 1420 09ca C0F20000 		movt	r0, #:upper16:strbuffer
 1421 09ce FFF7FEFF 		bl	UART_PutString
 1422 09d2 00E0     		b	.L58
 1423              	.L59:
 1424              	.LBE10:
 1425              	.LBE2:
 1426              		.loc 1 71 0
 1427 09d4 00BF     		nop
 1428              	.L58:
 283:.\main.c      ****         }
 284:.\main.c      ****     }
 285:.\main.c      **** }
 1429              		.loc 1 285 0
 1430 09d6 07F16C07 		add	r7, r7, #108
 1431 09da BD46     		mov	sp, r7
 1432 09dc BDE8F08F 		pop	{r4, r5, r6, r7, r8, r9, sl, fp, pc}
ARM GAS  C:\Users\bccho\AppData\Local\Temp\ccBO8fce.s 			page 33


 1433              	.L61:
 1434              		.align	3
 1435              	.L60:
 1436 09e0 00000000 		.word	0
 1437 09e4 00408F40 		.word	1083129856
 1438              		.cfi_endproc
 1439              	.LFE31:
 1440              		.size	parseMessage, .-parseMessage
 1441              		.section	.text.button_inter,"ax",%progbits
 1442              		.align	2
 1443              		.global	button_inter
 1444              		.thumb
 1445              		.thumb_func
 1446              		.type	button_inter, %function
 1447              	button_inter:
 1448              	.LFB32:
 286:.\main.c      **** 
 287:.\main.c      **** 
 288:.\main.c      **** /* Button interrupt */
 289:.\main.c      **** CY_ISR(button_inter) {
 1449              		.loc 1 289 0
 1450              		.cfi_startproc
 1451              		@ args = 0, pretend = 0, frame = 0
 1452              		@ frame_needed = 1, uses_anonymous_args = 0
 1453              		@ link register save eliminated.
 1454 0000 80B4     		push	{r7}
 1455              	.LCFI9:
 1456              		.cfi_def_cfa_offset 4
 1457 0002 00AF     		add	r7, sp, #0
 1458              		.cfi_offset 7, -4
 1459              	.LCFI10:
 1460              		.cfi_def_cfa_register 7
 290:.\main.c      **** //    if (buttonInterrupted) {
 291:.\main.c      **** //        UART_PutString("Error 1: Interrupt not handled\n");
 292:.\main.c      **** //    }
 293:.\main.c      ****     buttonInterrupted = 1;
 1461              		.loc 1 293 0
 1462 0004 40F20003 		movw	r3, #:lower16:buttonInterrupted
 1463 0008 C0F20003 		movt	r3, #:upper16:buttonInterrupted
 1464 000c 4FF00102 		mov	r2, #1
 1465 0010 1A60     		str	r2, [r3, #0]
 294:.\main.c      **** }
 1466              		.loc 1 294 0
 1467 0012 BD46     		mov	sp, r7
 1468 0014 80BC     		pop	{r7}
 1469 0016 7047     		bx	lr
 1470              		.cfi_endproc
 1471              	.LFE32:
 1472              		.size	button_inter, .-button_inter
 1473              		.section	.text.rx_inter,"ax",%progbits
 1474              		.align	2
 1475              		.global	rx_inter
 1476              		.thumb
 1477              		.thumb_func
 1478              		.type	rx_inter, %function
 1479              	rx_inter:
 1480              	.LFB33:
ARM GAS  C:\Users\bccho\AppData\Local\Temp\ccBO8fce.s 			page 34


 295:.\main.c      **** 
 296:.\main.c      **** /* Recieved data interrupt */
 297:.\main.c      **** CY_ISR(rx_inter) {
 1481              		.loc 1 297 0
 1482              		.cfi_startproc
 1483              		@ args = 0, pretend = 0, frame = 0
 1484              		@ frame_needed = 1, uses_anonymous_args = 0
 1485              		@ link register save eliminated.
 1486 0000 80B4     		push	{r7}
 1487              	.LCFI11:
 1488              		.cfi_def_cfa_offset 4
 1489 0002 00AF     		add	r7, sp, #0
 1490              		.cfi_offset 7, -4
 1491              	.LCFI12:
 1492              		.cfi_def_cfa_register 7
 298:.\main.c      **** //    if (rxInterrupted) {
 299:.\main.c      **** //        UART_PutString("Error 2: Interrupt not handled\n");
 300:.\main.c      **** //    }
 301:.\main.c      ****     rxInterrupted = 1;
 1493              		.loc 1 301 0
 1494 0004 40F20003 		movw	r3, #:lower16:rxInterrupted
 1495 0008 C0F20003 		movt	r3, #:upper16:rxInterrupted
 1496 000c 4FF00102 		mov	r2, #1
 1497 0010 1A60     		str	r2, [r3, #0]
 302:.\main.c      **** }
 1498              		.loc 1 302 0
 1499 0012 BD46     		mov	sp, r7
 1500 0014 80BC     		pop	{r7}
 1501 0016 7047     		bx	lr
 1502              		.cfi_endproc
 1503              	.LFE33:
 1504              		.size	rx_inter, .-rx_inter
 1505              		.section	.text.wheel_inter,"ax",%progbits
 1506              		.align	2
 1507              		.global	wheel_inter
 1508              		.thumb
 1509              		.thumb_func
 1510              		.type	wheel_inter, %function
 1511              	wheel_inter:
 1512              	.LFB34:
 303:.\main.c      **** 
 304:.\main.c      **** /* Wheel tick interrupt */
 305:.\main.c      **** CY_ISR(wheel_inter) {
 1513              		.loc 1 305 0
 1514              		.cfi_startproc
 1515              		@ args = 0, pretend = 0, frame = 0
 1516              		@ frame_needed = 1, uses_anonymous_args = 0
 1517              		@ link register save eliminated.
 1518 0000 80B4     		push	{r7}
 1519              	.LCFI13:
 1520              		.cfi_def_cfa_offset 4
 1521 0002 00AF     		add	r7, sp, #0
 1522              		.cfi_offset 7, -4
 1523              	.LCFI14:
 1524              		.cfi_def_cfa_register 7
 306:.\main.c      **** //    if (wheelTickInterrupted) {
 307:.\main.c      **** //        UART_PutString("Error 3: Interrupt not handled\n");
ARM GAS  C:\Users\bccho\AppData\Local\Temp\ccBO8fce.s 			page 35


 308:.\main.c      **** //    }
 309:.\main.c      ****     wheelTickInterrupted = 1;
 1525              		.loc 1 309 0
 1526 0004 40F20003 		movw	r3, #:lower16:wheelTickInterrupted
 1527 0008 C0F20003 		movt	r3, #:upper16:wheelTickInterrupted
 1528 000c 4FF00102 		mov	r2, #1
 1529 0010 1A60     		str	r2, [r3, #0]
 310:.\main.c      **** }
 1530              		.loc 1 310 0
 1531 0012 BD46     		mov	sp, r7
 1532 0014 80BC     		pop	{r7}
 1533 0016 7047     		bx	lr
 1534              		.cfi_endproc
 1535              	.LFE34:
 1536              		.size	wheel_inter, .-wheel_inter
 1537              		.section	.text.timeout_inter,"ax",%progbits
 1538              		.align	2
 1539              		.global	timeout_inter
 1540              		.thumb
 1541              		.thumb_func
 1542              		.type	timeout_inter, %function
 1543              	timeout_inter:
 1544              	.LFB35:
 311:.\main.c      **** 
 312:.\main.c      **** /* Wheel tick timeout interrupt */
 313:.\main.c      **** CY_ISR(timeout_inter) {
 1545              		.loc 1 313 0
 1546              		.cfi_startproc
 1547              		@ args = 0, pretend = 0, frame = 0
 1548              		@ frame_needed = 1, uses_anonymous_args = 0
 1549              		@ link register save eliminated.
 1550 0000 80B4     		push	{r7}
 1551              	.LCFI15:
 1552              		.cfi_def_cfa_offset 4
 1553 0002 00AF     		add	r7, sp, #0
 1554              		.cfi_offset 7, -4
 1555              	.LCFI16:
 1556              		.cfi_def_cfa_register 7
 314:.\main.c      **** //    if (tickTimeoutInterrupted) {
 315:.\main.c      **** //        UART_PutString("Error 4: Interrupt not handled\n");
 316:.\main.c      **** //    }
 317:.\main.c      ****     tickTimeoutInterrupted = 1;
 1557              		.loc 1 317 0
 1558 0004 40F20003 		movw	r3, #:lower16:tickTimeoutInterrupted
 1559 0008 C0F20003 		movt	r3, #:upper16:tickTimeoutInterrupted
 1560 000c 4FF00102 		mov	r2, #1
 1561 0010 1A60     		str	r2, [r3, #0]
 318:.\main.c      **** }
 1562              		.loc 1 318 0
 1563 0012 BD46     		mov	sp, r7
 1564 0014 80BC     		pop	{r7}
 1565 0016 7047     		bx	lr
 1566              		.cfi_endproc
 1567              	.LFE35:
 1568              		.size	timeout_inter, .-timeout_inter
 1569              		.section	.text.pid_inter,"ax",%progbits
 1570              		.align	2
ARM GAS  C:\Users\bccho\AppData\Local\Temp\ccBO8fce.s 			page 36


 1571              		.global	pid_inter
 1572              		.thumb
 1573              		.thumb_func
 1574              		.type	pid_inter, %function
 1575              	pid_inter:
 1576              	.LFB36:
 319:.\main.c      **** 
 320:.\main.c      **** /* PID timer interrupt */
 321:.\main.c      **** CY_ISR(pid_inter) {
 1577              		.loc 1 321 0
 1578              		.cfi_startproc
 1579              		@ args = 0, pretend = 0, frame = 0
 1580              		@ frame_needed = 1, uses_anonymous_args = 0
 1581              		@ link register save eliminated.
 1582 0000 80B4     		push	{r7}
 1583              	.LCFI17:
 1584              		.cfi_def_cfa_offset 4
 1585 0002 00AF     		add	r7, sp, #0
 1586              		.cfi_offset 7, -4
 1587              	.LCFI18:
 1588              		.cfi_def_cfa_register 7
 322:.\main.c      **** //    if (pidTimerInterrupted) {
 323:.\main.c      **** //        UART_PutString("Error 5: Interrupt not handled\n");
 324:.\main.c      **** //    }
 325:.\main.c      ****     pidTimerInterrupted = 1;
 1589              		.loc 1 325 0
 1590 0004 40F20003 		movw	r3, #:lower16:pidTimerInterrupted
 1591 0008 C0F20003 		movt	r3, #:upper16:pidTimerInterrupted
 1592 000c 4FF00102 		mov	r2, #1
 1593 0010 1A60     		str	r2, [r3, #0]
 326:.\main.c      **** }
 1594              		.loc 1 326 0
 1595 0012 BD46     		mov	sp, r7
 1596 0014 80BC     		pop	{r7}
 1597 0016 7047     		bx	lr
 1598              		.cfi_endproc
 1599              	.LFE36:
 1600              		.size	pid_inter, .-pid_inter
 1601              		.section	.text.cam_comp_rise_inter,"ax",%progbits
 1602              		.align	2
 1603              		.global	cam_comp_rise_inter
 1604              		.thumb
 1605              		.thumb_func
 1606              		.type	cam_comp_rise_inter, %function
 1607              	cam_comp_rise_inter:
 1608              	.LFB37:
 327:.\main.c      **** 
 328:.\main.c      **** /* Camera comparator rise interrupt */
 329:.\main.c      **** CY_ISR(cam_comp_rise_inter) {
 1609              		.loc 1 329 0
 1610              		.cfi_startproc
 1611              		@ args = 0, pretend = 0, frame = 0
 1612              		@ frame_needed = 1, uses_anonymous_args = 0
 1613              		@ link register save eliminated.
 1614 0000 80B4     		push	{r7}
 1615              	.LCFI19:
 1616              		.cfi_def_cfa_offset 4
ARM GAS  C:\Users\bccho\AppData\Local\Temp\ccBO8fce.s 			page 37


 1617 0002 00AF     		add	r7, sp, #0
 1618              		.cfi_offset 7, -4
 1619              	.LCFI20:
 1620              		.cfi_def_cfa_register 7
 330:.\main.c      **** //    if (camCompRiseInterrupted) {
 331:.\main.c      **** //        UART_PutString("Error 6: Interrupt not handled\n");
 332:.\main.c      **** //    }
 333:.\main.c      **** //    test6++;
 334:.\main.c      ****     camCompRiseInterrupted = 1;
 1621              		.loc 1 334 0
 1622 0004 40F20003 		movw	r3, #:lower16:camCompRiseInterrupted
 1623 0008 C0F20003 		movt	r3, #:upper16:camCompRiseInterrupted
 1624 000c 4FF00102 		mov	r2, #1
 1625 0010 1A60     		str	r2, [r3, #0]
 335:.\main.c      **** }
 1626              		.loc 1 335 0
 1627 0012 BD46     		mov	sp, r7
 1628 0014 80BC     		pop	{r7}
 1629 0016 7047     		bx	lr
 1630              		.cfi_endproc
 1631              	.LFE37:
 1632              		.size	cam_comp_rise_inter, .-cam_comp_rise_inter
 1633              		.section	.text.cam_comp_fall_inter,"ax",%progbits
 1634              		.align	2
 1635              		.global	cam_comp_fall_inter
 1636              		.thumb
 1637              		.thumb_func
 1638              		.type	cam_comp_fall_inter, %function
 1639              	cam_comp_fall_inter:
 1640              	.LFB38:
 336:.\main.c      **** 
 337:.\main.c      **** /* Camera comparator fall interrupt */
 338:.\main.c      **** CY_ISR(cam_comp_fall_inter) {
 1641              		.loc 1 338 0
 1642              		.cfi_startproc
 1643              		@ args = 0, pretend = 0, frame = 0
 1644              		@ frame_needed = 1, uses_anonymous_args = 0
 1645              		@ link register save eliminated.
 1646 0000 80B4     		push	{r7}
 1647              	.LCFI21:
 1648              		.cfi_def_cfa_offset 4
 1649 0002 00AF     		add	r7, sp, #0
 1650              		.cfi_offset 7, -4
 1651              	.LCFI22:
 1652              		.cfi_def_cfa_register 7
 339:.\main.c      **** //    if (camCompFallInterrupted) {
 340:.\main.c      **** //        UART_PutString("Error 7: Interrupt not handled\n");
 341:.\main.c      **** //    }
 342:.\main.c      **** //    test7++;
 343:.\main.c      ****     camCompFallInterrupted = 1;
 1653              		.loc 1 343 0
 1654 0004 40F20003 		movw	r3, #:lower16:camCompFallInterrupted
 1655 0008 C0F20003 		movt	r3, #:upper16:camCompFallInterrupted
 1656 000c 4FF00102 		mov	r2, #1
 1657 0010 1A60     		str	r2, [r3, #0]
 344:.\main.c      **** }
 1658              		.loc 1 344 0
ARM GAS  C:\Users\bccho\AppData\Local\Temp\ccBO8fce.s 			page 38


 1659 0012 BD46     		mov	sp, r7
 1660 0014 80BC     		pop	{r7}
 1661 0016 7047     		bx	lr
 1662              		.cfi_endproc
 1663              	.LFE38:
 1664              		.size	cam_comp_fall_inter, .-cam_comp_fall_inter
 1665              		.section	.text.cam_frame_inter,"ax",%progbits
 1666              		.align	2
 1667              		.global	cam_frame_inter
 1668              		.thumb
 1669              		.thumb_func
 1670              		.type	cam_frame_inter, %function
 1671              	cam_frame_inter:
 1672              	.LFB39:
 345:.\main.c      **** 
 346:.\main.c      **** /* Camera frame start interrupt */
 347:.\main.c      **** CY_ISR(cam_frame_inter) {
 1673              		.loc 1 347 0
 1674              		.cfi_startproc
 1675              		@ args = 0, pretend = 0, frame = 0
 1676              		@ frame_needed = 1, uses_anonymous_args = 0
 1677              		@ link register save eliminated.
 1678 0000 80B4     		push	{r7}
 1679              	.LCFI23:
 1680              		.cfi_def_cfa_offset 4
 1681 0002 00AF     		add	r7, sp, #0
 1682              		.cfi_offset 7, -4
 1683              	.LCFI24:
 1684              		.cfi_def_cfa_register 7
 348:.\main.c      **** //    if (camFrameInterrupted) {
 349:.\main.c      **** //        UART_PutString("Error 9: Interrupt not handled\n");
 350:.\main.c      **** //    }
 351:.\main.c      **** //    test9++;
 352:.\main.c      ****     camFrameInterrupted = 1;
 1685              		.loc 1 352 0
 1686 0004 40F20003 		movw	r3, #:lower16:camFrameInterrupted
 1687 0008 C0F20003 		movt	r3, #:upper16:camFrameInterrupted
 1688 000c 4FF00102 		mov	r2, #1
 1689 0010 1A60     		str	r2, [r3, #0]
 353:.\main.c      **** }
 1690              		.loc 1 353 0
 1691 0012 BD46     		mov	sp, r7
 1692 0014 80BC     		pop	{r7}
 1693 0016 7047     		bx	lr
 1694              		.cfi_endproc
 1695              	.LFE39:
 1696              		.size	cam_frame_inter, .-cam_frame_inter
 1697              		.section	.rodata
 1698 0369 000000   		.align	2
 1699              	.LC41:
 1700 036c 4C696E65 		.ascii	"Line mid: %f\012\000"
 1700      206D6964 
 1700      3A202566 
 1700      0A00
 1701 037a 00000000 		.section	.text.main,"ax",%progbits
 1701      0000
 1702              		.align	2
ARM GAS  C:\Users\bccho\AppData\Local\Temp\ccBO8fce.s 			page 39


 1703              		.global	main
 1704              		.thumb
 1705              		.thumb_func
 1706              		.type	main, %function
 1707              	main:
 1708              	.LFB40:
 354:.\main.c      **** 
 355:.\main.c      **** int main() {
 1709              		.loc 1 355 0
 1710              		.cfi_startproc
 1711              		@ args = 0, pretend = 0, frame = 32
 1712              		@ frame_needed = 1, uses_anonymous_args = 0
 1713 0000 B0B5     		push	{r4, r5, r7, lr}
 1714              	.LCFI25:
 1715              		.cfi_def_cfa_offset 16
 1716 0002 88B0     		sub	sp, sp, #32
 1717              	.LCFI26:
 1718              		.cfi_def_cfa_offset 48
 1719 0004 00AF     		add	r7, sp, #0
 1720              		.cfi_offset 14, -4
 1721              		.cfi_offset 7, -8
 1722              		.cfi_offset 5, -12
 1723              		.cfi_offset 4, -16
 1724              	.LCFI27:
 1725              		.cfi_def_cfa_register 7
 356:.\main.c      ****     /* Initialization */
 357:.\main.c      ****     CyGlobalIntEnable; // Enable global interrupts
 1726              		.loc 1 357 0
 1727              	@ 357 ".\main.c" 1
 1728 0006 62B6     		CPSIE   i
 1729              	@ 0 "" 2
 358:.\main.c      ****     
 359:.\main.c      ****     // Start LCD
 360:.\main.c      ****     LCD_Start();
 1730              		.loc 1 360 0
 1731              		.thumb
 1732 0008 FFF7FEFF 		bl	LCD_Start
 361:.\main.c      ****     
 362:.\main.c      ****     // Start motor PWM
 363:.\main.c      ****     PWM_Motor_Start();
 1733              		.loc 1 363 0
 1734 000c FFF7FEFF 		bl	PWM_Motor_Start
 364:.\main.c      ****     
 365:.\main.c      ****     // Start servo PWM
 366:.\main.c      ****     PWM_Servo_Start();
 1735              		.loc 1 366 0
 1736 0010 FFF7FEFF 		bl	PWM_Servo_Start
 367:.\main.c      ****     PWM_Servo_WriteCompare((MIN_TIME_SERVO + MAX_TIME_SERVO)/2 * MAIN_CLK_FREQ);
 1737              		.loc 1 367 0
 1738 0014 40F20003 		movw	r3, #:lower16:MIN_TIME_SERVO
 1739 0018 C0F20003 		movt	r3, #:upper16:MIN_TIME_SERVO
 1740 001c D3E90001 		ldrd	r0, [r3]
 1741 0020 40F20003 		movw	r3, #:lower16:MAX_TIME_SERVO
 1742 0024 C0F20003 		movt	r3, #:upper16:MAX_TIME_SERVO
 1743 0028 D3E90023 		ldrd	r2, [r3]
 1744 002c FFF7FEFF 		bl	__aeabi_dadd
 1745 0030 0246     		mov	r2, r0
ARM GAS  C:\Users\bccho\AppData\Local\Temp\ccBO8fce.s 			page 40


 1746 0032 0B46     		mov	r3, r1
 1747 0034 1046     		mov	r0, r2
 1748 0036 1946     		mov	r1, r3
 1749 0038 4FF00002 		mov	r2, #0
 1750 003c 4FF08043 		mov	r3, #1073741824
 1751 0040 FFF7FEFF 		bl	__aeabi_ddiv
 1752 0044 0246     		mov	r2, r0
 1753 0046 0B46     		mov	r3, r1
 1754 0048 1046     		mov	r0, r2
 1755 004a 1946     		mov	r1, r3
 1756 004c 40F20003 		movw	r3, #:lower16:MAIN_CLK_FREQ
 1757 0050 C0F20003 		movt	r3, #:upper16:MAIN_CLK_FREQ
 1758 0054 D3E90023 		ldrd	r2, [r3]
 1759 0058 FFF7FEFF 		bl	__aeabi_dmul
 1760 005c 0246     		mov	r2, r0
 1761 005e 0B46     		mov	r3, r1
 1762 0060 1046     		mov	r0, r2
 1763 0062 1946     		mov	r1, r3
 1764 0064 FFF7FEFF 		bl	__aeabi_d2uiz
 1765 0068 0346     		mov	r3, r0
 1766 006a 9BB2     		uxth	r3, r3
 1767 006c 1846     		mov	r0, r3
 1768 006e FFF7FEFF 		bl	PWM_Servo_WriteCompare
 368:.\main.c      ****     
 369:.\main.c      ****     // Start pushbutton
 370:.\main.c      ****     inter_button_Start();
 1769              		.loc 1 370 0
 1770 0072 FFF7FEFF 		bl	inter_button_Start
 371:.\main.c      ****     inter_button_SetVector(button_inter);
 1771              		.loc 1 371 0
 1772 0076 40F20000 		movw	r0, #:lower16:button_inter
 1773 007a C0F20000 		movt	r0, #:upper16:button_inter
 1774 007e FFF7FEFF 		bl	inter_button_SetVector
 372:.\main.c      ****     
 373:.\main.c      ****     // Start UART
 374:.\main.c      ****     UART_Start();
 1775              		.loc 1 374 0
 1776 0082 FFF7FEFF 		bl	UART_Start
 375:.\main.c      ****     rx_rcvd_Start();
 1777              		.loc 1 375 0
 1778 0086 FFF7FEFF 		bl	rx_rcvd_Start
 376:.\main.c      ****     rx_rcvd_SetVector(rx_inter);
 1779              		.loc 1 376 0
 1780 008a 40F20000 		movw	r0, #:lower16:rx_inter
 1781 008e C0F20000 		movt	r0, #:upper16:rx_inter
 1782 0092 FFF7FEFF 		bl	rx_rcvd_SetVector
 377:.\main.c      ****     
 378:.\main.c      ****     // Start wheel tick timer
 379:.\main.c      ****     Timer_Wheel_Tick_Start();
 1783              		.loc 1 379 0
 1784 0096 FFF7FEFF 		bl	Timer_Wheel_Tick_Start
 380:.\main.c      ****     wheel_tick_Start();
 1785              		.loc 1 380 0
 1786 009a FFF7FEFF 		bl	wheel_tick_Start
 381:.\main.c      ****     wheel_tick_SetVector(wheel_inter);
 1787              		.loc 1 381 0
 1788 009e 40F20000 		movw	r0, #:lower16:wheel_inter
ARM GAS  C:\Users\bccho\AppData\Local\Temp\ccBO8fce.s 			page 41


 1789 00a2 C0F20000 		movt	r0, #:upper16:wheel_inter
 1790 00a6 FFF7FEFF 		bl	wheel_tick_SetVector
 382:.\main.c      ****     
 383:.\main.c      ****     // Start tick timeout counter
 384:.\main.c      ****     Counter_Tick_Timeout_Start();
 1791              		.loc 1 384 0
 1792 00aa FFF7FEFF 		bl	Counter_Tick_Timeout_Start
 385:.\main.c      ****     tick_timeout_Start();
 1793              		.loc 1 385 0
 1794 00ae FFF7FEFF 		bl	tick_timeout_Start
 386:.\main.c      ****     tick_timeout_SetVector(timeout_inter);
 1795              		.loc 1 386 0
 1796 00b2 40F20000 		movw	r0, #:lower16:timeout_inter
 1797 00b6 C0F20000 		movt	r0, #:upper16:timeout_inter
 1798 00ba FFF7FEFF 		bl	tick_timeout_SetVector
 387:.\main.c      ****     
 388:.\main.c      ****     // Start PID update counter
 389:.\main.c      ****     Counter_PID_Start();
 1799              		.loc 1 389 0
 1800 00be FFF7FEFF 		bl	Counter_PID_Start
 390:.\main.c      ****     throttle_update_Start();
 1801              		.loc 1 390 0
 1802 00c2 FFF7FEFF 		bl	throttle_update_Start
 391:.\main.c      ****     throttle_update_SetVector(pid_inter);
 1803              		.loc 1 391 0
 1804 00c6 40F20000 		movw	r0, #:lower16:pid_inter
 1805 00ca C0F20000 		movt	r0, #:upper16:pid_inter
 1806 00ce FFF7FEFF 		bl	throttle_update_SetVector
 392:.\main.c      ****     
 393:.\main.c      ****     // Start camera interrupts
 394:.\main.c      ****     camera_comp_rise_Start();
 1807              		.loc 1 394 0
 1808 00d2 FFF7FEFF 		bl	camera_comp_rise_Start
 395:.\main.c      ****     camera_comp_rise_SetVector(cam_comp_rise_inter);
 1809              		.loc 1 395 0
 1810 00d6 40F20000 		movw	r0, #:lower16:cam_comp_rise_inter
 1811 00da C0F20000 		movt	r0, #:upper16:cam_comp_rise_inter
 1812 00de FFF7FEFF 		bl	camera_comp_rise_SetVector
 396:.\main.c      ****     camera_comp_fall_Start();
 1813              		.loc 1 396 0
 1814 00e2 FFF7FEFF 		bl	camera_comp_fall_Start
 397:.\main.c      ****     camera_comp_fall_SetVector(cam_comp_fall_inter);
 1815              		.loc 1 397 0
 1816 00e6 40F20000 		movw	r0, #:lower16:cam_comp_fall_inter
 1817 00ea C0F20000 		movt	r0, #:upper16:cam_comp_fall_inter
 1818 00ee FFF7FEFF 		bl	camera_comp_fall_SetVector
 398:.\main.c      ****     camera_frame_start_Start();
 1819              		.loc 1 398 0
 1820 00f2 FFF7FEFF 		bl	camera_frame_start_Start
 399:.\main.c      ****     camera_frame_start_SetVector(cam_frame_inter);
 1821              		.loc 1 399 0
 1822 00f6 40F20000 		movw	r0, #:lower16:cam_frame_inter
 1823 00fa C0F20000 		movt	r0, #:upper16:cam_frame_inter
 1824 00fe FFF7FEFF 		bl	camera_frame_start_SetVector
 400:.\main.c      ****     Timer_Line_Begin_Start();
 1825              		.loc 1 400 0
 1826 0102 FFF7FEFF 		bl	Timer_Line_Begin_Start
ARM GAS  C:\Users\bccho\AppData\Local\Temp\ccBO8fce.s 			page 42


 401:.\main.c      ****     Timer_Line_End_Start(); 
 1827              		.loc 1 401 0
 1828 0106 FFF7FEFF 		bl	Timer_Line_End_Start
 402:.\main.c      ****     Timer_Row_Start();
 1829              		.loc 1 402 0
 1830 010a FFF7FEFF 		bl	Timer_Row_Start
 403:.\main.c      ****     
 404:.\main.c      ****     Counter_First_Row_Start();
 1831              		.loc 1 404 0
 1832 010e FFF7FEFF 		bl	Counter_First_Row_Start
 405:.\main.c      ****     Counter_Last_Row_Start();
 1833              		.loc 1 405 0
 1834 0112 FFF7FEFF 		bl	Counter_Last_Row_Start
 406:.\main.c      ****     
 407:.\main.c      ****     // LCD initial text
 408:.\main.c      ****     LCD_Position(0, 0);
 1835              		.loc 1 408 0
 1836 0116 4FF00000 		mov	r0, #0
 1837 011a 4FF00001 		mov	r1, #0
 1838 011e FFF7FEFF 		bl	LCD_Position
 409:.\main.c      ****     LCD_PrintString(buildVersion);
 1839              		.loc 1 409 0
 1840 0122 40F20000 		movw	r0, #:lower16:buildVersion
 1841 0126 C0F20000 		movt	r0, #:upper16:buildVersion
 1842 012a FFF7FEFF 		bl	LCD_PrintString
 410:.\main.c      ****     
 411:.\main.c      ****     // Init serial
 412:.\main.c      ****     Serial_init();
 1843              		.loc 1 412 0
 1844 012e FFF7FEFF 		bl	Serial_init
 413:.\main.c      ****     
 414:.\main.c      ****     // Init speed control
 415:.\main.c      ****     SpeedControl_init();
 1845              		.loc 1 415 0
 1846 0132 FFF7FEFF 		bl	SpeedControl_init
 1847 0136 00E0     		b	.L99
 1848              	.L101:
 416:.\main.c      ****     
 417:.\main.c      ****     for(;;)
 418:.\main.c      ****     {
 419:.\main.c      ****         // Handle push button interrupt
 420:.\main.c      ****         if (buttonInterrupted) {
 421:.\main.c      ****             if (SpeedControl_isEnabled()) {
 422:.\main.c      ****                 SpeedControl_kill();
 423:.\main.c      ****             } else {
 424:.\main.c      ****                 SpeedControl_enableDistanceControl();
 425:.\main.c      ****                 SpeedControl_enable();
 426:.\main.c      ****             }
 427:.\main.c      ****             buttonInterrupted = 0;
 428:.\main.c      ****         }
 429:.\main.c      ****         
 430:.\main.c      ****         // Handle incoming serial data
 431:.\main.c      ****         if (rxInterrupted) {
 432:.\main.c      ****             char *message = Serial_handleData();
 433:.\main.c      ****             parseMessage(message);
 434:.\main.c      ****             rxInterrupted = 0;
 435:.\main.c      ****         }
ARM GAS  C:\Users\bccho\AppData\Local\Temp\ccBO8fce.s 			page 43


 436:.\main.c      ****         
 437:.\main.c      ****         // Handle wheel ticks
 438:.\main.c      ****         if (wheelTickInterrupted) {
 439:.\main.c      ****             SpeedControl_handleWheelTick();
 440:.\main.c      ****             wheelTickInterrupted = 0;
 441:.\main.c      ****         }
 442:.\main.c      ****         
 443:.\main.c      ****         // Handle wheel tick timeout
 444:.\main.c      ****         if (tickTimeoutInterrupted) {
 445:.\main.c      ****             SpeedControl_handleWheelTickTimeout();
 446:.\main.c      ****             tickTimeoutInterrupted = 0;
 447:.\main.c      ****         }
 448:.\main.c      ****         
 449:.\main.c      ****         // Perform PID update and update time count
 450:.\main.c      ****         if (pidTimerInterrupted) {
 451:.\main.c      ****             SpeedControl_handleTimer();
 452:.\main.c      ****             sprintf(strbuffer, "Line mid: %f\n", lineMid);
 453:.\main.c      ****             UART_PutString(strbuffer);
 454:.\main.c      ****             pidTimerInterrupted = 0;
 455:.\main.c      ****         }
 456:.\main.c      ****         
 457:.\main.c      ****         // Handle comparator rise interrupt
 458:.\main.c      ****         if (camCompRiseInterrupted) {
 459:.\main.c      ****             double lineBeginCyclesTemp = CAMERA_TIMER_PERIOD - Timer_Line_Begin_ReadCapture();
 460:.\main.c      ****             if (lineBeginCyclesTemp > 0.15*EXPECTED_ROW_CYCLES && lineBeginCyclesTemp < 0.95*EXPECT
 461:.\main.c      ****                 numCompBegin++;
 462:.\main.c      ****                 lineBeginCycles = lineBeginCyclesTemp;
 463:.\main.c      ****             }
 464:.\main.c      ****             camCompRiseInterrupted = 0;
 465:.\main.c      ****         }
 466:.\main.c      ****         
 467:.\main.c      ****         // Handle comparator fall interrupt
 468:.\main.c      ****         if (camCompFallInterrupted) {
 469:.\main.c      ****             double lineEndCyclesTemp = CAMERA_TIMER_PERIOD - Timer_Line_End_ReadCapture();
 470:.\main.c      ****             if (lineEndCyclesTemp > 0.15*EXPECTED_ROW_CYCLES && lineEndCyclesTemp < 0.95*EXPECTED_R
 471:.\main.c      ****                 numCompEnd++;
 472:.\main.c      ****                 lineEndCycles = lineEndCyclesTemp;
 473:.\main.c      ****                 int diff = lineEndCycles - lineBeginCycles;
 474:.\main.c      ****                 if (diff < 150 && diff > 0) {
 475:.\main.c      ****                     lineMid = ((lineEndCycles + lineBeginCycles)/2)/EXPECTED_ROW_CYCLES;
 476:.\main.c      ****                 }
 477:.\main.c      ****             }
 478:.\main.c      ****             camCompFallInterrupted = 0;
 479:.\main.c      ****         }
 480:.\main.c      ****         
 481:.\main.c      ****         // Handle frame interrupts
 482:.\main.c      ****         if (camFrameInterrupted) {
 483:.\main.c      ****             numFrames++;
 484:.\main.c      ****             camFrameInterrupted = 0;
 485:.\main.c      ****         }
 486:.\main.c      ****     }
 1849              		.loc 1 486 0
 1850 0138 00BF     		nop
 1851              	.L99:
 1852              		.loc 1 420 0
 1853 013a 40F20003 		movw	r3, #:lower16:buttonInterrupted
 1854 013e C0F20003 		movt	r3, #:upper16:buttonInterrupted
ARM GAS  C:\Users\bccho\AppData\Local\Temp\ccBO8fce.s 			page 44


 1855 0142 1B68     		ldr	r3, [r3, #0]
 1856 0144 002B     		cmp	r3, #0
 1857 0146 12D0     		beq	.L79
 1858              		.loc 1 421 0
 1859 0148 FFF7FEFF 		bl	SpeedControl_isEnabled
 1860 014c 0346     		mov	r3, r0
 1861 014e 002B     		cmp	r3, #0
 1862 0150 02D0     		beq	.L80
 1863              		.loc 1 422 0
 1864 0152 FFF7FEFF 		bl	SpeedControl_kill
 1865 0156 03E0     		b	.L81
 1866              	.L80:
 1867              		.loc 1 424 0
 1868 0158 FFF7FEFF 		bl	SpeedControl_enableDistanceControl
 1869              		.loc 1 425 0
 1870 015c FFF7FEFF 		bl	SpeedControl_enable
 1871              	.L81:
 1872              		.loc 1 427 0
 1873 0160 40F20003 		movw	r3, #:lower16:buttonInterrupted
 1874 0164 C0F20003 		movt	r3, #:upper16:buttonInterrupted
 1875 0168 4FF00002 		mov	r2, #0
 1876 016c 1A60     		str	r2, [r3, #0]
 1877              	.L79:
 1878              		.loc 1 431 0
 1879 016e 40F20003 		movw	r3, #:lower16:rxInterrupted
 1880 0172 C0F20003 		movt	r3, #:upper16:rxInterrupted
 1881 0176 1B68     		ldr	r3, [r3, #0]
 1882 0178 002B     		cmp	r3, #0
 1883 017a 0DD0     		beq	.L82
 1884              	.LBB12:
 1885              		.loc 1 432 0
 1886 017c FFF7FEFF 		bl	Serial_handleData
 1887 0180 0346     		mov	r3, r0
 1888 0182 7B60     		str	r3, [r7, #4]
 1889              		.loc 1 433 0
 1890 0184 7868     		ldr	r0, [r7, #4]
 1891 0186 FFF7FEFF 		bl	parseMessage
 1892              		.loc 1 434 0
 1893 018a 40F20003 		movw	r3, #:lower16:rxInterrupted
 1894 018e C0F20003 		movt	r3, #:upper16:rxInterrupted
 1895 0192 4FF00002 		mov	r2, #0
 1896 0196 1A60     		str	r2, [r3, #0]
 1897              	.L82:
 1898              	.LBE12:
 1899              		.loc 1 438 0
 1900 0198 40F20003 		movw	r3, #:lower16:wheelTickInterrupted
 1901 019c C0F20003 		movt	r3, #:upper16:wheelTickInterrupted
 1902 01a0 1B68     		ldr	r3, [r3, #0]
 1903 01a2 002B     		cmp	r3, #0
 1904 01a4 08D0     		beq	.L83
 1905              		.loc 1 439 0
 1906 01a6 FFF7FEFF 		bl	SpeedControl_handleWheelTick
 1907              		.loc 1 440 0
 1908 01aa 40F20003 		movw	r3, #:lower16:wheelTickInterrupted
 1909 01ae C0F20003 		movt	r3, #:upper16:wheelTickInterrupted
 1910 01b2 4FF00002 		mov	r2, #0
 1911 01b6 1A60     		str	r2, [r3, #0]
ARM GAS  C:\Users\bccho\AppData\Local\Temp\ccBO8fce.s 			page 45


 1912              	.L83:
 1913              		.loc 1 444 0
 1914 01b8 40F20003 		movw	r3, #:lower16:tickTimeoutInterrupted
 1915 01bc C0F20003 		movt	r3, #:upper16:tickTimeoutInterrupted
 1916 01c0 1B68     		ldr	r3, [r3, #0]
 1917 01c2 002B     		cmp	r3, #0
 1918 01c4 08D0     		beq	.L84
 1919              		.loc 1 445 0
 1920 01c6 FFF7FEFF 		bl	SpeedControl_handleWheelTickTimeout
 1921              		.loc 1 446 0
 1922 01ca 40F20003 		movw	r3, #:lower16:tickTimeoutInterrupted
 1923 01ce C0F20003 		movt	r3, #:upper16:tickTimeoutInterrupted
 1924 01d2 4FF00002 		mov	r2, #0
 1925 01d6 1A60     		str	r2, [r3, #0]
 1926              	.L84:
 1927              		.loc 1 450 0
 1928 01d8 40F20003 		movw	r3, #:lower16:pidTimerInterrupted
 1929 01dc C0F20003 		movt	r3, #:upper16:pidTimerInterrupted
 1930 01e0 1B68     		ldr	r3, [r3, #0]
 1931 01e2 002B     		cmp	r3, #0
 1932 01e4 1ED0     		beq	.L85
 1933              		.loc 1 451 0
 1934 01e6 FFF7FEFF 		bl	SpeedControl_handleTimer
 1935              		.loc 1 452 0
 1936 01ea 40F20003 		movw	r3, #:lower16:lineMid
 1937 01ee C0F20003 		movt	r3, #:upper16:lineMid
 1938 01f2 D3E90023 		ldrd	r2, [r3]
 1939 01f6 40F20000 		movw	r0, #:lower16:strbuffer
 1940 01fa C0F20000 		movt	r0, #:upper16:strbuffer
 1941 01fe 40F20001 		movw	r1, #:lower16:.LC41
 1942 0202 C0F20001 		movt	r1, #:upper16:.LC41
 1943 0206 FFF7FEFF 		bl	sprintf
 1944              		.loc 1 453 0
 1945 020a 40F20000 		movw	r0, #:lower16:strbuffer
 1946 020e C0F20000 		movt	r0, #:upper16:strbuffer
 1947 0212 FFF7FEFF 		bl	UART_PutString
 1948              		.loc 1 454 0
 1949 0216 40F20003 		movw	r3, #:lower16:pidTimerInterrupted
 1950 021a C0F20003 		movt	r3, #:upper16:pidTimerInterrupted
 1951 021e 4FF00002 		mov	r2, #0
 1952 0222 1A60     		str	r2, [r3, #0]
 1953              	.L85:
 1954              		.loc 1 458 0
 1955 0224 40F20003 		movw	r3, #:lower16:camCompRiseInterrupted
 1956 0228 C0F20003 		movt	r3, #:upper16:camCompRiseInterrupted
 1957 022c 1B68     		ldr	r3, [r3, #0]
 1958 022e 002B     		cmp	r3, #0
 1959 0230 74D0     		beq	.L86
 1960              	.LBB13:
 1961              		.loc 1 459 0
 1962 0232 40F20003 		movw	r3, #:lower16:CAMERA_TIMER_PERIOD
 1963 0236 C0F20003 		movt	r3, #:upper16:CAMERA_TIMER_PERIOD
 1964 023a D3E90045 		ldrd	r4, [r3]
 1965 023e FFF7FEFF 		bl	Timer_Line_Begin_ReadCapture
 1966 0242 0346     		mov	r3, r0
 1967 0244 1846     		mov	r0, r3
 1968 0246 FFF7FEFF 		bl	__aeabi_i2d
ARM GAS  C:\Users\bccho\AppData\Local\Temp\ccBO8fce.s 			page 46


 1969 024a 0246     		mov	r2, r0
 1970 024c 0B46     		mov	r3, r1
 1971 024e 2046     		mov	r0, r4
 1972 0250 2946     		mov	r1, r5
 1973 0252 FFF7FEFF 		bl	__aeabi_dsub
 1974 0256 0246     		mov	r2, r0
 1975 0258 0B46     		mov	r3, r1
 1976 025a C7E90223 		strd	r2, [r7, #8]
 1977              		.loc 1 460 0
 1978 025e 40F20003 		movw	r3, #:lower16:EXPECTED_ROW_CYCLES
 1979 0262 C0F20003 		movt	r3, #:upper16:EXPECTED_ROW_CYCLES
 1980 0266 D3E90023 		ldrd	r2, [r3]
 1981 026a 1046     		mov	r0, r2
 1982 026c 1946     		mov	r1, r3
 1983 026e 94A3     		adr	r3, .L102
 1984 0270 D3E90023 		ldrd	r2, [r3]
 1985 0274 FFF7FEFF 		bl	__aeabi_dmul
 1986 0278 0246     		mov	r2, r0
 1987 027a 0B46     		mov	r3, r1
 1988 027c 4FF00001 		mov	r1, #0
 1989 0280 0C46     		mov	r4, r1
 1990 0282 1046     		mov	r0, r2
 1991 0284 1946     		mov	r1, r3
 1992 0286 D7E90223 		ldrd	r2, [r7, #8]
 1993 028a FFF7FEFF 		bl	__aeabi_dcmplt
 1994 028e 0346     		mov	r3, r0
 1995 0290 002B     		cmp	r3, #0
 1996 0292 02D0     		beq	.L87
 1997              	.L88:
 1998 0294 4FF00103 		mov	r3, #1
 1999 0298 1C46     		mov	r4, r3
 2000              	.L87:
 2001 029a E3B2     		uxtb	r3, r4
 2002 029c 002B     		cmp	r3, #0
 2003 029e 36D0     		beq	.L89
 2004 02a0 40F20003 		movw	r3, #:lower16:EXPECTED_ROW_CYCLES
 2005 02a4 C0F20003 		movt	r3, #:upper16:EXPECTED_ROW_CYCLES
 2006 02a8 D3E90023 		ldrd	r2, [r3]
 2007 02ac 1046     		mov	r0, r2
 2008 02ae 1946     		mov	r1, r3
 2009 02b0 85A3     		adr	r3, .L102+8
 2010 02b2 D3E90023 		ldrd	r2, [r3]
 2011 02b6 FFF7FEFF 		bl	__aeabi_dmul
 2012 02ba 0246     		mov	r2, r0
 2013 02bc 0B46     		mov	r3, r1
 2014 02be 4FF00001 		mov	r1, #0
 2015 02c2 0C46     		mov	r4, r1
 2016 02c4 1046     		mov	r0, r2
 2017 02c6 1946     		mov	r1, r3
 2018 02c8 D7E90223 		ldrd	r2, [r7, #8]
 2019 02cc FFF7FEFF 		bl	__aeabi_dcmpgt
 2020 02d0 0346     		mov	r3, r0
 2021 02d2 002B     		cmp	r3, #0
 2022 02d4 02D0     		beq	.L90
 2023              	.L91:
 2024 02d6 4FF00103 		mov	r3, #1
 2025 02da 1C46     		mov	r4, r3
ARM GAS  C:\Users\bccho\AppData\Local\Temp\ccBO8fce.s 			page 47


 2026              	.L90:
 2027 02dc E3B2     		uxtb	r3, r4
 2028 02de 002B     		cmp	r3, #0
 2029 02e0 15D0     		beq	.L89
 2030              		.loc 1 461 0
 2031 02e2 40F20003 		movw	r3, #:lower16:numCompBegin
 2032 02e6 C0F20003 		movt	r3, #:upper16:numCompBegin
 2033 02ea 1B68     		ldr	r3, [r3, #0]
 2034 02ec 03F10102 		add	r2, r3, #1
 2035 02f0 40F20003 		movw	r3, #:lower16:numCompBegin
 2036 02f4 C0F20003 		movt	r3, #:upper16:numCompBegin
 2037 02f8 1A60     		str	r2, [r3, #0]
 2038              		.loc 1 462 0
 2039 02fa D7E90201 		ldrd	r0, [r7, #8]
 2040 02fe FFF7FEFF 		bl	__aeabi_d2iz
 2041 0302 0246     		mov	r2, r0
 2042 0304 40F20003 		movw	r3, #:lower16:lineBeginCycles
 2043 0308 C0F20003 		movt	r3, #:upper16:lineBeginCycles
 2044 030c 1A60     		str	r2, [r3, #0]
 2045              	.L89:
 2046              		.loc 1 464 0
 2047 030e 40F20003 		movw	r3, #:lower16:camCompRiseInterrupted
 2048 0312 C0F20003 		movt	r3, #:upper16:camCompRiseInterrupted
 2049 0316 4FF00002 		mov	r2, #0
 2050 031a 1A60     		str	r2, [r3, #0]
 2051              	.L86:
 2052              	.LBE13:
 2053              		.loc 1 468 0
 2054 031c 40F20003 		movw	r3, #:lower16:camCompFallInterrupted
 2055 0320 C0F20003 		movt	r3, #:upper16:camCompFallInterrupted
 2056 0324 1B68     		ldr	r3, [r3, #0]
 2057 0326 002B     		cmp	r3, #0
 2058 0328 00F0AD80 		beq	.L92
 2059              	.LBB14:
 2060              		.loc 1 469 0
 2061 032c 40F20003 		movw	r3, #:lower16:CAMERA_TIMER_PERIOD
 2062 0330 C0F20003 		movt	r3, #:upper16:CAMERA_TIMER_PERIOD
 2063 0334 D3E90045 		ldrd	r4, [r3]
 2064 0338 FFF7FEFF 		bl	Timer_Line_End_ReadCapture
 2065 033c 0346     		mov	r3, r0
 2066 033e 1846     		mov	r0, r3
 2067 0340 FFF7FEFF 		bl	__aeabi_i2d
 2068 0344 0246     		mov	r2, r0
 2069 0346 0B46     		mov	r3, r1
 2070 0348 2046     		mov	r0, r4
 2071 034a 2946     		mov	r1, r5
 2072 034c FFF7FEFF 		bl	__aeabi_dsub
 2073 0350 0246     		mov	r2, r0
 2074 0352 0B46     		mov	r3, r1
 2075 0354 C7E90423 		strd	r2, [r7, #16]
 2076              		.loc 1 470 0
 2077 0358 40F20003 		movw	r3, #:lower16:EXPECTED_ROW_CYCLES
 2078 035c C0F20003 		movt	r3, #:upper16:EXPECTED_ROW_CYCLES
 2079 0360 D3E90023 		ldrd	r2, [r3]
 2080 0364 1046     		mov	r0, r2
 2081 0366 1946     		mov	r1, r3
 2082 0368 55A3     		adr	r3, .L102
ARM GAS  C:\Users\bccho\AppData\Local\Temp\ccBO8fce.s 			page 48


 2083 036a D3E90023 		ldrd	r2, [r3]
 2084 036e FFF7FEFF 		bl	__aeabi_dmul
 2085 0372 0246     		mov	r2, r0
 2086 0374 0B46     		mov	r3, r1
 2087 0376 4FF00001 		mov	r1, #0
 2088 037a 0C46     		mov	r4, r1
 2089 037c 1046     		mov	r0, r2
 2090 037e 1946     		mov	r1, r3
 2091 0380 D7E90423 		ldrd	r2, [r7, #16]
 2092 0384 FFF7FEFF 		bl	__aeabi_dcmplt
 2093 0388 0346     		mov	r3, r0
 2094 038a 002B     		cmp	r3, #0
 2095 038c 02D0     		beq	.L93
 2096              	.L94:
 2097 038e 4FF00103 		mov	r3, #1
 2098 0392 1C46     		mov	r4, r3
 2099              	.L93:
 2100 0394 E3B2     		uxtb	r3, r4
 2101 0396 002B     		cmp	r3, #0
 2102 0398 6ED0     		beq	.L95
 2103 039a 40F20003 		movw	r3, #:lower16:EXPECTED_ROW_CYCLES
 2104 039e C0F20003 		movt	r3, #:upper16:EXPECTED_ROW_CYCLES
 2105 03a2 D3E90023 		ldrd	r2, [r3]
 2106 03a6 1046     		mov	r0, r2
 2107 03a8 1946     		mov	r1, r3
 2108 03aa 47A3     		adr	r3, .L102+8
 2109 03ac D3E90023 		ldrd	r2, [r3]
 2110 03b0 FFF7FEFF 		bl	__aeabi_dmul
 2111 03b4 0246     		mov	r2, r0
 2112 03b6 0B46     		mov	r3, r1
 2113 03b8 4FF00001 		mov	r1, #0
 2114 03bc 0C46     		mov	r4, r1
 2115 03be 1046     		mov	r0, r2
 2116 03c0 1946     		mov	r1, r3
 2117 03c2 D7E90423 		ldrd	r2, [r7, #16]
 2118 03c6 FFF7FEFF 		bl	__aeabi_dcmpgt
 2119 03ca 0346     		mov	r3, r0
 2120 03cc 002B     		cmp	r3, #0
 2121 03ce 02D0     		beq	.L96
 2122              	.L97:
 2123 03d0 4FF00103 		mov	r3, #1
 2124 03d4 1C46     		mov	r4, r3
 2125              	.L96:
 2126 03d6 E3B2     		uxtb	r3, r4
 2127 03d8 002B     		cmp	r3, #0
 2128 03da 4DD0     		beq	.L95
 2129              	.LBB15:
 2130              		.loc 1 471 0
 2131 03dc 40F20003 		movw	r3, #:lower16:numCompEnd
 2132 03e0 C0F20003 		movt	r3, #:upper16:numCompEnd
 2133 03e4 1B68     		ldr	r3, [r3, #0]
 2134 03e6 03F10102 		add	r2, r3, #1
 2135 03ea 40F20003 		movw	r3, #:lower16:numCompEnd
 2136 03ee C0F20003 		movt	r3, #:upper16:numCompEnd
 2137 03f2 1A60     		str	r2, [r3, #0]
 2138              		.loc 1 472 0
 2139 03f4 D7E90401 		ldrd	r0, [r7, #16]
ARM GAS  C:\Users\bccho\AppData\Local\Temp\ccBO8fce.s 			page 49


 2140 03f8 FFF7FEFF 		bl	__aeabi_d2iz
 2141 03fc 0246     		mov	r2, r0
 2142 03fe 40F20003 		movw	r3, #:lower16:lineEndCycles
 2143 0402 C0F20003 		movt	r3, #:upper16:lineEndCycles
 2144 0406 1A60     		str	r2, [r3, #0]
 2145              		.loc 1 473 0
 2146 0408 40F20003 		movw	r3, #:lower16:lineEndCycles
 2147 040c C0F20003 		movt	r3, #:upper16:lineEndCycles
 2148 0410 1A68     		ldr	r2, [r3, #0]
 2149 0412 40F20003 		movw	r3, #:lower16:lineBeginCycles
 2150 0416 C0F20003 		movt	r3, #:upper16:lineBeginCycles
 2151 041a 1B68     		ldr	r3, [r3, #0]
 2152 041c C3EB0203 		rsb	r3, r3, r2
 2153 0420 FB61     		str	r3, [r7, #28]
 2154              		.loc 1 474 0
 2155 0422 FB69     		ldr	r3, [r7, #28]
 2156 0424 952B     		cmp	r3, #149
 2157 0426 27DC     		bgt	.L95
 2158 0428 FB69     		ldr	r3, [r7, #28]
 2159 042a 002B     		cmp	r3, #0
 2160 042c 24DD     		ble	.L95
 2161              		.loc 1 475 0
 2162 042e 40F20003 		movw	r3, #:lower16:lineEndCycles
 2163 0432 C0F20003 		movt	r3, #:upper16:lineEndCycles
 2164 0436 1A68     		ldr	r2, [r3, #0]
 2165 0438 40F20003 		movw	r3, #:lower16:lineBeginCycles
 2166 043c C0F20003 		movt	r3, #:upper16:lineBeginCycles
 2167 0440 1B68     		ldr	r3, [r3, #0]
 2168 0442 1344     		add	r3, r2, r3
 2169 0444 4FEAD372 		lsr	r2, r3, #31
 2170 0448 1344     		add	r3, r2, r3
 2171 044a 4FEA6303 		asr	r3, r3, #1
 2172 044e 1846     		mov	r0, r3
 2173 0450 FFF7FEFF 		bl	__aeabi_i2d
 2174 0454 40F20003 		movw	r3, #:lower16:EXPECTED_ROW_CYCLES
 2175 0458 C0F20003 		movt	r3, #:upper16:EXPECTED_ROW_CYCLES
 2176 045c D3E90023 		ldrd	r2, [r3]
 2177 0460 FFF7FEFF 		bl	__aeabi_ddiv
 2178 0464 0246     		mov	r2, r0
 2179 0466 0B46     		mov	r3, r1
 2180 0468 1046     		mov	r0, r2
 2181 046a 1946     		mov	r1, r3
 2182 046c 40F20003 		movw	r3, #:lower16:lineMid
 2183 0470 C0F20003 		movt	r3, #:upper16:lineMid
 2184 0474 C3E90001 		strd	r0, [r3]
 2185              	.L95:
 2186              	.LBE15:
 2187              		.loc 1 478 0
 2188 0478 40F20003 		movw	r3, #:lower16:camCompFallInterrupted
 2189 047c C0F20003 		movt	r3, #:upper16:camCompFallInterrupted
 2190 0480 4FF00002 		mov	r2, #0
 2191 0484 1A60     		str	r2, [r3, #0]
 2192              	.L92:
 2193              	.LBE14:
 2194              		.loc 1 482 0
 2195 0486 40F20003 		movw	r3, #:lower16:camFrameInterrupted
 2196 048a C0F20003 		movt	r3, #:upper16:camFrameInterrupted
ARM GAS  C:\Users\bccho\AppData\Local\Temp\ccBO8fce.s 			page 50


 2197 048e 1B68     		ldr	r3, [r3, #0]
 2198 0490 002B     		cmp	r3, #0
 2199 0492 3FF451AE 		beq	.L101
 2200              		.loc 1 483 0
 2201 0496 40F20003 		movw	r3, #:lower16:numFrames
 2202 049a C0F20003 		movt	r3, #:upper16:numFrames
 2203 049e 1B68     		ldr	r3, [r3, #0]
 2204 04a0 03F10102 		add	r2, r3, #1
 2205 04a4 40F20003 		movw	r3, #:lower16:numFrames
 2206 04a8 C0F20003 		movt	r3, #:upper16:numFrames
 2207 04ac 1A60     		str	r2, [r3, #0]
 2208              		.loc 1 484 0
 2209 04ae 40F20003 		movw	r3, #:lower16:camFrameInterrupted
 2210 04b2 C0F20003 		movt	r3, #:upper16:camFrameInterrupted
 2211 04b6 4FF00002 		mov	r2, #0
 2212 04ba 1A60     		str	r2, [r3, #0]
 2213              		.loc 1 486 0
 2214 04bc 3DE6     		b	.L99
 2215              	.L103:
 2216 04be 00BF     		.align	3
 2217              	.L102:
 2218 04c0 33333333 		.word	858993459
 2219 04c4 3333C33F 		.word	1069757235
 2220 04c8 66666666 		.word	1717986918
 2221 04cc 6666EE3F 		.word	1072588390
 2222              		.cfi_endproc
 2223              	.LFE40:
 2224              		.size	main, .-main
 2225              		.text
 2226              	.Letext0:
 2227              		.section	.debug_loc,"",%progbits
 2228              	.Ldebug_loc0:
 2229              	.LLST0:
 2230 0000 00000000 		.4byte	.LFB29
 2231 0004 02000000 		.4byte	.LCFI0
 2232 0008 0100     		.2byte	0x1
 2233 000a 5D       		.byte	0x5d
 2234 000b 02000000 		.4byte	.LCFI0
 2235 000f 04000000 		.4byte	.LCFI1
 2236 0013 0200     		.2byte	0x2
 2237 0015 7D       		.byte	0x7d
 2238 0016 08       		.sleb128 8
 2239 0017 04000000 		.4byte	.LCFI1
 2240 001b 06000000 		.4byte	.LCFI2
 2241 001f 0200     		.2byte	0x2
 2242 0021 7D       		.byte	0x7d
 2243 0022 10       		.sleb128 16
 2244 0023 06000000 		.4byte	.LCFI2
 2245 0027 2A000000 		.4byte	.LFE29
 2246 002b 0200     		.2byte	0x2
 2247 002d 77       		.byte	0x77
 2248 002e 10       		.sleb128 16
 2249 002f 00000000 		.4byte	0x0
 2250 0033 00000000 		.4byte	0x0
 2251              	.LLST1:
 2252 0037 00000000 		.4byte	.LFB30
 2253 003b 02000000 		.4byte	.LCFI3
ARM GAS  C:\Users\bccho\AppData\Local\Temp\ccBO8fce.s 			page 51


 2254 003f 0100     		.2byte	0x1
 2255 0041 5D       		.byte	0x5d
 2256 0042 02000000 		.4byte	.LCFI3
 2257 0046 04000000 		.4byte	.LCFI4
 2258 004a 0200     		.2byte	0x2
 2259 004c 7D       		.byte	0x7d
 2260 004d 08       		.sleb128 8
 2261 004e 04000000 		.4byte	.LCFI4
 2262 0052 06000000 		.4byte	.LCFI5
 2263 0056 0200     		.2byte	0x2
 2264 0058 7D       		.byte	0x7d
 2265 0059 10       		.sleb128 16
 2266 005a 06000000 		.4byte	.LCFI5
 2267 005e 3A000000 		.4byte	.LFE30
 2268 0062 0200     		.2byte	0x2
 2269 0064 77       		.byte	0x77
 2270 0065 10       		.sleb128 16
 2271 0066 00000000 		.4byte	0x0
 2272 006a 00000000 		.4byte	0x0
 2273              	.LLST2:
 2274 006e 00000000 		.4byte	.LFB31
 2275 0072 04000000 		.4byte	.LCFI6
 2276 0076 0100     		.2byte	0x1
 2277 0078 5D       		.byte	0x5d
 2278 0079 04000000 		.4byte	.LCFI6
 2279 007d 06000000 		.4byte	.LCFI7
 2280 0081 0200     		.2byte	0x2
 2281 0083 7D       		.byte	0x7d
 2282 0084 24       		.sleb128 36
 2283 0085 06000000 		.4byte	.LCFI7
 2284 0089 08000000 		.4byte	.LCFI8
 2285 008d 0300     		.2byte	0x3
 2286 008f 7D       		.byte	0x7d
 2287 0090 B001     		.sleb128 176
 2288 0092 08000000 		.4byte	.LCFI8
 2289 0096 E8090000 		.4byte	.LFE31
 2290 009a 0300     		.2byte	0x3
 2291 009c 77       		.byte	0x77
 2292 009d 9001     		.sleb128 144
 2293 009f 00000000 		.4byte	0x0
 2294 00a3 00000000 		.4byte	0x0
 2295              	.LLST3:
 2296 00a7 00000000 		.4byte	.LFB32
 2297 00ab 02000000 		.4byte	.LCFI9
 2298 00af 0100     		.2byte	0x1
 2299 00b1 5D       		.byte	0x5d
 2300 00b2 02000000 		.4byte	.LCFI9
 2301 00b6 04000000 		.4byte	.LCFI10
 2302 00ba 0200     		.2byte	0x2
 2303 00bc 7D       		.byte	0x7d
 2304 00bd 04       		.sleb128 4
 2305 00be 04000000 		.4byte	.LCFI10
 2306 00c2 18000000 		.4byte	.LFE32
 2307 00c6 0200     		.2byte	0x2
 2308 00c8 77       		.byte	0x77
 2309 00c9 04       		.sleb128 4
 2310 00ca 00000000 		.4byte	0x0
ARM GAS  C:\Users\bccho\AppData\Local\Temp\ccBO8fce.s 			page 52


 2311 00ce 00000000 		.4byte	0x0
 2312              	.LLST4:
 2313 00d2 00000000 		.4byte	.LFB33
 2314 00d6 02000000 		.4byte	.LCFI11
 2315 00da 0100     		.2byte	0x1
 2316 00dc 5D       		.byte	0x5d
 2317 00dd 02000000 		.4byte	.LCFI11
 2318 00e1 04000000 		.4byte	.LCFI12
 2319 00e5 0200     		.2byte	0x2
 2320 00e7 7D       		.byte	0x7d
 2321 00e8 04       		.sleb128 4
 2322 00e9 04000000 		.4byte	.LCFI12
 2323 00ed 18000000 		.4byte	.LFE33
 2324 00f1 0200     		.2byte	0x2
 2325 00f3 77       		.byte	0x77
 2326 00f4 04       		.sleb128 4
 2327 00f5 00000000 		.4byte	0x0
 2328 00f9 00000000 		.4byte	0x0
 2329              	.LLST5:
 2330 00fd 00000000 		.4byte	.LFB34
 2331 0101 02000000 		.4byte	.LCFI13
 2332 0105 0100     		.2byte	0x1
 2333 0107 5D       		.byte	0x5d
 2334 0108 02000000 		.4byte	.LCFI13
 2335 010c 04000000 		.4byte	.LCFI14
 2336 0110 0200     		.2byte	0x2
 2337 0112 7D       		.byte	0x7d
 2338 0113 04       		.sleb128 4
 2339 0114 04000000 		.4byte	.LCFI14
 2340 0118 18000000 		.4byte	.LFE34
 2341 011c 0200     		.2byte	0x2
 2342 011e 77       		.byte	0x77
 2343 011f 04       		.sleb128 4
 2344 0120 00000000 		.4byte	0x0
 2345 0124 00000000 		.4byte	0x0
 2346              	.LLST6:
 2347 0128 00000000 		.4byte	.LFB35
 2348 012c 02000000 		.4byte	.LCFI15
 2349 0130 0100     		.2byte	0x1
 2350 0132 5D       		.byte	0x5d
 2351 0133 02000000 		.4byte	.LCFI15
 2352 0137 04000000 		.4byte	.LCFI16
 2353 013b 0200     		.2byte	0x2
 2354 013d 7D       		.byte	0x7d
 2355 013e 04       		.sleb128 4
 2356 013f 04000000 		.4byte	.LCFI16
 2357 0143 18000000 		.4byte	.LFE35
 2358 0147 0200     		.2byte	0x2
 2359 0149 77       		.byte	0x77
 2360 014a 04       		.sleb128 4
 2361 014b 00000000 		.4byte	0x0
 2362 014f 00000000 		.4byte	0x0
 2363              	.LLST7:
 2364 0153 00000000 		.4byte	.LFB36
 2365 0157 02000000 		.4byte	.LCFI17
 2366 015b 0100     		.2byte	0x1
 2367 015d 5D       		.byte	0x5d
ARM GAS  C:\Users\bccho\AppData\Local\Temp\ccBO8fce.s 			page 53


 2368 015e 02000000 		.4byte	.LCFI17
 2369 0162 04000000 		.4byte	.LCFI18
 2370 0166 0200     		.2byte	0x2
 2371 0168 7D       		.byte	0x7d
 2372 0169 04       		.sleb128 4
 2373 016a 04000000 		.4byte	.LCFI18
 2374 016e 18000000 		.4byte	.LFE36
 2375 0172 0200     		.2byte	0x2
 2376 0174 77       		.byte	0x77
 2377 0175 04       		.sleb128 4
 2378 0176 00000000 		.4byte	0x0
 2379 017a 00000000 		.4byte	0x0
 2380              	.LLST8:
 2381 017e 00000000 		.4byte	.LFB37
 2382 0182 02000000 		.4byte	.LCFI19
 2383 0186 0100     		.2byte	0x1
 2384 0188 5D       		.byte	0x5d
 2385 0189 02000000 		.4byte	.LCFI19
 2386 018d 04000000 		.4byte	.LCFI20
 2387 0191 0200     		.2byte	0x2
 2388 0193 7D       		.byte	0x7d
 2389 0194 04       		.sleb128 4
 2390 0195 04000000 		.4byte	.LCFI20
 2391 0199 18000000 		.4byte	.LFE37
 2392 019d 0200     		.2byte	0x2
 2393 019f 77       		.byte	0x77
 2394 01a0 04       		.sleb128 4
 2395 01a1 00000000 		.4byte	0x0
 2396 01a5 00000000 		.4byte	0x0
 2397              	.LLST9:
 2398 01a9 00000000 		.4byte	.LFB38
 2399 01ad 02000000 		.4byte	.LCFI21
 2400 01b1 0100     		.2byte	0x1
 2401 01b3 5D       		.byte	0x5d
 2402 01b4 02000000 		.4byte	.LCFI21
 2403 01b8 04000000 		.4byte	.LCFI22
 2404 01bc 0200     		.2byte	0x2
 2405 01be 7D       		.byte	0x7d
 2406 01bf 04       		.sleb128 4
 2407 01c0 04000000 		.4byte	.LCFI22
 2408 01c4 18000000 		.4byte	.LFE38
 2409 01c8 0200     		.2byte	0x2
 2410 01ca 77       		.byte	0x77
 2411 01cb 04       		.sleb128 4
 2412 01cc 00000000 		.4byte	0x0
 2413 01d0 00000000 		.4byte	0x0
 2414              	.LLST10:
 2415 01d4 00000000 		.4byte	.LFB39
 2416 01d8 02000000 		.4byte	.LCFI23
 2417 01dc 0100     		.2byte	0x1
 2418 01de 5D       		.byte	0x5d
 2419 01df 02000000 		.4byte	.LCFI23
 2420 01e3 04000000 		.4byte	.LCFI24
 2421 01e7 0200     		.2byte	0x2
 2422 01e9 7D       		.byte	0x7d
 2423 01ea 04       		.sleb128 4
 2424 01eb 04000000 		.4byte	.LCFI24
ARM GAS  C:\Users\bccho\AppData\Local\Temp\ccBO8fce.s 			page 54


 2425 01ef 18000000 		.4byte	.LFE39
 2426 01f3 0200     		.2byte	0x2
 2427 01f5 77       		.byte	0x77
 2428 01f6 04       		.sleb128 4
 2429 01f7 00000000 		.4byte	0x0
 2430 01fb 00000000 		.4byte	0x0
 2431              	.LLST11:
 2432 01ff 00000000 		.4byte	.LFB40
 2433 0203 02000000 		.4byte	.LCFI25
 2434 0207 0100     		.2byte	0x1
 2435 0209 5D       		.byte	0x5d
 2436 020a 02000000 		.4byte	.LCFI25
 2437 020e 04000000 		.4byte	.LCFI26
 2438 0212 0200     		.2byte	0x2
 2439 0214 7D       		.byte	0x7d
 2440 0215 10       		.sleb128 16
 2441 0216 04000000 		.4byte	.LCFI26
 2442 021a 06000000 		.4byte	.LCFI27
 2443 021e 0200     		.2byte	0x2
 2444 0220 7D       		.byte	0x7d
 2445 0221 30       		.sleb128 48
 2446 0222 06000000 		.4byte	.LCFI27
 2447 0226 D0040000 		.4byte	.LFE40
 2448 022a 0200     		.2byte	0x2
 2449 022c 77       		.byte	0x77
 2450 022d 30       		.sleb128 48
 2451 022e 00000000 		.4byte	0x0
 2452 0232 00000000 		.4byte	0x0
 2453              		.file 2 "./Generated_Source/PSoC5/core_cm3.h"
 2454              		.section	.debug_info
 2455 0000 DE050000 		.4byte	0x5de
 2456 0004 0200     		.2byte	0x2
 2457 0006 00000000 		.4byte	.Ldebug_abbrev0
 2458 000a 04       		.byte	0x4
 2459 000b 01       		.uleb128 0x1
 2460 000c 51030000 		.4byte	.LASF64
 2461 0010 01       		.byte	0x1
 2462 0011 36030000 		.4byte	.LASF65
 2463 0015 D8010000 		.4byte	.LASF66
 2464 0019 00000000 		.4byte	0x0
 2465 001d 00000000 		.4byte	0x0
 2466 0021 00000000 		.4byte	.Ldebug_ranges0+0x0
 2467 0025 00000000 		.4byte	.Ldebug_line0
 2468 0029 02       		.uleb128 0x2
 2469 002a 01       		.byte	0x1
 2470 002b 06       		.byte	0x6
 2471 002c B5010000 		.4byte	.LASF0
 2472 0030 02       		.uleb128 0x2
 2473 0031 01       		.byte	0x1
 2474 0032 08       		.byte	0x8
 2475 0033 99010000 		.4byte	.LASF1
 2476 0037 02       		.uleb128 0x2
 2477 0038 02       		.byte	0x2
 2478 0039 05       		.byte	0x5
 2479 003a 9E000000 		.4byte	.LASF2
 2480 003e 02       		.uleb128 0x2
 2481 003f 02       		.byte	0x2
ARM GAS  C:\Users\bccho\AppData\Local\Temp\ccBO8fce.s 			page 55


 2482 0040 07       		.byte	0x7
 2483 0041 A3020000 		.4byte	.LASF3
 2484 0045 02       		.uleb128 0x2
 2485 0046 04       		.byte	0x4
 2486 0047 05       		.byte	0x5
 2487 0048 CF020000 		.4byte	.LASF4
 2488 004c 02       		.uleb128 0x2
 2489 004d 04       		.byte	0x4
 2490 004e 07       		.byte	0x7
 2491 004f 3A020000 		.4byte	.LASF5
 2492 0053 02       		.uleb128 0x2
 2493 0054 08       		.byte	0x8
 2494 0055 05       		.byte	0x5
 2495 0056 31010000 		.4byte	.LASF6
 2496 005a 02       		.uleb128 0x2
 2497 005b 08       		.byte	0x8
 2498 005c 07       		.byte	0x7
 2499 005d C1010000 		.4byte	.LASF7
 2500 0061 03       		.uleb128 0x3
 2501 0062 04       		.byte	0x4
 2502 0063 05       		.byte	0x5
 2503 0064 696E7400 		.ascii	"int\000"
 2504 0068 02       		.uleb128 0x2
 2505 0069 04       		.byte	0x4
 2506 006a 07       		.byte	0x7
 2507 006b 2D020000 		.4byte	.LASF8
 2508 006f 02       		.uleb128 0x2
 2509 0070 01       		.byte	0x1
 2510 0071 08       		.byte	0x8
 2511 0072 CA020000 		.4byte	.LASF9
 2512 0076 04       		.uleb128 0x4
 2513 0077 04       		.byte	0x4
 2514 0078 07       		.byte	0x7
 2515 0079 05       		.uleb128 0x5
 2516 007a 04       		.byte	0x4
 2517 007b 6F000000 		.4byte	0x6f
 2518 007f 06       		.uleb128 0x6
 2519 0080 01       		.byte	0x1
 2520 0081 24000000 		.4byte	.LASF11
 2521 0085 01       		.byte	0x1
 2522 0086 36       		.byte	0x36
 2523 0087 01       		.byte	0x1
 2524 0088 A9000000 		.4byte	0xa9
 2525 008c 00000000 		.4byte	.LFB29
 2526 0090 2A000000 		.4byte	.LFE29
 2527 0094 00000000 		.4byte	.LLST0
 2528 0098 A9000000 		.4byte	0xa9
 2529 009c 07       		.uleb128 0x7
 2530 009d 6100     		.ascii	"a\000"
 2531 009f 01       		.byte	0x1
 2532 00a0 36       		.byte	0x36
 2533 00a1 A9000000 		.4byte	0xa9
 2534 00a5 02       		.byte	0x2
 2535 00a6 91       		.byte	0x91
 2536 00a7 70       		.sleb128 -16
 2537 00a8 00       		.byte	0x0
 2538 00a9 02       		.uleb128 0x2
ARM GAS  C:\Users\bccho\AppData\Local\Temp\ccBO8fce.s 			page 56


 2539 00aa 08       		.byte	0x8
 2540 00ab 04       		.byte	0x4
 2541 00ac 10030000 		.4byte	.LASF10
 2542 00b0 06       		.uleb128 0x6
 2543 00b1 01       		.byte	0x1
 2544 00b2 4C030000 		.4byte	.LASF12
 2545 00b6 01       		.byte	0x1
 2546 00b7 3A       		.byte	0x3a
 2547 00b8 01       		.byte	0x1
 2548 00b9 A9000000 		.4byte	0xa9
 2549 00bd 00000000 		.4byte	.LFB30
 2550 00c1 3A000000 		.4byte	.LFE30
 2551 00c5 37000000 		.4byte	.LLST1
 2552 00c9 DA000000 		.4byte	0xda
 2553 00cd 07       		.uleb128 0x7
 2554 00ce 6100     		.ascii	"a\000"
 2555 00d0 01       		.byte	0x1
 2556 00d1 3A       		.byte	0x3a
 2557 00d2 A9000000 		.4byte	0xa9
 2558 00d6 02       		.byte	0x2
 2559 00d7 91       		.byte	0x91
 2560 00d8 70       		.sleb128 -16
 2561 00d9 00       		.byte	0x0
 2562 00da 08       		.uleb128 0x8
 2563 00db 01       		.byte	0x1
 2564 00dc E9000000 		.4byte	.LASF30
 2565 00e0 01       		.byte	0x1
 2566 00e1 46       		.byte	0x46
 2567 00e2 01       		.byte	0x1
 2568 00e3 00000000 		.4byte	.LFB31
 2569 00e7 E8090000 		.4byte	.LFE31
 2570 00eb 6E000000 		.4byte	.LLST2
 2571 00ef 67020000 		.4byte	0x267
 2572 00f3 09       		.uleb128 0x9
 2573 00f4 08030000 		.4byte	.LASF13
 2574 00f8 01       		.byte	0x1
 2575 00f9 46       		.byte	0x46
 2576 00fa 79000000 		.4byte	0x79
 2577 00fe 03       		.byte	0x3
 2578 00ff 91       		.byte	0x91
 2579 0100 F47E     		.sleb128 -140
 2580 0102 0A       		.uleb128 0xa
 2581 0103 FE020000 		.4byte	.LASF14
 2582 0107 01       		.byte	0x1
 2583 0108 49       		.byte	0x49
 2584 0109 67020000 		.4byte	0x267
 2585 010d 03       		.byte	0x3
 2586 010e 91       		.byte	0x91
 2587 010f A87F     		.sleb128 -88
 2588 0111 0B       		.uleb128 0xb
 2589 0112 2E000000 		.4byte	.LBB2
 2590 0116 D4090000 		.4byte	.LBE2
 2591 011a 0A       		.uleb128 0xa
 2592 011b 81030000 		.4byte	.LASF15
 2593 011f 01       		.byte	0x1
 2594 0120 4B       		.byte	0x4b
 2595 0121 61000000 		.4byte	0x61
ARM GAS  C:\Users\bccho\AppData\Local\Temp\ccBO8fce.s 			page 57


 2596 0125 03       		.byte	0x3
 2597 0126 91       		.byte	0x91
 2598 0127 AC7F     		.sleb128 -84
 2599 0129 0C       		.uleb128 0xc
 2600 012a 54000000 		.4byte	.LBB3
 2601 012e AE000000 		.4byte	.LBE3
 2602 0132 46010000 		.4byte	0x146
 2603 0136 0A       		.uleb128 0xa
 2604 0137 A8000000 		.4byte	.LASF16
 2605 013b 01       		.byte	0x1
 2606 013c 4F       		.byte	0x4f
 2607 013d 61000000 		.4byte	0x61
 2608 0141 03       		.byte	0x3
 2609 0142 91       		.byte	0x91
 2610 0143 A47F     		.sleb128 -92
 2611 0145 00       		.byte	0x0
 2612 0146 0C       		.uleb128 0xc
 2613 0147 38020000 		.4byte	.LBB4
 2614 014b 9C020000 		.4byte	.LBE4
 2615 014f 63010000 		.4byte	0x163
 2616 0153 0A       		.uleb128 0xa
 2617 0154 A8000000 		.4byte	.LASF16
 2618 0158 01       		.byte	0x1
 2619 0159 8B       		.byte	0x8b
 2620 015a 61000000 		.4byte	0x61
 2621 015e 03       		.byte	0x3
 2622 015f 91       		.byte	0x91
 2623 0160 A07F     		.sleb128 -96
 2624 0162 00       		.byte	0x0
 2625 0163 0C       		.uleb128 0xc
 2626 0164 B4020000 		.4byte	.LBB5
 2627 0168 16030000 		.4byte	.LBE5
 2628 016c 80010000 		.4byte	0x180
 2629 0170 0A       		.uleb128 0xa
 2630 0171 A8000000 		.4byte	.LASF16
 2631 0175 01       		.byte	0x1
 2632 0176 96       		.byte	0x96
 2633 0177 A9000000 		.4byte	0xa9
 2634 017b 03       		.byte	0x3
 2635 017c 91       		.byte	0x91
 2636 017d 987F     		.sleb128 -104
 2637 017f 00       		.byte	0x0
 2638 0180 0C       		.uleb128 0xc
 2639 0181 2E030000 		.4byte	.LBB6
 2640 0185 92030000 		.4byte	.LBE6
 2641 0189 9D010000 		.4byte	0x19d
 2642 018d 0A       		.uleb128 0xa
 2643 018e A8000000 		.4byte	.LASF16
 2644 0192 01       		.byte	0x1
 2645 0193 A1       		.byte	0xa1
 2646 0194 61000000 		.4byte	0x61
 2647 0198 03       		.byte	0x3
 2648 0199 91       		.byte	0x91
 2649 019a 947F     		.sleb128 -108
 2650 019c 00       		.byte	0x0
 2651 019d 0C       		.uleb128 0xc
 2652 019e AA030000 		.4byte	.LBB7
ARM GAS  C:\Users\bccho\AppData\Local\Temp\ccBO8fce.s 			page 58


 2653 01a2 02040000 		.4byte	.LBE7
 2654 01a6 BA010000 		.4byte	0x1ba
 2655 01aa 0A       		.uleb128 0xa
 2656 01ab A8000000 		.4byte	.LASF16
 2657 01af 01       		.byte	0x1
 2658 01b0 AC       		.byte	0xac
 2659 01b1 61000000 		.4byte	0x61
 2660 01b5 03       		.byte	0x3
 2661 01b6 91       		.byte	0x91
 2662 01b7 907F     		.sleb128 -112
 2663 01b9 00       		.byte	0x0
 2664 01ba 0C       		.uleb128 0xc
 2665 01bb 1A040000 		.4byte	.LBB8
 2666 01bf 7C040000 		.4byte	.LBE8
 2667 01c3 D7010000 		.4byte	0x1d7
 2668 01c7 0A       		.uleb128 0xa
 2669 01c8 A8000000 		.4byte	.LASF16
 2670 01cc 01       		.byte	0x1
 2671 01cd B7       		.byte	0xb7
 2672 01ce A9000000 		.4byte	0xa9
 2673 01d2 03       		.byte	0x3
 2674 01d3 91       		.byte	0x91
 2675 01d4 887F     		.sleb128 -120
 2676 01d6 00       		.byte	0x0
 2677 01d7 0C       		.uleb128 0xc
 2678 01d8 94040000 		.4byte	.LBB9
 2679 01dc F6040000 		.4byte	.LBE9
 2680 01e0 F4010000 		.4byte	0x1f4
 2681 01e4 0A       		.uleb128 0xa
 2682 01e5 A8000000 		.4byte	.LASF16
 2683 01e9 01       		.byte	0x1
 2684 01ea C2       		.byte	0xc2
 2685 01eb A9000000 		.4byte	0xa9
 2686 01ef 03       		.byte	0x3
 2687 01f0 91       		.byte	0x91
 2688 01f1 807F     		.sleb128 -128
 2689 01f3 00       		.byte	0x0
 2690 01f4 0B       		.uleb128 0xb
 2691 01f5 68070000 		.4byte	.LBB10
 2692 01f9 D4090000 		.4byte	.LBE10
 2693 01fd 0D       		.uleb128 0xd
 2694 01fe A8000000 		.4byte	.LASF16
 2695 0202 01       		.byte	0x1
 2696 0203 0C01     		.2byte	0x10c
 2697 0205 A9000000 		.4byte	0xa9
 2698 0209 03       		.byte	0x3
 2699 020a 91       		.byte	0x91
 2700 020b F87E     		.sleb128 -136
 2701 020d 0D       		.uleb128 0xd
 2702 020e D1000000 		.4byte	.LASF17
 2703 0212 01       		.byte	0x1
 2704 0213 1701     		.2byte	0x117
 2705 0215 A9000000 		.4byte	0xa9
 2706 0219 03       		.byte	0x3
 2707 021a 91       		.byte	0x91
 2708 021b B07F     		.sleb128 -80
 2709 021d 0D       		.uleb128 0xd
ARM GAS  C:\Users\bccho\AppData\Local\Temp\ccBO8fce.s 			page 59


 2710 021e 6A010000 		.4byte	.LASF18
 2711 0222 01       		.byte	0x1
 2712 0223 1801     		.2byte	0x118
 2713 0225 A9000000 		.4byte	0xa9
 2714 0229 03       		.byte	0x3
 2715 022a 91       		.byte	0x91
 2716 022b B87F     		.sleb128 -72
 2717 022d 0B       		.uleb128 0xb
 2718 022e 96070000 		.4byte	.LBB11
 2719 0232 22090000 		.4byte	.LBE11
 2720 0236 0D       		.uleb128 0xd
 2721 0237 7A000000 		.4byte	.LASF19
 2722 023b 01       		.byte	0x1
 2723 023c 1001     		.2byte	0x110
 2724 023e A9000000 		.4byte	0xa9
 2725 0242 02       		.byte	0x2
 2726 0243 91       		.byte	0x91
 2727 0244 40       		.sleb128 -64
 2728 0245 0D       		.uleb128 0xd
 2729 0246 F6000000 		.4byte	.LASF20
 2730 024a 01       		.byte	0x1
 2731 024b 1101     		.2byte	0x111
 2732 024d A9000000 		.4byte	0xa9
 2733 0251 02       		.byte	0x2
 2734 0252 91       		.byte	0x91
 2735 0253 48       		.sleb128 -56
 2736 0254 0D       		.uleb128 0xd
 2737 0255 E0020000 		.4byte	.LASF21
 2738 0259 01       		.byte	0x1
 2739 025a 1201     		.2byte	0x112
 2740 025c A9000000 		.4byte	0xa9
 2741 0260 02       		.byte	0x2
 2742 0261 91       		.byte	0x91
 2743 0262 50       		.sleb128 -48
 2744 0263 00       		.byte	0x0
 2745 0264 00       		.byte	0x0
 2746 0265 00       		.byte	0x0
 2747 0266 00       		.byte	0x0
 2748 0267 0E       		.uleb128 0xe
 2749 0268 6F000000 		.4byte	0x6f
 2750 026c 77020000 		.4byte	0x277
 2751 0270 0F       		.uleb128 0xf
 2752 0271 76000000 		.4byte	0x76
 2753 0275 03       		.byte	0x3
 2754 0276 00       		.byte	0x0
 2755 0277 10       		.uleb128 0x10
 2756 0278 01       		.byte	0x1
 2757 0279 5C020000 		.4byte	.LASF22
 2758 027d 01       		.byte	0x1
 2759 027e 2101     		.2byte	0x121
 2760 0280 01       		.byte	0x1
 2761 0281 00000000 		.4byte	.LFB32
 2762 0285 18000000 		.4byte	.LFE32
 2763 0289 A7000000 		.4byte	.LLST3
 2764 028d 10       		.uleb128 0x10
 2765 028e 01       		.byte	0x1
 2766 028f 71000000 		.4byte	.LASF23
ARM GAS  C:\Users\bccho\AppData\Local\Temp\ccBO8fce.s 			page 60


 2767 0293 01       		.byte	0x1
 2768 0294 2901     		.2byte	0x129
 2769 0296 01       		.byte	0x1
 2770 0297 00000000 		.4byte	.LFB33
 2771 029b 18000000 		.4byte	.LFE33
 2772 029f D2000000 		.4byte	.LLST4
 2773 02a3 10       		.uleb128 0x10
 2774 02a4 01       		.byte	0x1
 2775 02a5 65000000 		.4byte	.LASF24
 2776 02a9 01       		.byte	0x1
 2777 02aa 3101     		.2byte	0x131
 2778 02ac 01       		.byte	0x1
 2779 02ad 00000000 		.4byte	.LFB34
 2780 02b1 18000000 		.4byte	.LFE34
 2781 02b5 FD000000 		.4byte	.LLST5
 2782 02b9 10       		.uleb128 0x10
 2783 02ba 01       		.byte	0x1
 2784 02bb A7010000 		.4byte	.LASF25
 2785 02bf 01       		.byte	0x1
 2786 02c0 3901     		.2byte	0x139
 2787 02c2 01       		.byte	0x1
 2788 02c3 00000000 		.4byte	.LFB35
 2789 02c7 18000000 		.4byte	.LFE35
 2790 02cb 28010000 		.4byte	.LLST6
 2791 02cf 10       		.uleb128 0x10
 2792 02d0 01       		.byte	0x1
 2793 02d1 84000000 		.4byte	.LASF26
 2794 02d5 01       		.byte	0x1
 2795 02d6 4101     		.2byte	0x141
 2796 02d8 01       		.byte	0x1
 2797 02d9 00000000 		.4byte	.LFB36
 2798 02dd 18000000 		.4byte	.LFE36
 2799 02e1 53010000 		.4byte	.LLST7
 2800 02e5 10       		.uleb128 0x10
 2801 02e6 01       		.byte	0x1
 2802 02e7 69020000 		.4byte	.LASF27
 2803 02eb 01       		.byte	0x1
 2804 02ec 4901     		.2byte	0x149
 2805 02ee 01       		.byte	0x1
 2806 02ef 00000000 		.4byte	.LFB37
 2807 02f3 18000000 		.4byte	.LFE37
 2808 02f7 7E010000 		.4byte	.LLST8
 2809 02fb 10       		.uleb128 0x10
 2810 02fc 01       		.byte	0x1
 2811 02fd 71010000 		.4byte	.LASF28
 2812 0301 01       		.byte	0x1
 2813 0302 5201     		.2byte	0x152
 2814 0304 01       		.byte	0x1
 2815 0305 00000000 		.4byte	.LFB38
 2816 0309 18000000 		.4byte	.LFE38
 2817 030d A9010000 		.4byte	.LLST9
 2818 0311 10       		.uleb128 0x10
 2819 0312 01       		.byte	0x1
 2820 0313 4C020000 		.4byte	.LASF29
 2821 0317 01       		.byte	0x1
 2822 0318 5B01     		.2byte	0x15b
 2823 031a 01       		.byte	0x1
ARM GAS  C:\Users\bccho\AppData\Local\Temp\ccBO8fce.s 			page 61


 2824 031b 00000000 		.4byte	.LFB39
 2825 031f 18000000 		.4byte	.LFE39
 2826 0323 D4010000 		.4byte	.LLST10
 2827 0327 11       		.uleb128 0x11
 2828 0328 01       		.byte	0x1
 2829 0329 8E000000 		.4byte	.LASF31
 2830 032d 01       		.byte	0x1
 2831 032e 6301     		.2byte	0x163
 2832 0330 61000000 		.4byte	0x61
 2833 0334 00000000 		.4byte	.LFB40
 2834 0338 D0040000 		.4byte	.LFE40
 2835 033c FF010000 		.4byte	.LLST11
 2836 0340 B1030000 		.4byte	0x3b1
 2837 0344 0C       		.uleb128 0xc
 2838 0345 7C010000 		.4byte	.LBB12
 2839 0349 98010000 		.4byte	.LBE12
 2840 034d 61030000 		.4byte	0x361
 2841 0351 0D       		.uleb128 0xd
 2842 0352 08030000 		.4byte	.LASF13
 2843 0356 01       		.byte	0x1
 2844 0357 B001     		.2byte	0x1b0
 2845 0359 79000000 		.4byte	0x79
 2846 035d 02       		.byte	0x2
 2847 035e 91       		.byte	0x91
 2848 035f 54       		.sleb128 -44
 2849 0360 00       		.byte	0x0
 2850 0361 0C       		.uleb128 0xc
 2851 0362 32020000 		.4byte	.LBB13
 2852 0366 1C030000 		.4byte	.LBE13
 2853 036a 7E030000 		.4byte	0x37e
 2854 036e 0D       		.uleb128 0xd
 2855 036f B6020000 		.4byte	.LASF32
 2856 0373 01       		.byte	0x1
 2857 0374 CB01     		.2byte	0x1cb
 2858 0376 A9000000 		.4byte	0xa9
 2859 037a 02       		.byte	0x2
 2860 037b 91       		.byte	0x91
 2861 037c 58       		.sleb128 -40
 2862 037d 00       		.byte	0x0
 2863 037e 0B       		.uleb128 0xb
 2864 037f 2C030000 		.4byte	.LBB14
 2865 0383 86040000 		.4byte	.LBE14
 2866 0387 0D       		.uleb128 0xd
 2867 0388 53000000 		.4byte	.LASF33
 2868 038c 01       		.byte	0x1
 2869 038d D501     		.2byte	0x1d5
 2870 038f A9000000 		.4byte	0xa9
 2871 0393 02       		.byte	0x2
 2872 0394 91       		.byte	0x91
 2873 0395 60       		.sleb128 -32
 2874 0396 0B       		.uleb128 0xb
 2875 0397 DC030000 		.4byte	.LBB15
 2876 039b 78040000 		.4byte	.LBE15
 2877 039f 0D       		.uleb128 0xd
 2878 03a0 2A000000 		.4byte	.LASF34
 2879 03a4 01       		.byte	0x1
 2880 03a5 D901     		.2byte	0x1d9
ARM GAS  C:\Users\bccho\AppData\Local\Temp\ccBO8fce.s 			page 62


 2881 03a7 61000000 		.4byte	0x61
 2882 03ab 02       		.byte	0x2
 2883 03ac 91       		.byte	0x91
 2884 03ad 6C       		.sleb128 -20
 2885 03ae 00       		.byte	0x0
 2886 03af 00       		.byte	0x0
 2887 03b0 00       		.byte	0x0
 2888 03b1 12       		.uleb128 0x12
 2889 03b2 17030000 		.4byte	.LASF35
 2890 03b6 02       		.byte	0x2
 2891 03b7 CE06     		.2byte	0x6ce
 2892 03b9 BF030000 		.4byte	0x3bf
 2893 03bd 01       		.byte	0x1
 2894 03be 01       		.byte	0x1
 2895 03bf 13       		.uleb128 0x13
 2896 03c0 61000000 		.4byte	0x61
 2897 03c4 0E       		.uleb128 0xe
 2898 03c5 6F000000 		.4byte	0x6f
 2899 03c9 D4030000 		.4byte	0x3d4
 2900 03cd 0F       		.uleb128 0xf
 2901 03ce 76000000 		.4byte	0x76
 2902 03d2 0B       		.byte	0xb
 2903 03d3 00       		.byte	0x0
 2904 03d4 14       		.uleb128 0x14
 2905 03d5 74030000 		.4byte	.LASF36
 2906 03d9 01       		.byte	0x1
 2907 03da 0B       		.byte	0xb
 2908 03db C4030000 		.4byte	0x3c4
 2909 03df 01       		.byte	0x1
 2910 03e0 05       		.byte	0x5
 2911 03e1 03       		.byte	0x3
 2912 03e2 00000000 		.4byte	buildVersion
 2913 03e6 0E       		.uleb128 0xe
 2914 03e7 6F000000 		.4byte	0x6f
 2915 03eb F6030000 		.4byte	0x3f6
 2916 03ef 0F       		.uleb128 0xf
 2917 03f0 76000000 		.4byte	0x76
 2918 03f4 63       		.byte	0x63
 2919 03f5 00       		.byte	0x0
 2920 03f6 14       		.uleb128 0x14
 2921 03f7 60010000 		.4byte	.LASF37
 2922 03fb 01       		.byte	0x1
 2923 03fc 0C       		.byte	0xc
 2924 03fd E6030000 		.4byte	0x3e6
 2925 0401 01       		.byte	0x1
 2926 0402 05       		.byte	0x5
 2927 0403 03       		.byte	0x3
 2928 0404 00000000 		.4byte	strbuffer
 2929 0408 14       		.uleb128 0x14
 2930 0409 7D020000 		.4byte	.LASF38
 2931 040d 01       		.byte	0x1
 2932 040e 12       		.byte	0x12
 2933 040f 61000000 		.4byte	0x61
 2934 0413 01       		.byte	0x1
 2935 0414 05       		.byte	0x5
 2936 0415 03       		.byte	0x3
 2937 0416 00000000 		.4byte	buttonInterrupted
ARM GAS  C:\Users\bccho\AppData\Local\Temp\ccBO8fce.s 			page 63


 2938 041a 14       		.uleb128 0x14
 2939 041b AE000000 		.4byte	.LASF39
 2940 041f 01       		.byte	0x1
 2941 0420 13       		.byte	0x13
 2942 0421 61000000 		.4byte	0x61
 2943 0425 01       		.byte	0x1
 2944 0426 05       		.byte	0x5
 2945 0427 03       		.byte	0x3
 2946 0428 00000000 		.4byte	rxInterrupted
 2947 042c 14       		.uleb128 0x14
 2948 042d BC000000 		.4byte	.LASF40
 2949 0431 01       		.byte	0x1
 2950 0432 14       		.byte	0x14
 2951 0433 61000000 		.4byte	0x61
 2952 0437 01       		.byte	0x1
 2953 0438 05       		.byte	0x5
 2954 0439 03       		.byte	0x3
 2955 043a 00000000 		.4byte	wheelTickInterrupted
 2956 043e 14       		.uleb128 0x14
 2957 043f 5D030000 		.4byte	.LASF41
 2958 0443 01       		.byte	0x1
 2959 0444 15       		.byte	0x15
 2960 0445 61000000 		.4byte	0x61
 2961 0449 01       		.byte	0x1
 2962 044a 05       		.byte	0x5
 2963 044b 03       		.byte	0x3
 2964 044c 00000000 		.4byte	tickTimeoutInterrupted
 2965 0450 14       		.uleb128 0x14
 2966 0451 EA020000 		.4byte	.LASF42
 2967 0455 01       		.byte	0x1
 2968 0456 16       		.byte	0x16
 2969 0457 61000000 		.4byte	0x61
 2970 045b 01       		.byte	0x1
 2971 045c 05       		.byte	0x5
 2972 045d 03       		.byte	0x3
 2973 045e 00000000 		.4byte	pidTimerInterrupted
 2974 0462 14       		.uleb128 0x14
 2975 0463 3F010000 		.4byte	.LASF43
 2976 0467 01       		.byte	0x1
 2977 0468 17       		.byte	0x17
 2978 0469 61000000 		.4byte	0x61
 2979 046d 01       		.byte	0x1
 2980 046e 05       		.byte	0x5
 2981 046f 03       		.byte	0x3
 2982 0470 00000000 		.4byte	camCompRiseInterrupted
 2983 0474 14       		.uleb128 0x14
 2984 0475 1A010000 		.4byte	.LASF44
 2985 0479 01       		.byte	0x1
 2986 047a 18       		.byte	0x18
 2987 047b 61000000 		.4byte	0x61
 2988 047f 01       		.byte	0x1
 2989 0480 05       		.byte	0x5
 2990 0481 03       		.byte	0x3
 2991 0482 00000000 		.4byte	camCompFallInterrupted
 2992 0486 14       		.uleb128 0x14
 2993 0487 24030000 		.4byte	.LASF45
 2994 048b 01       		.byte	0x1
ARM GAS  C:\Users\bccho\AppData\Local\Temp\ccBO8fce.s 			page 64


 2995 048c 19       		.byte	0x19
 2996 048d 61000000 		.4byte	0x61
 2997 0491 01       		.byte	0x1
 2998 0492 05       		.byte	0x5
 2999 0493 03       		.byte	0x3
 3000 0494 00000000 		.4byte	camRowInterrupted
 3001 0498 14       		.uleb128 0x14
 3002 0499 00000000 		.4byte	.LASF46
 3003 049d 01       		.byte	0x1
 3004 049e 1A       		.byte	0x1a
 3005 049f 61000000 		.4byte	0x61
 3006 04a3 01       		.byte	0x1
 3007 04a4 05       		.byte	0x5
 3008 04a5 03       		.byte	0x3
 3009 04a6 00000000 		.4byte	camFrameInterrupted
 3010 04aa 14       		.uleb128 0x14
 3011 04ab 56010000 		.4byte	.LASF47
 3012 04af 01       		.byte	0x1
 3013 04b0 1C       		.byte	0x1c
 3014 04b1 61000000 		.4byte	0x61
 3015 04b5 01       		.byte	0x1
 3016 04b6 05       		.byte	0x5
 3017 04b7 03       		.byte	0x3
 3018 04b8 00000000 		.4byte	numFrames
 3019 04bc 14       		.uleb128 0x14
 3020 04bd 4B000000 		.4byte	.LASF48
 3021 04c1 01       		.byte	0x1
 3022 04c2 1D       		.byte	0x1d
 3023 04c3 61000000 		.4byte	0x61
 3024 04c7 01       		.byte	0x1
 3025 04c8 05       		.byte	0x5
 3026 04c9 03       		.byte	0x3
 3027 04ca 00000000 		.4byte	numRows
 3028 04ce 14       		.uleb128 0x14
 3029 04cf 3F030000 		.4byte	.LASF49
 3030 04d3 01       		.byte	0x1
 3031 04d4 1E       		.byte	0x1e
 3032 04d5 61000000 		.4byte	0x61
 3033 04d9 01       		.byte	0x1
 3034 04da 05       		.byte	0x5
 3035 04db 03       		.byte	0x3
 3036 04dc 00000000 		.4byte	numCompBegin
 3037 04e0 14       		.uleb128 0x14
 3038 04e1 93000000 		.4byte	.LASF50
 3039 04e5 01       		.byte	0x1
 3040 04e6 1F       		.byte	0x1f
 3041 04e7 61000000 		.4byte	0x61
 3042 04eb 01       		.byte	0x1
 3043 04ec 05       		.byte	0x5
 3044 04ed 03       		.byte	0x3
 3045 04ee 00000000 		.4byte	numCompEnd
 3046 04f2 14       		.uleb128 0x14
 3047 04f3 9A030000 		.4byte	.LASF51
 3048 04f7 01       		.byte	0x1
 3049 04f8 20       		.byte	0x20
 3050 04f9 61000000 		.4byte	0x61
 3051 04fd 01       		.byte	0x1
ARM GAS  C:\Users\bccho\AppData\Local\Temp\ccBO8fce.s 			page 65


 3052 04fe 05       		.byte	0x5
 3053 04ff 03       		.byte	0x3
 3054 0500 00000000 		.4byte	rowCycles
 3055 0504 14       		.uleb128 0x14
 3056 0505 14000000 		.4byte	.LASF52
 3057 0509 01       		.byte	0x1
 3058 050a 21       		.byte	0x21
 3059 050b 61000000 		.4byte	0x61
 3060 050f 01       		.byte	0x1
 3061 0510 05       		.byte	0x5
 3062 0511 03       		.byte	0x3
 3063 0512 00000000 		.4byte	lineBeginCycles
 3064 0516 14       		.uleb128 0x14
 3065 0517 3D000000 		.4byte	.LASF53
 3066 051b 01       		.byte	0x1
 3067 051c 22       		.byte	0x22
 3068 051d 61000000 		.4byte	0x61
 3069 0521 01       		.byte	0x1
 3070 0522 05       		.byte	0x5
 3071 0523 03       		.byte	0x3
 3072 0524 00000000 		.4byte	lineEndCycles
 3073 0528 14       		.uleb128 0x14
 3074 0529 2F000000 		.4byte	.LASF54
 3075 052d 01       		.byte	0x1
 3076 052e 24       		.byte	0x24
 3077 052f 3A050000 		.4byte	0x53a
 3078 0533 01       		.byte	0x1
 3079 0534 05       		.byte	0x5
 3080 0535 03       		.byte	0x3
 3081 0536 00000000 		.4byte	MAIN_CLK_FREQ
 3082 053a 15       		.uleb128 0x15
 3083 053b A9000000 		.4byte	0xa9
 3084 053f 14       		.uleb128 0x14
 3085 0540 DA000000 		.4byte	.LASF55
 3086 0544 01       		.byte	0x1
 3087 0545 27       		.byte	0x27
 3088 0546 3A050000 		.4byte	0x53a
 3089 054a 01       		.byte	0x1
 3090 054b 05       		.byte	0x5
 3091 054c 03       		.byte	0x3
 3092 054d 00000000 		.4byte	MIN_TIME_SERVO
 3093 0551 14       		.uleb128 0x14
 3094 0552 8B030000 		.4byte	.LASF56
 3095 0556 01       		.byte	0x1
 3096 0557 28       		.byte	0x28
 3097 0558 3A050000 		.4byte	0x53a
 3098 055c 01       		.byte	0x1
 3099 055d 05       		.byte	0x5
 3100 055e 03       		.byte	0x3
 3101 055f 00000000 		.4byte	MAX_TIME_SERVO
 3102 0563 14       		.uleb128 0x14
 3103 0564 8F020000 		.4byte	.LASF57
 3104 0568 01       		.byte	0x1
 3105 0569 2A       		.byte	0x2a
 3106 056a 3A050000 		.4byte	0x53a
 3107 056e 01       		.byte	0x1
 3108 056f 05       		.byte	0x5
ARM GAS  C:\Users\bccho\AppData\Local\Temp\ccBO8fce.s 			page 66


 3109 0570 03       		.byte	0x3
 3110 0571 00000000 		.4byte	CAMERA_TIMER_PERIOD
 3111 0575 14       		.uleb128 0x14
 3112 0576 85010000 		.4byte	.LASF58
 3113 057a 01       		.byte	0x1
 3114 057b 2D       		.byte	0x2d
 3115 057c 3A050000 		.4byte	0x53a
 3116 0580 01       		.byte	0x1
 3117 0581 05       		.byte	0x5
 3118 0582 03       		.byte	0x3
 3119 0583 00000000 		.4byte	EXPECTED_ROW_CYCLES
 3120 0587 14       		.uleb128 0x14
 3121 0588 02010000 		.4byte	.LASF59
 3122 058c 01       		.byte	0x1
 3123 058d 2F       		.byte	0x2f
 3124 058e 61000000 		.4byte	0x61
 3125 0592 01       		.byte	0x1
 3126 0593 05       		.byte	0x5
 3127 0594 03       		.byte	0x3
 3128 0595 00000000 		.4byte	test6
 3129 0599 14       		.uleb128 0x14
 3130 059a 08010000 		.4byte	.LASF60
 3131 059e 01       		.byte	0x1
 3132 059f 30       		.byte	0x30
 3133 05a0 61000000 		.4byte	0x61
 3134 05a4 01       		.byte	0x1
 3135 05a5 05       		.byte	0x5
 3136 05a6 03       		.byte	0x3
 3137 05a7 00000000 		.4byte	test7
 3138 05ab 14       		.uleb128 0x14
 3139 05ac 0E010000 		.4byte	.LASF61
 3140 05b0 01       		.byte	0x1
 3141 05b1 31       		.byte	0x31
 3142 05b2 61000000 		.4byte	0x61
 3143 05b6 01       		.byte	0x1
 3144 05b7 05       		.byte	0x5
 3145 05b8 03       		.byte	0x3
 3146 05b9 00000000 		.4byte	test8
 3147 05bd 14       		.uleb128 0x14
 3148 05be 14010000 		.4byte	.LASF62
 3149 05c2 01       		.byte	0x1
 3150 05c3 32       		.byte	0x32
 3151 05c4 61000000 		.4byte	0x61
 3152 05c8 01       		.byte	0x1
 3153 05c9 05       		.byte	0x5
 3154 05ca 03       		.byte	0x3
 3155 05cb 00000000 		.4byte	test9
 3156 05cf 14       		.uleb128 0x14
 3157 05d0 D8020000 		.4byte	.LASF63
 3158 05d4 01       		.byte	0x1
 3159 05d5 34       		.byte	0x34
 3160 05d6 A9000000 		.4byte	0xa9
 3161 05da 01       		.byte	0x1
 3162 05db 05       		.byte	0x5
 3163 05dc 03       		.byte	0x3
 3164 05dd 00000000 		.4byte	lineMid
 3165 05e1 00       		.byte	0x0
ARM GAS  C:\Users\bccho\AppData\Local\Temp\ccBO8fce.s 			page 67


 3166              		.section	.debug_abbrev
 3167 0000 01       		.uleb128 0x1
 3168 0001 11       		.uleb128 0x11
 3169 0002 01       		.byte	0x1
 3170 0003 25       		.uleb128 0x25
 3171 0004 0E       		.uleb128 0xe
 3172 0005 13       		.uleb128 0x13
 3173 0006 0B       		.uleb128 0xb
 3174 0007 03       		.uleb128 0x3
 3175 0008 0E       		.uleb128 0xe
 3176 0009 1B       		.uleb128 0x1b
 3177 000a 0E       		.uleb128 0xe
 3178 000b 11       		.uleb128 0x11
 3179 000c 01       		.uleb128 0x1
 3180 000d 52       		.uleb128 0x52
 3181 000e 01       		.uleb128 0x1
 3182 000f 55       		.uleb128 0x55
 3183 0010 06       		.uleb128 0x6
 3184 0011 10       		.uleb128 0x10
 3185 0012 06       		.uleb128 0x6
 3186 0013 00       		.byte	0x0
 3187 0014 00       		.byte	0x0
 3188 0015 02       		.uleb128 0x2
 3189 0016 24       		.uleb128 0x24
 3190 0017 00       		.byte	0x0
 3191 0018 0B       		.uleb128 0xb
 3192 0019 0B       		.uleb128 0xb
 3193 001a 3E       		.uleb128 0x3e
 3194 001b 0B       		.uleb128 0xb
 3195 001c 03       		.uleb128 0x3
 3196 001d 0E       		.uleb128 0xe
 3197 001e 00       		.byte	0x0
 3198 001f 00       		.byte	0x0
 3199 0020 03       		.uleb128 0x3
 3200 0021 24       		.uleb128 0x24
 3201 0022 00       		.byte	0x0
 3202 0023 0B       		.uleb128 0xb
 3203 0024 0B       		.uleb128 0xb
 3204 0025 3E       		.uleb128 0x3e
 3205 0026 0B       		.uleb128 0xb
 3206 0027 03       		.uleb128 0x3
 3207 0028 08       		.uleb128 0x8
 3208 0029 00       		.byte	0x0
 3209 002a 00       		.byte	0x0
 3210 002b 04       		.uleb128 0x4
 3211 002c 24       		.uleb128 0x24
 3212 002d 00       		.byte	0x0
 3213 002e 0B       		.uleb128 0xb
 3214 002f 0B       		.uleb128 0xb
 3215 0030 3E       		.uleb128 0x3e
 3216 0031 0B       		.uleb128 0xb
 3217 0032 00       		.byte	0x0
 3218 0033 00       		.byte	0x0
 3219 0034 05       		.uleb128 0x5
 3220 0035 0F       		.uleb128 0xf
 3221 0036 00       		.byte	0x0
 3222 0037 0B       		.uleb128 0xb
ARM GAS  C:\Users\bccho\AppData\Local\Temp\ccBO8fce.s 			page 68


 3223 0038 0B       		.uleb128 0xb
 3224 0039 49       		.uleb128 0x49
 3225 003a 13       		.uleb128 0x13
 3226 003b 00       		.byte	0x0
 3227 003c 00       		.byte	0x0
 3228 003d 06       		.uleb128 0x6
 3229 003e 2E       		.uleb128 0x2e
 3230 003f 01       		.byte	0x1
 3231 0040 3F       		.uleb128 0x3f
 3232 0041 0C       		.uleb128 0xc
 3233 0042 03       		.uleb128 0x3
 3234 0043 0E       		.uleb128 0xe
 3235 0044 3A       		.uleb128 0x3a
 3236 0045 0B       		.uleb128 0xb
 3237 0046 3B       		.uleb128 0x3b
 3238 0047 0B       		.uleb128 0xb
 3239 0048 27       		.uleb128 0x27
 3240 0049 0C       		.uleb128 0xc
 3241 004a 49       		.uleb128 0x49
 3242 004b 13       		.uleb128 0x13
 3243 004c 11       		.uleb128 0x11
 3244 004d 01       		.uleb128 0x1
 3245 004e 12       		.uleb128 0x12
 3246 004f 01       		.uleb128 0x1
 3247 0050 40       		.uleb128 0x40
 3248 0051 06       		.uleb128 0x6
 3249 0052 01       		.uleb128 0x1
 3250 0053 13       		.uleb128 0x13
 3251 0054 00       		.byte	0x0
 3252 0055 00       		.byte	0x0
 3253 0056 07       		.uleb128 0x7
 3254 0057 05       		.uleb128 0x5
 3255 0058 00       		.byte	0x0
 3256 0059 03       		.uleb128 0x3
 3257 005a 08       		.uleb128 0x8
 3258 005b 3A       		.uleb128 0x3a
 3259 005c 0B       		.uleb128 0xb
 3260 005d 3B       		.uleb128 0x3b
 3261 005e 0B       		.uleb128 0xb
 3262 005f 49       		.uleb128 0x49
 3263 0060 13       		.uleb128 0x13
 3264 0061 02       		.uleb128 0x2
 3265 0062 0A       		.uleb128 0xa
 3266 0063 00       		.byte	0x0
 3267 0064 00       		.byte	0x0
 3268 0065 08       		.uleb128 0x8
 3269 0066 2E       		.uleb128 0x2e
 3270 0067 01       		.byte	0x1
 3271 0068 3F       		.uleb128 0x3f
 3272 0069 0C       		.uleb128 0xc
 3273 006a 03       		.uleb128 0x3
 3274 006b 0E       		.uleb128 0xe
 3275 006c 3A       		.uleb128 0x3a
 3276 006d 0B       		.uleb128 0xb
 3277 006e 3B       		.uleb128 0x3b
 3278 006f 0B       		.uleb128 0xb
 3279 0070 27       		.uleb128 0x27
ARM GAS  C:\Users\bccho\AppData\Local\Temp\ccBO8fce.s 			page 69


 3280 0071 0C       		.uleb128 0xc
 3281 0072 11       		.uleb128 0x11
 3282 0073 01       		.uleb128 0x1
 3283 0074 12       		.uleb128 0x12
 3284 0075 01       		.uleb128 0x1
 3285 0076 40       		.uleb128 0x40
 3286 0077 06       		.uleb128 0x6
 3287 0078 01       		.uleb128 0x1
 3288 0079 13       		.uleb128 0x13
 3289 007a 00       		.byte	0x0
 3290 007b 00       		.byte	0x0
 3291 007c 09       		.uleb128 0x9
 3292 007d 05       		.uleb128 0x5
 3293 007e 00       		.byte	0x0
 3294 007f 03       		.uleb128 0x3
 3295 0080 0E       		.uleb128 0xe
 3296 0081 3A       		.uleb128 0x3a
 3297 0082 0B       		.uleb128 0xb
 3298 0083 3B       		.uleb128 0x3b
 3299 0084 0B       		.uleb128 0xb
 3300 0085 49       		.uleb128 0x49
 3301 0086 13       		.uleb128 0x13
 3302 0087 02       		.uleb128 0x2
 3303 0088 0A       		.uleb128 0xa
 3304 0089 00       		.byte	0x0
 3305 008a 00       		.byte	0x0
 3306 008b 0A       		.uleb128 0xa
 3307 008c 34       		.uleb128 0x34
 3308 008d 00       		.byte	0x0
 3309 008e 03       		.uleb128 0x3
 3310 008f 0E       		.uleb128 0xe
 3311 0090 3A       		.uleb128 0x3a
 3312 0091 0B       		.uleb128 0xb
 3313 0092 3B       		.uleb128 0x3b
 3314 0093 0B       		.uleb128 0xb
 3315 0094 49       		.uleb128 0x49
 3316 0095 13       		.uleb128 0x13
 3317 0096 02       		.uleb128 0x2
 3318 0097 0A       		.uleb128 0xa
 3319 0098 00       		.byte	0x0
 3320 0099 00       		.byte	0x0
 3321 009a 0B       		.uleb128 0xb
 3322 009b 0B       		.uleb128 0xb
 3323 009c 01       		.byte	0x1
 3324 009d 11       		.uleb128 0x11
 3325 009e 01       		.uleb128 0x1
 3326 009f 12       		.uleb128 0x12
 3327 00a0 01       		.uleb128 0x1
 3328 00a1 00       		.byte	0x0
 3329 00a2 00       		.byte	0x0
 3330 00a3 0C       		.uleb128 0xc
 3331 00a4 0B       		.uleb128 0xb
 3332 00a5 01       		.byte	0x1
 3333 00a6 11       		.uleb128 0x11
 3334 00a7 01       		.uleb128 0x1
 3335 00a8 12       		.uleb128 0x12
 3336 00a9 01       		.uleb128 0x1
ARM GAS  C:\Users\bccho\AppData\Local\Temp\ccBO8fce.s 			page 70


 3337 00aa 01       		.uleb128 0x1
 3338 00ab 13       		.uleb128 0x13
 3339 00ac 00       		.byte	0x0
 3340 00ad 00       		.byte	0x0
 3341 00ae 0D       		.uleb128 0xd
 3342 00af 34       		.uleb128 0x34
 3343 00b0 00       		.byte	0x0
 3344 00b1 03       		.uleb128 0x3
 3345 00b2 0E       		.uleb128 0xe
 3346 00b3 3A       		.uleb128 0x3a
 3347 00b4 0B       		.uleb128 0xb
 3348 00b5 3B       		.uleb128 0x3b
 3349 00b6 05       		.uleb128 0x5
 3350 00b7 49       		.uleb128 0x49
 3351 00b8 13       		.uleb128 0x13
 3352 00b9 02       		.uleb128 0x2
 3353 00ba 0A       		.uleb128 0xa
 3354 00bb 00       		.byte	0x0
 3355 00bc 00       		.byte	0x0
 3356 00bd 0E       		.uleb128 0xe
 3357 00be 01       		.uleb128 0x1
 3358 00bf 01       		.byte	0x1
 3359 00c0 49       		.uleb128 0x49
 3360 00c1 13       		.uleb128 0x13
 3361 00c2 01       		.uleb128 0x1
 3362 00c3 13       		.uleb128 0x13
 3363 00c4 00       		.byte	0x0
 3364 00c5 00       		.byte	0x0
 3365 00c6 0F       		.uleb128 0xf
 3366 00c7 21       		.uleb128 0x21
 3367 00c8 00       		.byte	0x0
 3368 00c9 49       		.uleb128 0x49
 3369 00ca 13       		.uleb128 0x13
 3370 00cb 2F       		.uleb128 0x2f
 3371 00cc 0B       		.uleb128 0xb
 3372 00cd 00       		.byte	0x0
 3373 00ce 00       		.byte	0x0
 3374 00cf 10       		.uleb128 0x10
 3375 00d0 2E       		.uleb128 0x2e
 3376 00d1 00       		.byte	0x0
 3377 00d2 3F       		.uleb128 0x3f
 3378 00d3 0C       		.uleb128 0xc
 3379 00d4 03       		.uleb128 0x3
 3380 00d5 0E       		.uleb128 0xe
 3381 00d6 3A       		.uleb128 0x3a
 3382 00d7 0B       		.uleb128 0xb
 3383 00d8 3B       		.uleb128 0x3b
 3384 00d9 05       		.uleb128 0x5
 3385 00da 27       		.uleb128 0x27
 3386 00db 0C       		.uleb128 0xc
 3387 00dc 11       		.uleb128 0x11
 3388 00dd 01       		.uleb128 0x1
 3389 00de 12       		.uleb128 0x12
 3390 00df 01       		.uleb128 0x1
 3391 00e0 40       		.uleb128 0x40
 3392 00e1 06       		.uleb128 0x6
 3393 00e2 00       		.byte	0x0
ARM GAS  C:\Users\bccho\AppData\Local\Temp\ccBO8fce.s 			page 71


 3394 00e3 00       		.byte	0x0
 3395 00e4 11       		.uleb128 0x11
 3396 00e5 2E       		.uleb128 0x2e
 3397 00e6 01       		.byte	0x1
 3398 00e7 3F       		.uleb128 0x3f
 3399 00e8 0C       		.uleb128 0xc
 3400 00e9 03       		.uleb128 0x3
 3401 00ea 0E       		.uleb128 0xe
 3402 00eb 3A       		.uleb128 0x3a
 3403 00ec 0B       		.uleb128 0xb
 3404 00ed 3B       		.uleb128 0x3b
 3405 00ee 05       		.uleb128 0x5
 3406 00ef 49       		.uleb128 0x49
 3407 00f0 13       		.uleb128 0x13
 3408 00f1 11       		.uleb128 0x11
 3409 00f2 01       		.uleb128 0x1
 3410 00f3 12       		.uleb128 0x12
 3411 00f4 01       		.uleb128 0x1
 3412 00f5 40       		.uleb128 0x40
 3413 00f6 06       		.uleb128 0x6
 3414 00f7 01       		.uleb128 0x1
 3415 00f8 13       		.uleb128 0x13
 3416 00f9 00       		.byte	0x0
 3417 00fa 00       		.byte	0x0
 3418 00fb 12       		.uleb128 0x12
 3419 00fc 34       		.uleb128 0x34
 3420 00fd 00       		.byte	0x0
 3421 00fe 03       		.uleb128 0x3
 3422 00ff 0E       		.uleb128 0xe
 3423 0100 3A       		.uleb128 0x3a
 3424 0101 0B       		.uleb128 0xb
 3425 0102 3B       		.uleb128 0x3b
 3426 0103 05       		.uleb128 0x5
 3427 0104 49       		.uleb128 0x49
 3428 0105 13       		.uleb128 0x13
 3429 0106 3F       		.uleb128 0x3f
 3430 0107 0C       		.uleb128 0xc
 3431 0108 3C       		.uleb128 0x3c
 3432 0109 0C       		.uleb128 0xc
 3433 010a 00       		.byte	0x0
 3434 010b 00       		.byte	0x0
 3435 010c 13       		.uleb128 0x13
 3436 010d 35       		.uleb128 0x35
 3437 010e 00       		.byte	0x0
 3438 010f 49       		.uleb128 0x49
 3439 0110 13       		.uleb128 0x13
 3440 0111 00       		.byte	0x0
 3441 0112 00       		.byte	0x0
 3442 0113 14       		.uleb128 0x14
 3443 0114 34       		.uleb128 0x34
 3444 0115 00       		.byte	0x0
 3445 0116 03       		.uleb128 0x3
 3446 0117 0E       		.uleb128 0xe
 3447 0118 3A       		.uleb128 0x3a
 3448 0119 0B       		.uleb128 0xb
 3449 011a 3B       		.uleb128 0x3b
 3450 011b 0B       		.uleb128 0xb
ARM GAS  C:\Users\bccho\AppData\Local\Temp\ccBO8fce.s 			page 72


 3451 011c 49       		.uleb128 0x49
 3452 011d 13       		.uleb128 0x13
 3453 011e 3F       		.uleb128 0x3f
 3454 011f 0C       		.uleb128 0xc
 3455 0120 02       		.uleb128 0x2
 3456 0121 0A       		.uleb128 0xa
 3457 0122 00       		.byte	0x0
 3458 0123 00       		.byte	0x0
 3459 0124 15       		.uleb128 0x15
 3460 0125 26       		.uleb128 0x26
 3461 0126 00       		.byte	0x0
 3462 0127 49       		.uleb128 0x49
 3463 0128 13       		.uleb128 0x13
 3464 0129 00       		.byte	0x0
 3465 012a 00       		.byte	0x0
 3466 012b 00       		.byte	0x0
 3467              		.section	.debug_pubnames,"",%progbits
 3468 0000 CE020000 		.4byte	0x2ce
 3469 0004 0200     		.2byte	0x2
 3470 0006 00000000 		.4byte	.Ldebug_info0
 3471 000a E2050000 		.4byte	0x5e2
 3472 000e 7F000000 		.4byte	0x7f
 3473 0012 666C6F6F 		.ascii	"floor\000"
 3473      7200
 3474 0018 B0000000 		.4byte	0xb0
 3475 001c 6365696C 		.ascii	"ceil\000"
 3475      00
 3476 0021 DA000000 		.4byte	0xda
 3477 0025 70617273 		.ascii	"parseMessage\000"
 3477      654D6573 
 3477      73616765 
 3477      00
 3478 0032 77020000 		.4byte	0x277
 3479 0036 62757474 		.ascii	"button_inter\000"
 3479      6F6E5F69 
 3479      6E746572 
 3479      00
 3480 0043 8D020000 		.4byte	0x28d
 3481 0047 72785F69 		.ascii	"rx_inter\000"
 3481      6E746572 
 3481      00
 3482 0050 A3020000 		.4byte	0x2a3
 3483 0054 77686565 		.ascii	"wheel_inter\000"
 3483      6C5F696E 
 3483      74657200 
 3484 0060 B9020000 		.4byte	0x2b9
 3485 0064 74696D65 		.ascii	"timeout_inter\000"
 3485      6F75745F 
 3485      696E7465 
 3485      7200
 3486 0072 CF020000 		.4byte	0x2cf
 3487 0076 7069645F 		.ascii	"pid_inter\000"
 3487      696E7465 
 3487      7200
 3488 0080 E5020000 		.4byte	0x2e5
 3489 0084 63616D5F 		.ascii	"cam_comp_rise_inter\000"
 3489      636F6D70 
ARM GAS  C:\Users\bccho\AppData\Local\Temp\ccBO8fce.s 			page 73


 3489      5F726973 
 3489      655F696E 
 3489      74657200 
 3490 0098 FB020000 		.4byte	0x2fb
 3491 009c 63616D5F 		.ascii	"cam_comp_fall_inter\000"
 3491      636F6D70 
 3491      5F66616C 
 3491      6C5F696E 
 3491      74657200 
 3492 00b0 11030000 		.4byte	0x311
 3493 00b4 63616D5F 		.ascii	"cam_frame_inter\000"
 3493      6672616D 
 3493      655F696E 
 3493      74657200 
 3494 00c4 27030000 		.4byte	0x327
 3495 00c8 6D61696E 		.ascii	"main\000"
 3495      00
 3496 00cd D4030000 		.4byte	0x3d4
 3497 00d1 6275696C 		.ascii	"buildVersion\000"
 3497      64566572 
 3497      73696F6E 
 3497      00
 3498 00de F6030000 		.4byte	0x3f6
 3499 00e2 73747262 		.ascii	"strbuffer\000"
 3499      75666665 
 3499      7200
 3500 00ec 08040000 		.4byte	0x408
 3501 00f0 62757474 		.ascii	"buttonInterrupted\000"
 3501      6F6E496E 
 3501      74657272 
 3501      75707465 
 3501      6400
 3502 0102 1A040000 		.4byte	0x41a
 3503 0106 7278496E 		.ascii	"rxInterrupted\000"
 3503      74657272 
 3503      75707465 
 3503      6400
 3504 0114 2C040000 		.4byte	0x42c
 3505 0118 77686565 		.ascii	"wheelTickInterrupted\000"
 3505      6C546963 
 3505      6B496E74 
 3505      65727275 
 3505      70746564 
 3506 012d 3E040000 		.4byte	0x43e
 3507 0131 7469636B 		.ascii	"tickTimeoutInterrupted\000"
 3507      54696D65 
 3507      6F757449 
 3507      6E746572 
 3507      72757074 
 3508 0148 50040000 		.4byte	0x450
 3509 014c 70696454 		.ascii	"pidTimerInterrupted\000"
 3509      696D6572 
 3509      496E7465 
 3509      72727570 
 3509      74656400 
 3510 0160 62040000 		.4byte	0x462
 3511 0164 63616D43 		.ascii	"camCompRiseInterrupted\000"
ARM GAS  C:\Users\bccho\AppData\Local\Temp\ccBO8fce.s 			page 74


 3511      6F6D7052 
 3511      69736549 
 3511      6E746572 
 3511      72757074 
 3512 017b 74040000 		.4byte	0x474
 3513 017f 63616D43 		.ascii	"camCompFallInterrupted\000"
 3513      6F6D7046 
 3513      616C6C49 
 3513      6E746572 
 3513      72757074 
 3514 0196 86040000 		.4byte	0x486
 3515 019a 63616D52 		.ascii	"camRowInterrupted\000"
 3515      6F77496E 
 3515      74657272 
 3515      75707465 
 3515      6400
 3516 01ac 98040000 		.4byte	0x498
 3517 01b0 63616D46 		.ascii	"camFrameInterrupted\000"
 3517      72616D65 
 3517      496E7465 
 3517      72727570 
 3517      74656400 
 3518 01c4 AA040000 		.4byte	0x4aa
 3519 01c8 6E756D46 		.ascii	"numFrames\000"
 3519      72616D65 
 3519      7300
 3520 01d2 BC040000 		.4byte	0x4bc
 3521 01d6 6E756D52 		.ascii	"numRows\000"
 3521      6F777300 
 3522 01de CE040000 		.4byte	0x4ce
 3523 01e2 6E756D43 		.ascii	"numCompBegin\000"
 3523      6F6D7042 
 3523      6567696E 
 3523      00
 3524 01ef E0040000 		.4byte	0x4e0
 3525 01f3 6E756D43 		.ascii	"numCompEnd\000"
 3525      6F6D7045 
 3525      6E6400
 3526 01fe F2040000 		.4byte	0x4f2
 3527 0202 726F7743 		.ascii	"rowCycles\000"
 3527      79636C65 
 3527      7300
 3528 020c 04050000 		.4byte	0x504
 3529 0210 6C696E65 		.ascii	"lineBeginCycles\000"
 3529      42656769 
 3529      6E437963 
 3529      6C657300 
 3530 0220 16050000 		.4byte	0x516
 3531 0224 6C696E65 		.ascii	"lineEndCycles\000"
 3531      456E6443 
 3531      79636C65 
 3531      7300
 3532 0232 28050000 		.4byte	0x528
 3533 0236 4D41494E 		.ascii	"MAIN_CLK_FREQ\000"
 3533      5F434C4B 
 3533      5F465245 
 3533      5100
ARM GAS  C:\Users\bccho\AppData\Local\Temp\ccBO8fce.s 			page 75


 3534 0244 3F050000 		.4byte	0x53f
 3535 0248 4D494E5F 		.ascii	"MIN_TIME_SERVO\000"
 3535      54494D45 
 3535      5F534552 
 3535      564F00
 3536 0257 51050000 		.4byte	0x551
 3537 025b 4D41585F 		.ascii	"MAX_TIME_SERVO\000"
 3537      54494D45 
 3537      5F534552 
 3537      564F00
 3538 026a 63050000 		.4byte	0x563
 3539 026e 43414D45 		.ascii	"CAMERA_TIMER_PERIOD\000"
 3539      52415F54 
 3539      494D4552 
 3539      5F504552 
 3539      494F4400 
 3540 0282 75050000 		.4byte	0x575
 3541 0286 45585045 		.ascii	"EXPECTED_ROW_CYCLES\000"
 3541      43544544 
 3541      5F524F57 
 3541      5F435943 
 3541      4C455300 
 3542 029a 87050000 		.4byte	0x587
 3543 029e 74657374 		.ascii	"test6\000"
 3543      3600
 3544 02a4 99050000 		.4byte	0x599
 3545 02a8 74657374 		.ascii	"test7\000"
 3545      3700
 3546 02ae AB050000 		.4byte	0x5ab
 3547 02b2 74657374 		.ascii	"test8\000"
 3547      3800
 3548 02b8 BD050000 		.4byte	0x5bd
 3549 02bc 74657374 		.ascii	"test9\000"
 3549      3900
 3550 02c2 CF050000 		.4byte	0x5cf
 3551 02c6 6C696E65 		.ascii	"lineMid\000"
 3551      4D696400 
 3552 02ce 00000000 		.4byte	0x0
 3553              		.section	.debug_aranges,"",%progbits
 3554 0000 74000000 		.4byte	0x74
 3555 0004 0200     		.2byte	0x2
 3556 0006 00000000 		.4byte	.Ldebug_info0
 3557 000a 04       		.byte	0x4
 3558 000b 00       		.byte	0x0
 3559 000c 0000     		.2byte	0x0
 3560 000e 0000     		.2byte	0x0
 3561 0010 00000000 		.4byte	.LFB29
 3562 0014 2A000000 		.4byte	.LFE29-.LFB29
 3563 0018 00000000 		.4byte	.LFB30
 3564 001c 3A000000 		.4byte	.LFE30-.LFB30
 3565 0020 00000000 		.4byte	.LFB31
 3566 0024 E8090000 		.4byte	.LFE31-.LFB31
 3567 0028 00000000 		.4byte	.LFB32
 3568 002c 18000000 		.4byte	.LFE32-.LFB32
 3569 0030 00000000 		.4byte	.LFB33
 3570 0034 18000000 		.4byte	.LFE33-.LFB33
 3571 0038 00000000 		.4byte	.LFB34
ARM GAS  C:\Users\bccho\AppData\Local\Temp\ccBO8fce.s 			page 76


 3572 003c 18000000 		.4byte	.LFE34-.LFB34
 3573 0040 00000000 		.4byte	.LFB35
 3574 0044 18000000 		.4byte	.LFE35-.LFB35
 3575 0048 00000000 		.4byte	.LFB36
 3576 004c 18000000 		.4byte	.LFE36-.LFB36
 3577 0050 00000000 		.4byte	.LFB37
 3578 0054 18000000 		.4byte	.LFE37-.LFB37
 3579 0058 00000000 		.4byte	.LFB38
 3580 005c 18000000 		.4byte	.LFE38-.LFB38
 3581 0060 00000000 		.4byte	.LFB39
 3582 0064 18000000 		.4byte	.LFE39-.LFB39
 3583 0068 00000000 		.4byte	.LFB40
 3584 006c D0040000 		.4byte	.LFE40-.LFB40
 3585 0070 00000000 		.4byte	0x0
 3586 0074 00000000 		.4byte	0x0
 3587              		.section	.debug_ranges,"",%progbits
 3588              	.Ldebug_ranges0:
 3589 0000 00000000 		.4byte	.Ltext0
 3590 0004 00000000 		.4byte	.Letext0
 3591 0008 00000000 		.4byte	.LFB29
 3592 000c 2A000000 		.4byte	.LFE29
 3593 0010 00000000 		.4byte	.LFB30
 3594 0014 3A000000 		.4byte	.LFE30
 3595 0018 00000000 		.4byte	.LFB31
 3596 001c E8090000 		.4byte	.LFE31
 3597 0020 00000000 		.4byte	.LFB32
 3598 0024 18000000 		.4byte	.LFE32
 3599 0028 00000000 		.4byte	.LFB33
 3600 002c 18000000 		.4byte	.LFE33
 3601 0030 00000000 		.4byte	.LFB34
 3602 0034 18000000 		.4byte	.LFE34
 3603 0038 00000000 		.4byte	.LFB35
 3604 003c 18000000 		.4byte	.LFE35
 3605 0040 00000000 		.4byte	.LFB36
 3606 0044 18000000 		.4byte	.LFE36
 3607 0048 00000000 		.4byte	.LFB37
 3608 004c 18000000 		.4byte	.LFE37
 3609 0050 00000000 		.4byte	.LFB38
 3610 0054 18000000 		.4byte	.LFE38
 3611 0058 00000000 		.4byte	.LFB39
 3612 005c 18000000 		.4byte	.LFE39
 3613 0060 00000000 		.4byte	.LFB40
 3614 0064 D0040000 		.4byte	.LFE40
 3615 0068 00000000 		.4byte	0x0
 3616 006c 00000000 		.4byte	0x0
 3617              		.section	.debug_str,"MS",%progbits,1
 3618              	.LASF46:
 3619 0000 63616D46 		.ascii	"camFrameInterrupted\000"
 3619      72616D65 
 3619      496E7465 
 3619      72727570 
 3619      74656400 
 3620              	.LASF52:
 3621 0014 6C696E65 		.ascii	"lineBeginCycles\000"
 3621      42656769 
 3621      6E437963 
 3621      6C657300 
ARM GAS  C:\Users\bccho\AppData\Local\Temp\ccBO8fce.s 			page 77


 3622              	.LASF11:
 3623 0024 666C6F6F 		.ascii	"floor\000"
 3623      7200
 3624              	.LASF34:
 3625 002a 64696666 		.ascii	"diff\000"
 3625      00
 3626              	.LASF54:
 3627 002f 4D41494E 		.ascii	"MAIN_CLK_FREQ\000"
 3627      5F434C4B 
 3627      5F465245 
 3627      5100
 3628              	.LASF53:
 3629 003d 6C696E65 		.ascii	"lineEndCycles\000"
 3629      456E6443 
 3629      79636C65 
 3629      7300
 3630              	.LASF48:
 3631 004b 6E756D52 		.ascii	"numRows\000"
 3631      6F777300 
 3632              	.LASF33:
 3633 0053 6C696E65 		.ascii	"lineEndCyclesTemp\000"
 3633      456E6443 
 3633      79636C65 
 3633      7354656D 
 3633      7000
 3634              	.LASF24:
 3635 0065 77686565 		.ascii	"wheel_inter\000"
 3635      6C5F696E 
 3635      74657200 
 3636              	.LASF23:
 3637 0071 72785F69 		.ascii	"rx_inter\000"
 3637      6E746572 
 3637      00
 3638              	.LASF19:
 3639 007a 73657276 		.ascii	"servoTime\000"
 3639      6F54696D 
 3639      6500
 3640              	.LASF26:
 3641 0084 7069645F 		.ascii	"pid_inter\000"
 3641      696E7465 
 3641      7200
 3642              	.LASF31:
 3643 008e 6D61696E 		.ascii	"main\000"
 3643      00
 3644              	.LASF50:
 3645 0093 6E756D43 		.ascii	"numCompEnd\000"
 3645      6F6D7045 
 3645      6E6400
 3646              	.LASF2:
 3647 009e 73686F72 		.ascii	"short int\000"
 3647      7420696E 
 3647      7400
 3648              	.LASF16:
 3649 00a8 76616C75 		.ascii	"value\000"
 3649      6500
 3650              	.LASF39:
 3651 00ae 7278496E 		.ascii	"rxInterrupted\000"
ARM GAS  C:\Users\bccho\AppData\Local\Temp\ccBO8fce.s 			page 78


 3651      74657272 
 3651      75707465 
 3651      6400
 3652              	.LASF40:
 3653 00bc 77686565 		.ascii	"wheelTickInterrupted\000"
 3653      6C546963 
 3653      6B496E74 
 3653      65727275 
 3653      70746564 
 3654              	.LASF17:
 3655 00d1 73657276 		.ascii	"servoVal\000"
 3655      6F56616C 
 3655      00
 3656              	.LASF55:
 3657 00da 4D494E5F 		.ascii	"MIN_TIME_SERVO\000"
 3657      54494D45 
 3657      5F534552 
 3657      564F00
 3658              	.LASF30:
 3659 00e9 70617273 		.ascii	"parseMessage\000"
 3659      654D6573 
 3659      73616765 
 3659      00
 3660              	.LASF20:
 3661 00f6 73657276 		.ascii	"servoPeriod\000"
 3661      6F506572 
 3661      696F6400 
 3662              	.LASF59:
 3663 0102 74657374 		.ascii	"test6\000"
 3663      3600
 3664              	.LASF60:
 3665 0108 74657374 		.ascii	"test7\000"
 3665      3700
 3666              	.LASF61:
 3667 010e 74657374 		.ascii	"test8\000"
 3667      3800
 3668              	.LASF62:
 3669 0114 74657374 		.ascii	"test9\000"
 3669      3900
 3670              	.LASF44:
 3671 011a 63616D43 		.ascii	"camCompFallInterrupted\000"
 3671      6F6D7046 
 3671      616C6C49 
 3671      6E746572 
 3671      72757074 
 3672              	.LASF6:
 3673 0131 6C6F6E67 		.ascii	"long long int\000"
 3673      206C6F6E 
 3673      6720696E 
 3673      7400
 3674              	.LASF43:
 3675 013f 63616D43 		.ascii	"camCompRiseInterrupted\000"
 3675      6F6D7052 
 3675      69736549 
 3675      6E746572 
 3675      72757074 
 3676              	.LASF47:
ARM GAS  C:\Users\bccho\AppData\Local\Temp\ccBO8fce.s 			page 79


 3677 0156 6E756D46 		.ascii	"numFrames\000"
 3677      72616D65 
 3677      7300
 3678              	.LASF37:
 3679 0160 73747262 		.ascii	"strbuffer\000"
 3679      75666665 
 3679      7200
 3680              	.LASF18:
 3681 016a 73657456 		.ascii	"setVal\000"
 3681      616C00
 3682              	.LASF28:
 3683 0171 63616D5F 		.ascii	"cam_comp_fall_inter\000"
 3683      636F6D70 
 3683      5F66616C 
 3683      6C5F696E 
 3683      74657200 
 3684              	.LASF58:
 3685 0185 45585045 		.ascii	"EXPECTED_ROW_CYCLES\000"
 3685      43544544 
 3685      5F524F57 
 3685      5F435943 
 3685      4C455300 
 3686              	.LASF1:
 3687 0199 756E7369 		.ascii	"unsigned char\000"
 3687      676E6564 
 3687      20636861 
 3687      7200
 3688              	.LASF25:
 3689 01a7 74696D65 		.ascii	"timeout_inter\000"
 3689      6F75745F 
 3689      696E7465 
 3689      7200
 3690              	.LASF0:
 3691 01b5 7369676E 		.ascii	"signed char\000"
 3691      65642063 
 3691      68617200 
 3692              	.LASF7:
 3693 01c1 6C6F6E67 		.ascii	"long long unsigned int\000"
 3693      206C6F6E 
 3693      6720756E 
 3693      7369676E 
 3693      65642069 
 3694              	.LASF66:
 3695 01d8 433A5C55 		.ascii	"C:\\Users\\Public\\Documents\\Carlab\\BC and TJ\\Pr"
 3695      73657273 
 3695      5C507562 
 3695      6C69635C 
 3695      446F6375 
 3696 0205 6F6A6563 		.ascii	"oject 4\\Navigation01\\Navigation01.cydsn\000"
 3696      7420345C 
 3696      4E617669 
 3696      67617469 
 3696      6F6E3031 
 3697              	.LASF8:
 3698 022d 756E7369 		.ascii	"unsigned int\000"
 3698      676E6564 
 3698      20696E74 
ARM GAS  C:\Users\bccho\AppData\Local\Temp\ccBO8fce.s 			page 80


 3698      00
 3699              	.LASF5:
 3700 023a 6C6F6E67 		.ascii	"long unsigned int\000"
 3700      20756E73 
 3700      69676E65 
 3700      6420696E 
 3700      7400
 3701              	.LASF29:
 3702 024c 63616D5F 		.ascii	"cam_frame_inter\000"
 3702      6672616D 
 3702      655F696E 
 3702      74657200 
 3703              	.LASF22:
 3704 025c 62757474 		.ascii	"button_inter\000"
 3704      6F6E5F69 
 3704      6E746572 
 3704      00
 3705              	.LASF27:
 3706 0269 63616D5F 		.ascii	"cam_comp_rise_inter\000"
 3706      636F6D70 
 3706      5F726973 
 3706      655F696E 
 3706      74657200 
 3707              	.LASF38:
 3708 027d 62757474 		.ascii	"buttonInterrupted\000"
 3708      6F6E496E 
 3708      74657272 
 3708      75707465 
 3708      6400
 3709              	.LASF57:
 3710 028f 43414D45 		.ascii	"CAMERA_TIMER_PERIOD\000"
 3710      52415F54 
 3710      494D4552 
 3710      5F504552 
 3710      494F4400 
 3711              	.LASF3:
 3712 02a3 73686F72 		.ascii	"short unsigned int\000"
 3712      7420756E 
 3712      7369676E 
 3712      65642069 
 3712      6E7400
 3713              	.LASF32:
 3714 02b6 6C696E65 		.ascii	"lineBeginCyclesTemp\000"
 3714      42656769 
 3714      6E437963 
 3714      6C657354 
 3714      656D7000 
 3715              	.LASF9:
 3716 02ca 63686172 		.ascii	"char\000"
 3716      00
 3717              	.LASF4:
 3718 02cf 6C6F6E67 		.ascii	"long int\000"
 3718      20696E74 
 3718      00
 3719              	.LASF63:
 3720 02d8 6C696E65 		.ascii	"lineMid\000"
 3720      4D696400 
ARM GAS  C:\Users\bccho\AppData\Local\Temp\ccBO8fce.s 			page 81


 3721              	.LASF21:
 3722 02e0 6D696450 		.ascii	"midPeriod\000"
 3722      6572696F 
 3722      6400
 3723              	.LASF42:
 3724 02ea 70696454 		.ascii	"pidTimerInterrupted\000"
 3724      696D6572 
 3724      496E7465 
 3724      72727570 
 3724      74656400 
 3725              	.LASF14:
 3726 02fe 6D736750 		.ascii	"msgPrefix\000"
 3726      72656669 
 3726      7800
 3727              	.LASF13:
 3728 0308 6D657373 		.ascii	"message\000"
 3728      61676500 
 3729              	.LASF10:
 3730 0310 646F7562 		.ascii	"double\000"
 3730      6C6500
 3731              	.LASF35:
 3732 0317 49544D5F 		.ascii	"ITM_RxBuffer\000"
 3732      52784275 
 3732      66666572 
 3732      00
 3733              	.LASF45:
 3734 0324 63616D52 		.ascii	"camRowInterrupted\000"
 3734      6F77496E 
 3734      74657272 
 3734      75707465 
 3734      6400
 3735              	.LASF65:
 3736 0336 2E5C6D61 		.ascii	".\\main.c\000"
 3736      696E2E63 
 3736      00
 3737              	.LASF49:
 3738 033f 6E756D43 		.ascii	"numCompBegin\000"
 3738      6F6D7042 
 3738      6567696E 
 3738      00
 3739              	.LASF12:
 3740 034c 6365696C 		.ascii	"ceil\000"
 3740      00
 3741              	.LASF64:
 3742 0351 474E5520 		.ascii	"GNU C 4.4.1\000"
 3742      4320342E 
 3742      342E3100 
 3743              	.LASF41:
 3744 035d 7469636B 		.ascii	"tickTimeoutInterrupted\000"
 3744      54696D65 
 3744      6F757449 
 3744      6E746572 
 3744      72757074 
 3745              	.LASF36:
 3746 0374 6275696C 		.ascii	"buildVersion\000"
 3746      64566572 
 3746      73696F6E 
ARM GAS  C:\Users\bccho\AppData\Local\Temp\ccBO8fce.s 			page 82


 3746      00
 3747              	.LASF15:
 3748 0381 70726566 		.ascii	"prefixLen\000"
 3748      69784C65 
 3748      6E00
 3749              	.LASF56:
 3750 038b 4D41585F 		.ascii	"MAX_TIME_SERVO\000"
 3750      54494D45 
 3750      5F534552 
 3750      564F00
 3751              	.LASF51:
 3752 039a 726F7743 		.ascii	"rowCycles\000"
 3752      79636C65 
 3752      7300
 3753              		.ident	"GCC: (Sourcery G++ Lite 2010q1-188) 4.4.1"
