ARM GAS  C:\Users\bccho\AppData\Local\Temp\ccHbMFsA.s 			page 1


   1              		.syntax unified
   2              		.cpu cortex-m3
   3              		.fpu softvfp
   4              		.eabi_attribute 20, 1
   5              		.eabi_attribute 21, 1
   6              		.eabi_attribute 23, 3
   7              		.eabi_attribute 24, 1
   8              		.eabi_attribute 25, 1
   9              		.eabi_attribute 26, 1
  10              		.eabi_attribute 30, 6
  11              		.eabi_attribute 18, 4
  12              		.thumb
  13              		.file	"speedcontrol.c"
  20 0000 92030000 		.text
  20      02004E00 
  20      00000201 
  20      FB0E0D00 
  20      01010101 
  21              	.Ltext0:
  22              		.cfi_sections	.debug_frame
  23              		.bss
  24              		.align	2
  25              	strbuffer:
  26 0000 00000000 		.space	100
  26      00000000 
  26      00000000 
  26      00000000 
  26      00000000 
  27              		.section	.rodata
  28              		.align	2
  29              		.type	MAX_THROTTLE, %object
  30              		.size	MAX_THROTTLE, 4
  31              	MAX_THROTTLE:
  32 0000 E7030000 		.word	999
  33              		.global	throttle
  34              		.bss
  35              		.align	2
  36              		.type	throttle, %object
  37              		.size	throttle, 4
  38              	throttle:
  39 0064 00000000 		.space	4
  40              		.section	.rodata
  41              		.align	2
  42              		.type	TICK_TIMER_PERIOD, %object
  43              		.size	TICK_TIMER_PERIOD, 4
  44              	TICK_TIMER_PERIOD:
  45 0004 00000100 		.word	65536
  46              		.comm	bufWheelTick,12,4
  47              		.global	bufWheelTickPos
  48              		.bss
  49              		.align	2
ARM GAS  C:\Users\bccho\AppData\Local\Temp\ccHbMFsA.s 			page 2


  50              		.type	bufWheelTickPos, %object
  51              		.size	bufWheelTickPos, 4
  52              	bufWheelTickPos:
  53 0068 00000000 		.space	4
  54              		.global	bufWheelTickCurSize
  55              		.align	2
  56              		.type	bufWheelTickCurSize, %object
  57              		.size	bufWheelTickCurSize, 4
  58              	bufWheelTickCurSize:
  59 006c 00000000 		.space	4
  60              		.global	oldTickCount
  61              		.align	2
  62              		.type	oldTickCount, %object
  63              		.size	oldTickCount, 4
  64              	oldTickCount:
  65 0070 00000000 		.space	4
  66              		.section	.rodata
  67              		.align	2
  68              		.type	CLK_FREQ, %object
  69              		.size	CLK_FREQ, 4
  70              	CLK_FREQ:
  71 0008 A0860100 		.word	100000
  72 000c 00000000 		.align	3
  73              		.type	WHEEL_DIAM, %object
  74              		.size	WHEEL_DIAM, 8
  75              	WHEEL_DIAM:
  76 0010 48E17A14 		.word	343597384
  77 0014 AE470340 		.word	1073956782
  78              		.bss
  79 0074 00000000 		.align	3
  80              	totalDistance:
  81 0078 00000000 		.space	8
  81      00000000 
  82              		.section	.rodata
  83              		.align	2
  84              		.type	PID_TIMER_PERIOD, %object
  85              		.size	PID_TIMER_PERIOD, 4
  86              	PID_TIMER_PERIOD:
  87 0018 10270000 		.word	10000
  88              		.bss
  89              		.align	3
  90              	elapsedTime:
  91 0080 00000000 		.space	8
  91      00000000 
  92              		.align	3
  93              	bufSpeed:
  94 0088 00000000 		.space	80
  94      00000000 
  94      00000000 
  94      00000000 
  94      00000000 
  95              		.align	2
  96              	bufSpeedPos:
  97 00d8 00000000 		.space	4
  98              		.align	2
  99              	bufSpeedLastPos:
 100 00dc 00000000 		.space	4
ARM GAS  C:\Users\bccho\AppData\Local\Temp\ccHbMFsA.s 			page 3


 101              		.align	3
 102              	errorIntegral:
 103 00e0 00000000 		.space	8
 103      00000000 
 104              		.align	2
 105              	throttlePIDon:
 106 00e8 00000000 		.space	4
 107              		.align	2
 108              	distanceTimeoutOn:
 109 00ec 00000000 		.space	4
 110              		.align	2
 111              	dynamicTargetSpeedUpdateOn:
 112 00f0 00000000 		.space	4
 113              		.data
 114              		.align	3
 115              		.type	targetSpeed, %object
 116              		.size	targetSpeed, 8
 117              	targetSpeed:
 118 0000 00000000 		.word	0
 119 0004 00001040 		.word	1074790400
 120              		.align	3
 121              		.type	targetDistance, %object
 122              		.size	targetDistance, 8
 123              	targetDistance:
 124 0008 00000000 		.word	0
 125 000c 00004440 		.word	1078198272
 126              		.align	3
 127              		.type	targetTime, %object
 128              		.size	targetTime, 8
 129              	targetTime:
 130 0010 00000000 		.word	0
 131 0014 00002440 		.word	1076101120
 132              		.align	2
 133              		.type	throttleSS, %object
 134              		.size	throttleSS, 4
 135              	throttleSS:
 136 0018 64000000 		.word	100
 137 001c 00000000 		.align	3
 138              		.type	coeffP, %object
 139              		.size	coeffP, 8
 140              	coeffP:
 141 0020 00000000 		.word	0
 142 0024 00004940 		.word	1078525952
 143              		.align	3
 144              		.type	coeffI, %object
 145              		.size	coeffI, 8
 146              	coeffI:
 147 0028 00000000 		.word	0
 148 002c 00002440 		.word	1076101120
 149              		.align	3
 150              		.type	coeffD, %object
 151              		.size	coeffD, 8
 152              	coeffD:
 153 0030 00000000 		.word	0
 154 0034 00002440 		.word	1076101120
 155              		.bss
 156              		.align	2
ARM GAS  C:\Users\bccho\AppData\Local\Temp\ccHbMFsA.s 			page 4


 157              	verbosePrintoutOn:
 158 00f4 00000000 		.space	4
 159              		.section	.text.SpeedControl_init,"ax",%progbits
 160              		.align	2
 161              		.global	SpeedControl_init
 162              		.thumb
 163              		.thumb_func
 164              		.type	SpeedControl_init, %function
 165              	SpeedControl_init:
 166              	.LFB29:
 167              		.file 1 ".\\speedcontrol.c"
   1:.\speedcontrol.c **** /*-----------------------------------------------------------------*/
   2:.\speedcontrol.c **** /* speedcontrol.c                                                  */
   3:.\speedcontrol.c **** /*                                                                 */
   4:.\speedcontrol.c **** /* BC Cho (bccho@) and TJ Smith (tjs8@)                            */
   5:.\speedcontrol.c **** /*-----------------------------------------------------------------*/
   6:.\speedcontrol.c **** #include <speedcontrol.h>
   7:.\speedcontrol.c **** #include <device.h>
   8:.\speedcontrol.c **** #include <math.h>
   9:.\speedcontrol.c **** #include <stdio.h>
  10:.\speedcontrol.c **** 
  11:.\speedcontrol.c **** // Printing
  12:.\speedcontrol.c **** static char strbuffer[100];
  13:.\speedcontrol.c **** 
  14:.\speedcontrol.c **** // Speed setting
  15:.\speedcontrol.c **** static const int MAX_THROTTLE = 999;
  16:.\speedcontrol.c **** int throttle = 0;
  17:.\speedcontrol.c **** 
  18:.\speedcontrol.c **** // Tick tracking
  19:.\speedcontrol.c **** static const int TICK_TIMER_PERIOD = 65536;
  20:.\speedcontrol.c **** #define BUF_WHEEL_TICK_SIZE 3
  21:.\speedcontrol.c **** int bufWheelTick[BUF_WHEEL_TICK_SIZE];
  22:.\speedcontrol.c **** int bufWheelTickPos = 0;
  23:.\speedcontrol.c **** int bufWheelTickCurSize = 0;
  24:.\speedcontrol.c **** int oldTickCount = 0;
  25:.\speedcontrol.c **** 
  26:.\speedcontrol.c **** // Speed calculating
  27:.\speedcontrol.c **** static const int CLK_FREQ = 100000;
  28:.\speedcontrol.c **** static const double WHEEL_DIAM = 2.41; // in inches
  29:.\speedcontrol.c **** 
  30:.\speedcontrol.c **** // Distance tracking
  31:.\speedcontrol.c **** static double totalDistance = 0;
  32:.\speedcontrol.c **** 
  33:.\speedcontrol.c **** // Time tracking
  34:.\speedcontrol.c **** static const int PID_TIMER_PERIOD = 10000;
  35:.\speedcontrol.c **** static double elapsedTime = 0;
  36:.\speedcontrol.c **** 
  37:.\speedcontrol.c **** // Speed error derivative tracking
  38:.\speedcontrol.c **** #define BUF_SPEED_SIZE 10
  39:.\speedcontrol.c **** static double bufSpeed[BUF_SPEED_SIZE];
  40:.\speedcontrol.c **** static int bufSpeedPos = 0;
  41:.\speedcontrol.c **** static int bufSpeedLastPos = 0;
  42:.\speedcontrol.c **** 
  43:.\speedcontrol.c **** // Speed error integral tracking
  44:.\speedcontrol.c **** static double errorIntegral = 0.0;
  45:.\speedcontrol.c **** 
  46:.\speedcontrol.c **** // PID settings
ARM GAS  C:\Users\bccho\AppData\Local\Temp\ccHbMFsA.s 			page 5


  47:.\speedcontrol.c **** static int throttlePIDon = 0;
  48:.\speedcontrol.c **** static int distanceTimeoutOn = 0;
  49:.\speedcontrol.c **** static int dynamicTargetSpeedUpdateOn = 0;
  50:.\speedcontrol.c **** 
  51:.\speedcontrol.c **** static double targetSpeed = 4.0; // in feet per second
  52:.\speedcontrol.c **** static double targetDistance = 40;
  53:.\speedcontrol.c **** static double targetTime = 10; // do not set directly
  54:.\speedcontrol.c **** static int throttleSS = 100;
  55:.\speedcontrol.c **** static double coeffP = 50.0;
  56:.\speedcontrol.c **** static double coeffI = 10.0;
  57:.\speedcontrol.c **** static double coeffD = 10.0;
  58:.\speedcontrol.c **** 
  59:.\speedcontrol.c **** // Misc
  60:.\speedcontrol.c **** static int verbosePrintoutOn = 0;
  61:.\speedcontrol.c **** 
  62:.\speedcontrol.c **** 
  63:.\speedcontrol.c **** /*-----------------------------------------------------------------*/
  64:.\speedcontrol.c **** 
  65:.\speedcontrol.c **** static void killAll();
  66:.\speedcontrol.c **** static int controlThrottle(double speed);
  67:.\speedcontrol.c **** static void setThrottle(int thr);
  68:.\speedcontrol.c **** static double getSpeed();
  69:.\speedcontrol.c **** static void resetSpeedTracking();
  70:.\speedcontrol.c **** static void resetDerivativeTracking();
  71:.\speedcontrol.c **** static void resetIntegralTracking();
  72:.\speedcontrol.c **** 
  73:.\speedcontrol.c **** /*-----------------------------------------------------------------*/
  74:.\speedcontrol.c **** 
  75:.\speedcontrol.c **** /* Initialize speed control */
  76:.\speedcontrol.c **** void SpeedControl_init() {
 168              		.loc 1 76 0
 169              		.cfi_startproc
 170              		@ args = 0, pretend = 0, frame = 0
 171              		@ frame_needed = 1, uses_anonymous_args = 0
 172 0000 80B5     		push	{r7, lr}
 173              	.LCFI0:
 174              		.cfi_def_cfa_offset 8
 175 0002 00AF     		add	r7, sp, #0
 176              		.cfi_offset 14, -4
 177              		.cfi_offset 7, -8
 178              	.LCFI1:
 179              		.cfi_def_cfa_register 7
  77:.\speedcontrol.c ****     resetSpeedTracking();
 180              		.loc 1 77 0
 181 0004 FFF7FEFF 		bl	resetSpeedTracking
  78:.\speedcontrol.c ****     resetDerivativeTracking();
 182              		.loc 1 78 0
 183 0008 FFF7FEFF 		bl	resetDerivativeTracking
  79:.\speedcontrol.c ****     setThrottle(0);
 184              		.loc 1 79 0
 185 000c 4FF00000 		mov	r0, #0
 186 0010 FFF7FEFF 		bl	setThrottle
  80:.\speedcontrol.c **** }
 187              		.loc 1 80 0
 188 0014 80BD     		pop	{r7, pc}
 189              		.cfi_endproc
 190              	.LFE29:
ARM GAS  C:\Users\bccho\AppData\Local\Temp\ccHbMFsA.s 			page 6


 191              		.size	SpeedControl_init, .-SpeedControl_init
 192 0016 00BF     		.section	.text.SpeedControl_enable,"ax",%progbits
 193              		.align	2
 194              		.global	SpeedControl_enable
 195              		.thumb
 196              		.thumb_func
 197              		.type	SpeedControl_enable, %function
 198              	SpeedControl_enable:
 199              	.LFB30:
  81:.\speedcontrol.c **** 
  82:.\speedcontrol.c **** /* Enable speed control */
  83:.\speedcontrol.c **** void SpeedControl_enable() {
 200              		.loc 1 83 0
 201              		.cfi_startproc
 202              		@ args = 0, pretend = 0, frame = 0
 203              		@ frame_needed = 1, uses_anonymous_args = 0
 204 0000 80B5     		push	{r7, lr}
 205              	.LCFI2:
 206              		.cfi_def_cfa_offset 8
 207 0002 00AF     		add	r7, sp, #0
 208              		.cfi_offset 14, -4
 209              		.cfi_offset 7, -8
 210              	.LCFI3:
 211              		.cfi_def_cfa_register 7
  84:.\speedcontrol.c ****     resetDerivativeTracking();
 212              		.loc 1 84 0
 213 0004 FFF7FEFF 		bl	resetDerivativeTracking
  85:.\speedcontrol.c ****     resetIntegralTracking();
 214              		.loc 1 85 0
 215 0008 FFF7FEFF 		bl	resetIntegralTracking
  86:.\speedcontrol.c ****     throttlePIDon = 1;
 216              		.loc 1 86 0
 217 000c 40F20003 		movw	r3, #:lower16:throttlePIDon
 218 0010 C0F20003 		movt	r3, #:upper16:throttlePIDon
 219 0014 4FF00102 		mov	r2, #1
 220 0018 1A60     		str	r2, [r3, #0]
  87:.\speedcontrol.c ****     elapsedTime = 0;
 221              		.loc 1 87 0
 222 001a 40F20003 		movw	r3, #:lower16:elapsedTime
 223 001e C0F20003 		movt	r3, #:upper16:elapsedTime
 224 0022 4FF00000 		mov	r0, #0
 225 0026 4FF00001 		mov	r1, #0
 226 002a C3E90001 		strd	r0, [r3]
  88:.\speedcontrol.c ****     totalDistance = 0;
 227              		.loc 1 88 0
 228 002e 40F20003 		movw	r3, #:lower16:totalDistance
 229 0032 C0F20003 		movt	r3, #:upper16:totalDistance
 230 0036 4FF00000 		mov	r0, #0
 231 003a 4FF00001 		mov	r1, #0
 232 003e C3E90001 		strd	r0, [r3]
  89:.\speedcontrol.c **** }
 233              		.loc 1 89 0
 234 0042 80BD     		pop	{r7, pc}
 235              		.cfi_endproc
 236              	.LFE30:
 237              		.size	SpeedControl_enable, .-SpeedControl_enable
 238              		.section	.text.SpeedControl_disable,"ax",%progbits
ARM GAS  C:\Users\bccho\AppData\Local\Temp\ccHbMFsA.s 			page 7


 239              		.align	2
 240              		.global	SpeedControl_disable
 241              		.thumb
 242              		.thumb_func
 243              		.type	SpeedControl_disable, %function
 244              	SpeedControl_disable:
 245              	.LFB31:
  90:.\speedcontrol.c **** 
  91:.\speedcontrol.c **** /* Disable speed control */
  92:.\speedcontrol.c **** void SpeedControl_disable() {
 246              		.loc 1 92 0
 247              		.cfi_startproc
 248              		@ args = 0, pretend = 0, frame = 0
 249              		@ frame_needed = 1, uses_anonymous_args = 0
 250 0000 80B5     		push	{r7, lr}
 251              	.LCFI4:
 252              		.cfi_def_cfa_offset 8
 253 0002 00AF     		add	r7, sp, #0
 254              		.cfi_offset 14, -4
 255              		.cfi_offset 7, -8
 256              	.LCFI5:
 257              		.cfi_def_cfa_register 7
  93:.\speedcontrol.c ****     throttlePIDon = 0;
 258              		.loc 1 93 0
 259 0004 40F20003 		movw	r3, #:lower16:throttlePIDon
 260 0008 C0F20003 		movt	r3, #:upper16:throttlePIDon
 261 000c 4FF00002 		mov	r2, #0
 262 0010 1A60     		str	r2, [r3, #0]
  94:.\speedcontrol.c ****     setThrottle(0);
 263              		.loc 1 94 0
 264 0012 4FF00000 		mov	r0, #0
 265 0016 FFF7FEFF 		bl	setThrottle
  95:.\speedcontrol.c **** }
 266              		.loc 1 95 0
 267 001a 80BD     		pop	{r7, pc}
 268              		.cfi_endproc
 269              	.LFE31:
 270              		.size	SpeedControl_disable, .-SpeedControl_disable
 271              		.section	.text.SpeedControl_enableDistanceControl,"ax",%progbits
 272              		.align	2
 273              		.global	SpeedControl_enableDistanceControl
 274              		.thumb
 275              		.thumb_func
 276              		.type	SpeedControl_enableDistanceControl, %function
 277              	SpeedControl_enableDistanceControl:
 278              	.LFB32:
  96:.\speedcontrol.c **** 
  97:.\speedcontrol.c **** /* Enable distance control */
  98:.\speedcontrol.c **** void SpeedControl_enableDistanceControl() {
 279              		.loc 1 98 0
 280              		.cfi_startproc
 281              		@ args = 0, pretend = 0, frame = 0
 282              		@ frame_needed = 1, uses_anonymous_args = 0
 283              		@ link register save eliminated.
 284 0000 80B4     		push	{r7}
 285              	.LCFI6:
 286              		.cfi_def_cfa_offset 4
ARM GAS  C:\Users\bccho\AppData\Local\Temp\ccHbMFsA.s 			page 8


 287 0002 00AF     		add	r7, sp, #0
 288              		.cfi_offset 7, -4
 289              	.LCFI7:
 290              		.cfi_def_cfa_register 7
  99:.\speedcontrol.c ****     distanceTimeoutOn = 1;
 291              		.loc 1 99 0
 292 0004 40F20003 		movw	r3, #:lower16:distanceTimeoutOn
 293 0008 C0F20003 		movt	r3, #:upper16:distanceTimeoutOn
 294 000c 4FF00102 		mov	r2, #1
 295 0010 1A60     		str	r2, [r3, #0]
 100:.\speedcontrol.c **** }
 296              		.loc 1 100 0
 297 0012 BD46     		mov	sp, r7
 298 0014 80BC     		pop	{r7}
 299 0016 7047     		bx	lr
 300              		.cfi_endproc
 301              	.LFE32:
 302              		.size	SpeedControl_enableDistanceControl, .-SpeedControl_enableDistanceControl
 303              		.section	.text.SpeedControl_disableDistanceControl,"ax",%progbits
 304              		.align	2
 305              		.global	SpeedControl_disableDistanceControl
 306              		.thumb
 307              		.thumb_func
 308              		.type	SpeedControl_disableDistanceControl, %function
 309              	SpeedControl_disableDistanceControl:
 310              	.LFB33:
 101:.\speedcontrol.c **** 
 102:.\speedcontrol.c **** /* Disable distance control */
 103:.\speedcontrol.c **** void SpeedControl_disableDistanceControl() {
 311              		.loc 1 103 0
 312              		.cfi_startproc
 313              		@ args = 0, pretend = 0, frame = 0
 314              		@ frame_needed = 1, uses_anonymous_args = 0
 315              		@ link register save eliminated.
 316 0000 80B4     		push	{r7}
 317              	.LCFI8:
 318              		.cfi_def_cfa_offset 4
 319 0002 00AF     		add	r7, sp, #0
 320              		.cfi_offset 7, -4
 321              	.LCFI9:
 322              		.cfi_def_cfa_register 7
 104:.\speedcontrol.c ****     distanceTimeoutOn = 0;
 323              		.loc 1 104 0
 324 0004 40F20003 		movw	r3, #:lower16:distanceTimeoutOn
 325 0008 C0F20003 		movt	r3, #:upper16:distanceTimeoutOn
 326 000c 4FF00002 		mov	r2, #0
 327 0010 1A60     		str	r2, [r3, #0]
 105:.\speedcontrol.c ****     dynamicTargetSpeedUpdateOn = 0;
 328              		.loc 1 105 0
 329 0012 40F20003 		movw	r3, #:lower16:dynamicTargetSpeedUpdateOn
 330 0016 C0F20003 		movt	r3, #:upper16:dynamicTargetSpeedUpdateOn
 331 001a 4FF00002 		mov	r2, #0
 332 001e 1A60     		str	r2, [r3, #0]
 106:.\speedcontrol.c **** }
 333              		.loc 1 106 0
 334 0020 BD46     		mov	sp, r7
 335 0022 80BC     		pop	{r7}
ARM GAS  C:\Users\bccho\AppData\Local\Temp\ccHbMFsA.s 			page 9


 336 0024 7047     		bx	lr
 337              		.cfi_endproc
 338              	.LFE33:
 339              		.size	SpeedControl_disableDistanceControl, .-SpeedControl_disableDistanceControl
 340 0026 00BF     		.section	.rodata
 341              		.align	2
 342              	.LC0:
 343 001c 43616E6E 		.ascii	"Cannot enable dynamic target speed update while con"
 343      6F742065 
 343      6E61626C 
 343      65206479 
 343      6E616D69 
 344 004f 74726F6C 		.ascii	"trolling speed\012\000"
 344      6C696E67 
 344      20737065 
 344      65640A00 
 345              		.section	.text.SpeedControl_enableDynamicTargetUpdate,"ax",%progbits
 346              		.align	2
 347              		.global	SpeedControl_enableDynamicTargetUpdate
 348              		.thumb
 349              		.thumb_func
 350              		.type	SpeedControl_enableDynamicTargetUpdate, %function
 351              	SpeedControl_enableDynamicTargetUpdate:
 352              	.LFB34:
 107:.\speedcontrol.c **** 
 108:.\speedcontrol.c **** /* Enable dynamic target speed control */
 109:.\speedcontrol.c **** void SpeedControl_enableDynamicTargetUpdate() {
 353              		.loc 1 109 0
 354              		.cfi_startproc
 355              		@ args = 0, pretend = 0, frame = 0
 356              		@ frame_needed = 1, uses_anonymous_args = 0
 357 0000 80B5     		push	{r7, lr}
 358              	.LCFI10:
 359              		.cfi_def_cfa_offset 8
 360 0002 00AF     		add	r7, sp, #0
 361              		.cfi_offset 14, -4
 362              		.cfi_offset 7, -8
 363              	.LCFI11:
 364              		.cfi_def_cfa_register 7
 110:.\speedcontrol.c ****     if (throttlePIDon) {
 365              		.loc 1 110 0
 366 0004 40F20003 		movw	r3, #:lower16:throttlePIDon
 367 0008 C0F20003 		movt	r3, #:upper16:throttlePIDon
 368 000c 1B68     		ldr	r3, [r3, #0]
 369 000e 002B     		cmp	r3, #0
 370 0010 06D0     		beq	.L12
 111:.\speedcontrol.c ****         UART_PutString("Cannot enable dynamic target speed update while controlling speed\n");
 371              		.loc 1 111 0
 372 0012 40F20000 		movw	r0, #:lower16:.LC0
 373 0016 C0F20000 		movt	r0, #:upper16:.LC0
 374 001a FFF7FEFF 		bl	UART_PutString
 375 001e 0DE0     		b	.L14
 376              	.L12:
 112:.\speedcontrol.c ****     } 
 113:.\speedcontrol.c ****     else {
 114:.\speedcontrol.c ****         dynamicTargetSpeedUpdateOn = 1;
 377              		.loc 1 114 0
ARM GAS  C:\Users\bccho\AppData\Local\Temp\ccHbMFsA.s 			page 10


 378 0020 40F20003 		movw	r3, #:lower16:dynamicTargetSpeedUpdateOn
 379 0024 C0F20003 		movt	r3, #:upper16:dynamicTargetSpeedUpdateOn
 380 0028 4FF00102 		mov	r2, #1
 381 002c 1A60     		str	r2, [r3, #0]
 115:.\speedcontrol.c ****         distanceTimeoutOn = 1;
 382              		.loc 1 115 0
 383 002e 40F20003 		movw	r3, #:lower16:distanceTimeoutOn
 384 0032 C0F20003 		movt	r3, #:upper16:distanceTimeoutOn
 385 0036 4FF00102 		mov	r2, #1
 386 003a 1A60     		str	r2, [r3, #0]
 387              	.L14:
 116:.\speedcontrol.c ****     }
 117:.\speedcontrol.c **** }
 388              		.loc 1 117 0
 389 003c 80BD     		pop	{r7, pc}
 390              		.cfi_endproc
 391              	.LFE34:
 392              		.size	SpeedControl_enableDynamicTargetUpdate, .-SpeedControl_enableDynamicTargetUpdate
 393 003e 00BF     		.section	.text.SpeedControl_disableDynamicTargetUpdate,"ax",%progbits
 394              		.align	2
 395              		.global	SpeedControl_disableDynamicTargetUpdate
 396              		.thumb
 397              		.thumb_func
 398              		.type	SpeedControl_disableDynamicTargetUpdate, %function
 399              	SpeedControl_disableDynamicTargetUpdate:
 400              	.LFB35:
 118:.\speedcontrol.c **** 
 119:.\speedcontrol.c **** /* Disable dynamic target speed control */
 120:.\speedcontrol.c **** void SpeedControl_disableDynamicTargetUpdate() {
 401              		.loc 1 120 0
 402              		.cfi_startproc
 403              		@ args = 0, pretend = 0, frame = 0
 404              		@ frame_needed = 1, uses_anonymous_args = 0
 405              		@ link register save eliminated.
 406 0000 80B4     		push	{r7}
 407              	.LCFI12:
 408              		.cfi_def_cfa_offset 4
 409 0002 00AF     		add	r7, sp, #0
 410              		.cfi_offset 7, -4
 411              	.LCFI13:
 412              		.cfi_def_cfa_register 7
 121:.\speedcontrol.c ****     dynamicTargetSpeedUpdateOn = 0;
 413              		.loc 1 121 0
 414 0004 40F20003 		movw	r3, #:lower16:dynamicTargetSpeedUpdateOn
 415 0008 C0F20003 		movt	r3, #:upper16:dynamicTargetSpeedUpdateOn
 416 000c 4FF00002 		mov	r2, #0
 417 0010 1A60     		str	r2, [r3, #0]
 122:.\speedcontrol.c **** }
 418              		.loc 1 122 0
 419 0012 BD46     		mov	sp, r7
 420 0014 80BC     		pop	{r7}
 421 0016 7047     		bx	lr
 422              		.cfi_endproc
 423              	.LFE35:
 424              		.size	SpeedControl_disableDynamicTargetUpdate, .-SpeedControl_disableDynamicTargetUpdate
 425              		.section	.text.SpeedControl_isEnabled,"ax",%progbits
 426              		.align	2
ARM GAS  C:\Users\bccho\AppData\Local\Temp\ccHbMFsA.s 			page 11


 427              		.global	SpeedControl_isEnabled
 428              		.thumb
 429              		.thumb_func
 430              		.type	SpeedControl_isEnabled, %function
 431              	SpeedControl_isEnabled:
 432              	.LFB36:
 123:.\speedcontrol.c **** 
 124:.\speedcontrol.c **** /* Get status of speed control */
 125:.\speedcontrol.c **** int SpeedControl_isEnabled() {
 433              		.loc 1 125 0
 434              		.cfi_startproc
 435              		@ args = 0, pretend = 0, frame = 0
 436              		@ frame_needed = 1, uses_anonymous_args = 0
 437              		@ link register save eliminated.
 438 0000 80B4     		push	{r7}
 439              	.LCFI14:
 440              		.cfi_def_cfa_offset 4
 441 0002 00AF     		add	r7, sp, #0
 442              		.cfi_offset 7, -4
 443              	.LCFI15:
 444              		.cfi_def_cfa_register 7
 126:.\speedcontrol.c ****     return throttlePIDon;
 445              		.loc 1 126 0
 446 0004 40F20003 		movw	r3, #:lower16:throttlePIDon
 447 0008 C0F20003 		movt	r3, #:upper16:throttlePIDon
 448 000c 1B68     		ldr	r3, [r3, #0]
 127:.\speedcontrol.c **** }
 449              		.loc 1 127 0
 450 000e 1846     		mov	r0, r3
 451 0010 BD46     		mov	sp, r7
 452 0012 80BC     		pop	{r7}
 453 0014 7047     		bx	lr
 454              		.cfi_endproc
 455              	.LFE36:
 456              		.size	SpeedControl_isEnabled, .-SpeedControl_isEnabled
 457 0016 00BF     		.section	.text.SpeedControl_isDistanceControlEnabled,"ax",%progbits
 458              		.align	2
 459              		.global	SpeedControl_isDistanceControlEnabled
 460              		.thumb
 461              		.thumb_func
 462              		.type	SpeedControl_isDistanceControlEnabled, %function
 463              	SpeedControl_isDistanceControlEnabled:
 464              	.LFB37:
 128:.\speedcontrol.c **** 
 129:.\speedcontrol.c **** /* Get status of distance control */
 130:.\speedcontrol.c **** int SpeedControl_isDistanceControlEnabled() {
 465              		.loc 1 130 0
 466              		.cfi_startproc
 467              		@ args = 0, pretend = 0, frame = 0
 468              		@ frame_needed = 1, uses_anonymous_args = 0
 469              		@ link register save eliminated.
 470 0000 80B4     		push	{r7}
 471              	.LCFI16:
 472              		.cfi_def_cfa_offset 4
 473 0002 00AF     		add	r7, sp, #0
 474              		.cfi_offset 7, -4
 475              	.LCFI17:
ARM GAS  C:\Users\bccho\AppData\Local\Temp\ccHbMFsA.s 			page 12


 476              		.cfi_def_cfa_register 7
 131:.\speedcontrol.c ****     return distanceTimeoutOn;
 477              		.loc 1 131 0
 478 0004 40F20003 		movw	r3, #:lower16:distanceTimeoutOn
 479 0008 C0F20003 		movt	r3, #:upper16:distanceTimeoutOn
 480 000c 1B68     		ldr	r3, [r3, #0]
 132:.\speedcontrol.c **** }
 481              		.loc 1 132 0
 482 000e 1846     		mov	r0, r3
 483 0010 BD46     		mov	sp, r7
 484 0012 80BC     		pop	{r7}
 485 0014 7047     		bx	lr
 486              		.cfi_endproc
 487              	.LFE37:
 488              		.size	SpeedControl_isDistanceControlEnabled, .-SpeedControl_isDistanceControlEnabled
 489 0016 00BF     		.section	.text.SpeedControl_isDynamicTargetUpdateEnabled,"ax",%progbits
 490              		.align	2
 491              		.global	SpeedControl_isDynamicTargetUpdateEnabled
 492              		.thumb
 493              		.thumb_func
 494              		.type	SpeedControl_isDynamicTargetUpdateEnabled, %function
 495              	SpeedControl_isDynamicTargetUpdateEnabled:
 496              	.LFB38:
 133:.\speedcontrol.c **** 
 134:.\speedcontrol.c **** /* Get status of dynamic target speed control */
 135:.\speedcontrol.c **** int SpeedControl_isDynamicTargetUpdateEnabled() {
 497              		.loc 1 135 0
 498              		.cfi_startproc
 499              		@ args = 0, pretend = 0, frame = 0
 500              		@ frame_needed = 1, uses_anonymous_args = 0
 501              		@ link register save eliminated.
 502 0000 80B4     		push	{r7}
 503              	.LCFI18:
 504              		.cfi_def_cfa_offset 4
 505 0002 00AF     		add	r7, sp, #0
 506              		.cfi_offset 7, -4
 507              	.LCFI19:
 508              		.cfi_def_cfa_register 7
 136:.\speedcontrol.c ****     return dynamicTargetSpeedUpdateOn;
 509              		.loc 1 136 0
 510 0004 40F20003 		movw	r3, #:lower16:dynamicTargetSpeedUpdateOn
 511 0008 C0F20003 		movt	r3, #:upper16:dynamicTargetSpeedUpdateOn
 512 000c 1B68     		ldr	r3, [r3, #0]
 137:.\speedcontrol.c **** }
 513              		.loc 1 137 0
 514 000e 1846     		mov	r0, r3
 515 0010 BD46     		mov	sp, r7
 516 0012 80BC     		pop	{r7}
 517 0014 7047     		bx	lr
 518              		.cfi_endproc
 519              	.LFE38:
 520              		.size	SpeedControl_isDynamicTargetUpdateEnabled, .-SpeedControl_isDynamicTargetUpdateEnabled
 521 0016 00BF     		.section	.text.SpeedControl_enableVerbosePrintout,"ax",%progbits
 522              		.align	2
 523              		.global	SpeedControl_enableVerbosePrintout
 524              		.thumb
 525              		.thumb_func
ARM GAS  C:\Users\bccho\AppData\Local\Temp\ccHbMFsA.s 			page 13


 526              		.type	SpeedControl_enableVerbosePrintout, %function
 527              	SpeedControl_enableVerbosePrintout:
 528              	.LFB39:
 138:.\speedcontrol.c **** 
 139:.\speedcontrol.c **** /* Enable verbose printout */
 140:.\speedcontrol.c **** void SpeedControl_enableVerbosePrintout() {
 529              		.loc 1 140 0
 530              		.cfi_startproc
 531              		@ args = 0, pretend = 0, frame = 0
 532              		@ frame_needed = 1, uses_anonymous_args = 0
 533              		@ link register save eliminated.
 534 0000 80B4     		push	{r7}
 535              	.LCFI20:
 536              		.cfi_def_cfa_offset 4
 537 0002 00AF     		add	r7, sp, #0
 538              		.cfi_offset 7, -4
 539              	.LCFI21:
 540              		.cfi_def_cfa_register 7
 141:.\speedcontrol.c ****     verbosePrintoutOn = 1;
 541              		.loc 1 141 0
 542 0004 40F20003 		movw	r3, #:lower16:verbosePrintoutOn
 543 0008 C0F20003 		movt	r3, #:upper16:verbosePrintoutOn
 544 000c 4FF00102 		mov	r2, #1
 545 0010 1A60     		str	r2, [r3, #0]
 142:.\speedcontrol.c **** }
 546              		.loc 1 142 0
 547 0012 BD46     		mov	sp, r7
 548 0014 80BC     		pop	{r7}
 549 0016 7047     		bx	lr
 550              		.cfi_endproc
 551              	.LFE39:
 552              		.size	SpeedControl_enableVerbosePrintout, .-SpeedControl_enableVerbosePrintout
 553              		.section	.text.SpeedControl_disableVerbosePrintout,"ax",%progbits
 554              		.align	2
 555              		.global	SpeedControl_disableVerbosePrintout
 556              		.thumb
 557              		.thumb_func
 558              		.type	SpeedControl_disableVerbosePrintout, %function
 559              	SpeedControl_disableVerbosePrintout:
 560              	.LFB40:
 143:.\speedcontrol.c **** 
 144:.\speedcontrol.c **** /* Disable verbose printout */
 145:.\speedcontrol.c **** void SpeedControl_disableVerbosePrintout() {
 561              		.loc 1 145 0
 562              		.cfi_startproc
 563              		@ args = 0, pretend = 0, frame = 0
 564              		@ frame_needed = 1, uses_anonymous_args = 0
 565              		@ link register save eliminated.
 566 0000 80B4     		push	{r7}
 567              	.LCFI22:
 568              		.cfi_def_cfa_offset 4
 569 0002 00AF     		add	r7, sp, #0
 570              		.cfi_offset 7, -4
 571              	.LCFI23:
 572              		.cfi_def_cfa_register 7
 146:.\speedcontrol.c ****     verbosePrintoutOn = 0;
 573              		.loc 1 146 0
ARM GAS  C:\Users\bccho\AppData\Local\Temp\ccHbMFsA.s 			page 14


 574 0004 40F20003 		movw	r3, #:lower16:verbosePrintoutOn
 575 0008 C0F20003 		movt	r3, #:upper16:verbosePrintoutOn
 576 000c 4FF00002 		mov	r2, #0
 577 0010 1A60     		str	r2, [r3, #0]
 147:.\speedcontrol.c **** }
 578              		.loc 1 147 0
 579 0012 BD46     		mov	sp, r7
 580 0014 80BC     		pop	{r7}
 581 0016 7047     		bx	lr
 582              		.cfi_endproc
 583              	.LFE40:
 584              		.size	SpeedControl_disableVerbosePrintout, .-SpeedControl_disableVerbosePrintout
 585              		.section	.text.SpeedControl_isVerbosePrintoutEnabled,"ax",%progbits
 586              		.align	2
 587              		.global	SpeedControl_isVerbosePrintoutEnabled
 588              		.thumb
 589              		.thumb_func
 590              		.type	SpeedControl_isVerbosePrintoutEnabled, %function
 591              	SpeedControl_isVerbosePrintoutEnabled:
 592              	.LFB41:
 148:.\speedcontrol.c **** 
 149:.\speedcontrol.c **** /* Get status of verbose printout */
 150:.\speedcontrol.c **** int SpeedControl_isVerbosePrintoutEnabled() {
 593              		.loc 1 150 0
 594              		.cfi_startproc
 595              		@ args = 0, pretend = 0, frame = 0
 596              		@ frame_needed = 1, uses_anonymous_args = 0
 597              		@ link register save eliminated.
 598 0000 80B4     		push	{r7}
 599              	.LCFI24:
 600              		.cfi_def_cfa_offset 4
 601 0002 00AF     		add	r7, sp, #0
 602              		.cfi_offset 7, -4
 603              	.LCFI25:
 604              		.cfi_def_cfa_register 7
 151:.\speedcontrol.c ****     return verbosePrintoutOn;
 605              		.loc 1 151 0
 606 0004 40F20003 		movw	r3, #:lower16:verbosePrintoutOn
 607 0008 C0F20003 		movt	r3, #:upper16:verbosePrintoutOn
 608 000c 1B68     		ldr	r3, [r3, #0]
 152:.\speedcontrol.c **** }
 609              		.loc 1 152 0
 610 000e 1846     		mov	r0, r3
 611 0010 BD46     		mov	sp, r7
 612 0012 80BC     		pop	{r7}
 613 0014 7047     		bx	lr
 614              		.cfi_endproc
 615              	.LFE41:
 616              		.size	SpeedControl_isVerbosePrintoutEnabled, .-SpeedControl_isVerbosePrintoutEnabled
 617 0016 00BF     		.section	.rodata
 618 005f 00       		.align	2
 619              	.LC1:
 620 0060 43616E6E 		.ascii	"Cannot change target speed while dynamic target spe"
 620      6F742063 
 620      68616E67 
 620      65207461 
 620      72676574 
ARM GAS  C:\Users\bccho\AppData\Local\Temp\ccHbMFsA.s 			page 15


 621 0093 65642075 		.ascii	"ed updating is on\012\000"
 621      70646174 
 621      696E6720 
 621      6973206F 
 621      6E0A00
 622              		.global	__aeabi_ddiv
 623              		.section	.text.SpeedControl_setTargetSpeed,"ax",%progbits
 624              		.align	2
 625              		.global	SpeedControl_setTargetSpeed
 626              		.thumb
 627              		.thumb_func
 628              		.type	SpeedControl_setTargetSpeed, %function
 629              	SpeedControl_setTargetSpeed:
 630              	.LFB42:
 153:.\speedcontrol.c **** 
 154:.\speedcontrol.c **** /* Set target speed */
 155:.\speedcontrol.c **** void SpeedControl_setTargetSpeed(double ts) {
 631              		.loc 1 155 0
 632              		.cfi_startproc
 633              		@ args = 0, pretend = 0, frame = 8
 634              		@ frame_needed = 1, uses_anonymous_args = 0
 635 0000 80B5     		push	{r7, lr}
 636              	.LCFI26:
 637              		.cfi_def_cfa_offset 8
 638 0002 82B0     		sub	sp, sp, #8
 639              	.LCFI27:
 640              		.cfi_def_cfa_offset 16
 641 0004 00AF     		add	r7, sp, #0
 642              		.cfi_offset 14, -4
 643              		.cfi_offset 7, -8
 644              	.LCFI28:
 645              		.cfi_def_cfa_register 7
 646 0006 C7E90001 		strd	r0, [r7]
 156:.\speedcontrol.c ****     if (dynamicTargetSpeedUpdateOn) {
 647              		.loc 1 156 0
 648 000a 40F20003 		movw	r3, #:lower16:dynamicTargetSpeedUpdateOn
 649 000e C0F20003 		movt	r3, #:upper16:dynamicTargetSpeedUpdateOn
 650 0012 1B68     		ldr	r3, [r3, #0]
 651 0014 002B     		cmp	r3, #0
 652 0016 06D0     		beq	.L30
 157:.\speedcontrol.c ****         UART_PutString("Cannot change target speed while dynamic target speed updating is on\n");
 653              		.loc 1 157 0
 654 0018 40F20000 		movw	r0, #:lower16:.LC1
 655 001c C0F20000 		movt	r0, #:upper16:.LC1
 656 0020 FFF7FEFF 		bl	UART_PutString
 657 0024 1FE0     		b	.L32
 658              	.L30:
 158:.\speedcontrol.c ****     }
 159:.\speedcontrol.c ****     else {
 160:.\speedcontrol.c ****         targetSpeed = ts;
 659              		.loc 1 160 0
 660 0026 40F20003 		movw	r3, #:lower16:targetSpeed
 661 002a C0F20003 		movt	r3, #:upper16:targetSpeed
 662 002e D7E90001 		ldrd	r0, [r7]
 663 0032 C3E90001 		strd	r0, [r3]
 161:.\speedcontrol.c ****         targetTime = targetDistance / targetSpeed;
 664              		.loc 1 161 0
ARM GAS  C:\Users\bccho\AppData\Local\Temp\ccHbMFsA.s 			page 16


 665 0036 40F20003 		movw	r3, #:lower16:targetDistance
 666 003a C0F20003 		movt	r3, #:upper16:targetDistance
 667 003e D3E90001 		ldrd	r0, [r3]
 668 0042 40F20003 		movw	r3, #:lower16:targetSpeed
 669 0046 C0F20003 		movt	r3, #:upper16:targetSpeed
 670 004a D3E90023 		ldrd	r2, [r3]
 671 004e FFF7FEFF 		bl	__aeabi_ddiv
 672 0052 0246     		mov	r2, r0
 673 0054 0B46     		mov	r3, r1
 674 0056 1046     		mov	r0, r2
 675 0058 1946     		mov	r1, r3
 676 005a 40F20003 		movw	r3, #:lower16:targetTime
 677 005e C0F20003 		movt	r3, #:upper16:targetTime
 678 0062 C3E90001 		strd	r0, [r3]
 679              	.L32:
 162:.\speedcontrol.c ****     }
 163:.\speedcontrol.c **** }
 680              		.loc 1 163 0
 681 0066 07F10807 		add	r7, r7, #8
 682 006a BD46     		mov	sp, r7
 683 006c 80BD     		pop	{r7, pc}
 684              		.cfi_endproc
 685              	.LFE42:
 686              		.size	SpeedControl_setTargetSpeed, .-SpeedControl_setTargetSpeed
 687 006e 00BF     		.section	.rodata
 688 00a6 0000     		.align	2
 689              	.LC2:
 690 00a8 43616E6E 		.ascii	"Cannot change target distance while dynamic target "
 690      6F742063 
 690      68616E67 
 690      65207461 
 690      72676574 
 691 00db 73706565 		.ascii	"speed updating is on\012\000"
 691      64207570 
 691      64617469 
 691      6E672069 
 691      73206F6E 
 692              		.section	.text.SpeedControl_setTargetDistance,"ax",%progbits
 693              		.align	2
 694              		.global	SpeedControl_setTargetDistance
 695              		.thumb
 696              		.thumb_func
 697              		.type	SpeedControl_setTargetDistance, %function
 698              	SpeedControl_setTargetDistance:
 699              	.LFB43:
 164:.\speedcontrol.c **** 
 165:.\speedcontrol.c **** /* Set target distance */
 166:.\speedcontrol.c **** void SpeedControl_setTargetDistance(double dist) {
 700              		.loc 1 166 0
 701              		.cfi_startproc
 702              		@ args = 0, pretend = 0, frame = 8
 703              		@ frame_needed = 1, uses_anonymous_args = 0
 704 0000 80B5     		push	{r7, lr}
 705              	.LCFI29:
 706              		.cfi_def_cfa_offset 8
 707 0002 82B0     		sub	sp, sp, #8
 708              	.LCFI30:
ARM GAS  C:\Users\bccho\AppData\Local\Temp\ccHbMFsA.s 			page 17


 709              		.cfi_def_cfa_offset 16
 710 0004 00AF     		add	r7, sp, #0
 711              		.cfi_offset 14, -4
 712              		.cfi_offset 7, -8
 713              	.LCFI31:
 714              		.cfi_def_cfa_register 7
 715 0006 C7E90001 		strd	r0, [r7]
 167:.\speedcontrol.c ****     if (dynamicTargetSpeedUpdateOn) {
 716              		.loc 1 167 0
 717 000a 40F20003 		movw	r3, #:lower16:dynamicTargetSpeedUpdateOn
 718 000e C0F20003 		movt	r3, #:upper16:dynamicTargetSpeedUpdateOn
 719 0012 1B68     		ldr	r3, [r3, #0]
 720 0014 002B     		cmp	r3, #0
 721 0016 06D0     		beq	.L34
 168:.\speedcontrol.c ****         UART_PutString("Cannot change target distance while dynamic target speed updating is on\n")
 722              		.loc 1 168 0
 723 0018 40F20000 		movw	r0, #:lower16:.LC2
 724 001c C0F20000 		movt	r0, #:upper16:.LC2
 725 0020 FFF7FEFF 		bl	UART_PutString
 726 0024 1FE0     		b	.L36
 727              	.L34:
 169:.\speedcontrol.c ****     }
 170:.\speedcontrol.c ****     else {
 171:.\speedcontrol.c ****         targetDistance = dist;
 728              		.loc 1 171 0
 729 0026 40F20003 		movw	r3, #:lower16:targetDistance
 730 002a C0F20003 		movt	r3, #:upper16:targetDistance
 731 002e D7E90001 		ldrd	r0, [r7]
 732 0032 C3E90001 		strd	r0, [r3]
 172:.\speedcontrol.c ****         targetTime = targetDistance / targetSpeed;
 733              		.loc 1 172 0
 734 0036 40F20003 		movw	r3, #:lower16:targetDistance
 735 003a C0F20003 		movt	r3, #:upper16:targetDistance
 736 003e D3E90001 		ldrd	r0, [r3]
 737 0042 40F20003 		movw	r3, #:lower16:targetSpeed
 738 0046 C0F20003 		movt	r3, #:upper16:targetSpeed
 739 004a D3E90023 		ldrd	r2, [r3]
 740 004e FFF7FEFF 		bl	__aeabi_ddiv
 741 0052 0246     		mov	r2, r0
 742 0054 0B46     		mov	r3, r1
 743 0056 1046     		mov	r0, r2
 744 0058 1946     		mov	r1, r3
 745 005a 40F20003 		movw	r3, #:lower16:targetTime
 746 005e C0F20003 		movt	r3, #:upper16:targetTime
 747 0062 C3E90001 		strd	r0, [r3]
 748              	.L36:
 173:.\speedcontrol.c ****     }
 174:.\speedcontrol.c **** }
 749              		.loc 1 174 0
 750 0066 07F10807 		add	r7, r7, #8
 751 006a BD46     		mov	sp, r7
 752 006c 80BD     		pop	{r7, pc}
 753              		.cfi_endproc
 754              	.LFE43:
 755              		.size	SpeedControl_setTargetDistance, .-SpeedControl_setTargetDistance
 756 006e 00BF     		.section	.text.SpeedControl_setSteadyStateThrottle,"ax",%progbits
 757              		.align	2
ARM GAS  C:\Users\bccho\AppData\Local\Temp\ccHbMFsA.s 			page 18


 758              		.global	SpeedControl_setSteadyStateThrottle
 759              		.thumb
 760              		.thumb_func
 761              		.type	SpeedControl_setSteadyStateThrottle, %function
 762              	SpeedControl_setSteadyStateThrottle:
 763              	.LFB44:
 175:.\speedcontrol.c **** 
 176:.\speedcontrol.c **** /* Set steady state throttle */
 177:.\speedcontrol.c **** void SpeedControl_setSteadyStateThrottle(int thr) {
 764              		.loc 1 177 0
 765              		.cfi_startproc
 766              		@ args = 0, pretend = 0, frame = 8
 767              		@ frame_needed = 1, uses_anonymous_args = 0
 768              		@ link register save eliminated.
 769 0000 80B4     		push	{r7}
 770              	.LCFI32:
 771              		.cfi_def_cfa_offset 4
 772 0002 83B0     		sub	sp, sp, #12
 773              	.LCFI33:
 774              		.cfi_def_cfa_offset 16
 775 0004 00AF     		add	r7, sp, #0
 776              		.cfi_offset 7, -4
 777              	.LCFI34:
 778              		.cfi_def_cfa_register 7
 779 0006 7860     		str	r0, [r7, #4]
 178:.\speedcontrol.c ****     throttleSS = thr;
 780              		.loc 1 178 0
 781 0008 40F20003 		movw	r3, #:lower16:throttleSS
 782 000c C0F20003 		movt	r3, #:upper16:throttleSS
 783 0010 7A68     		ldr	r2, [r7, #4]
 784 0012 1A60     		str	r2, [r3, #0]
 179:.\speedcontrol.c **** }
 785              		.loc 1 179 0
 786 0014 07F10C07 		add	r7, r7, #12
 787 0018 BD46     		mov	sp, r7
 788 001a 80BC     		pop	{r7}
 789 001c 7047     		bx	lr
 790              		.cfi_endproc
 791              	.LFE44:
 792              		.size	SpeedControl_setSteadyStateThrottle, .-SpeedControl_setSteadyStateThrottle
 793 001e 00BF     		.section	.text.SpeedControl_setP,"ax",%progbits
 794              		.align	2
 795              		.global	SpeedControl_setP
 796              		.thumb
 797              		.thumb_func
 798              		.type	SpeedControl_setP, %function
 799              	SpeedControl_setP:
 800              	.LFB45:
 180:.\speedcontrol.c **** 
 181:.\speedcontrol.c **** /* Set P coefficient */
 182:.\speedcontrol.c **** void SpeedControl_setP(double P) {
 801              		.loc 1 182 0
 802              		.cfi_startproc
 803              		@ args = 0, pretend = 0, frame = 8
 804              		@ frame_needed = 1, uses_anonymous_args = 0
 805              		@ link register save eliminated.
 806 0000 80B4     		push	{r7}
ARM GAS  C:\Users\bccho\AppData\Local\Temp\ccHbMFsA.s 			page 19


 807              	.LCFI35:
 808              		.cfi_def_cfa_offset 4
 809 0002 83B0     		sub	sp, sp, #12
 810              	.LCFI36:
 811              		.cfi_def_cfa_offset 16
 812 0004 00AF     		add	r7, sp, #0
 813              		.cfi_offset 7, -4
 814              	.LCFI37:
 815              		.cfi_def_cfa_register 7
 816 0006 C7E90001 		strd	r0, [r7]
 183:.\speedcontrol.c ****     coeffP = P;
 817              		.loc 1 183 0
 818 000a 40F20003 		movw	r3, #:lower16:coeffP
 819 000e C0F20003 		movt	r3, #:upper16:coeffP
 820 0012 D7E90001 		ldrd	r0, [r7]
 821 0016 C3E90001 		strd	r0, [r3]
 184:.\speedcontrol.c **** }
 822              		.loc 1 184 0
 823 001a 07F10C07 		add	r7, r7, #12
 824 001e BD46     		mov	sp, r7
 825 0020 80BC     		pop	{r7}
 826 0022 7047     		bx	lr
 827              		.cfi_endproc
 828              	.LFE45:
 829              		.size	SpeedControl_setP, .-SpeedControl_setP
 830              		.section	.text.SpeedControl_setI,"ax",%progbits
 831              		.align	2
 832              		.global	SpeedControl_setI
 833              		.thumb
 834              		.thumb_func
 835              		.type	SpeedControl_setI, %function
 836              	SpeedControl_setI:
 837              	.LFB46:
 185:.\speedcontrol.c **** 
 186:.\speedcontrol.c **** /* Set I coefficient */
 187:.\speedcontrol.c **** void SpeedControl_setI(double I) {
 838              		.loc 1 187 0
 839              		.cfi_startproc
 840              		@ args = 0, pretend = 0, frame = 8
 841              		@ frame_needed = 1, uses_anonymous_args = 0
 842              		@ link register save eliminated.
 843 0000 80B4     		push	{r7}
 844              	.LCFI38:
 845              		.cfi_def_cfa_offset 4
 846 0002 83B0     		sub	sp, sp, #12
 847              	.LCFI39:
 848              		.cfi_def_cfa_offset 16
 849 0004 00AF     		add	r7, sp, #0
 850              		.cfi_offset 7, -4
 851              	.LCFI40:
 852              		.cfi_def_cfa_register 7
 853 0006 C7E90001 		strd	r0, [r7]
 188:.\speedcontrol.c ****     coeffI = I;
 854              		.loc 1 188 0
 855 000a 40F20003 		movw	r3, #:lower16:coeffI
 856 000e C0F20003 		movt	r3, #:upper16:coeffI
 857 0012 D7E90001 		ldrd	r0, [r7]
ARM GAS  C:\Users\bccho\AppData\Local\Temp\ccHbMFsA.s 			page 20


 858 0016 C3E90001 		strd	r0, [r3]
 189:.\speedcontrol.c **** }
 859              		.loc 1 189 0
 860 001a 07F10C07 		add	r7, r7, #12
 861 001e BD46     		mov	sp, r7
 862 0020 80BC     		pop	{r7}
 863 0022 7047     		bx	lr
 864              		.cfi_endproc
 865              	.LFE46:
 866              		.size	SpeedControl_setI, .-SpeedControl_setI
 867              		.section	.text.SpeedControl_setD,"ax",%progbits
 868              		.align	2
 869              		.global	SpeedControl_setD
 870              		.thumb
 871              		.thumb_func
 872              		.type	SpeedControl_setD, %function
 873              	SpeedControl_setD:
 874              	.LFB47:
 190:.\speedcontrol.c **** 
 191:.\speedcontrol.c **** /* Set D coefficient */
 192:.\speedcontrol.c **** void SpeedControl_setD(double D) {
 875              		.loc 1 192 0
 876              		.cfi_startproc
 877              		@ args = 0, pretend = 0, frame = 8
 878              		@ frame_needed = 1, uses_anonymous_args = 0
 879              		@ link register save eliminated.
 880 0000 80B4     		push	{r7}
 881              	.LCFI41:
 882              		.cfi_def_cfa_offset 4
 883 0002 83B0     		sub	sp, sp, #12
 884              	.LCFI42:
 885              		.cfi_def_cfa_offset 16
 886 0004 00AF     		add	r7, sp, #0
 887              		.cfi_offset 7, -4
 888              	.LCFI43:
 889              		.cfi_def_cfa_register 7
 890 0006 C7E90001 		strd	r0, [r7]
 193:.\speedcontrol.c ****     coeffD = D;
 891              		.loc 1 193 0
 892 000a 40F20003 		movw	r3, #:lower16:coeffD
 893 000e C0F20003 		movt	r3, #:upper16:coeffD
 894 0012 D7E90001 		ldrd	r0, [r7]
 895 0016 C3E90001 		strd	r0, [r3]
 194:.\speedcontrol.c **** }
 896              		.loc 1 194 0
 897 001a 07F10C07 		add	r7, r7, #12
 898 001e BD46     		mov	sp, r7
 899 0020 80BC     		pop	{r7}
 900 0022 7047     		bx	lr
 901              		.cfi_endproc
 902              	.LFE47:
 903              		.size	SpeedControl_setD, .-SpeedControl_setD
 904              		.section	.text.SpeedControl_getTargetSpeed,"ax",%progbits
 905              		.align	2
 906              		.global	SpeedControl_getTargetSpeed
 907              		.thumb
 908              		.thumb_func
ARM GAS  C:\Users\bccho\AppData\Local\Temp\ccHbMFsA.s 			page 21


 909              		.type	SpeedControl_getTargetSpeed, %function
 910              	SpeedControl_getTargetSpeed:
 911              	.LFB48:
 195:.\speedcontrol.c **** 
 196:.\speedcontrol.c **** /* Get target speed */
 197:.\speedcontrol.c **** double SpeedControl_getTargetSpeed() {
 912              		.loc 1 197 0
 913              		.cfi_startproc
 914              		@ args = 0, pretend = 0, frame = 0
 915              		@ frame_needed = 1, uses_anonymous_args = 0
 916              		@ link register save eliminated.
 917 0000 80B4     		push	{r7}
 918              	.LCFI44:
 919              		.cfi_def_cfa_offset 4
 920 0002 00AF     		add	r7, sp, #0
 921              		.cfi_offset 7, -4
 922              	.LCFI45:
 923              		.cfi_def_cfa_register 7
 198:.\speedcontrol.c ****     return targetSpeed;
 924              		.loc 1 198 0
 925 0004 40F20003 		movw	r3, #:lower16:targetSpeed
 926 0008 C0F20003 		movt	r3, #:upper16:targetSpeed
 927 000c D3E90023 		ldrd	r2, [r3]
 199:.\speedcontrol.c **** }
 928              		.loc 1 199 0
 929 0010 1046     		mov	r0, r2
 930 0012 1946     		mov	r1, r3
 931 0014 BD46     		mov	sp, r7
 932 0016 80BC     		pop	{r7}
 933 0018 7047     		bx	lr
 934              		.cfi_endproc
 935              	.LFE48:
 936              		.size	SpeedControl_getTargetSpeed, .-SpeedControl_getTargetSpeed
 937 001a 00BF     		.section	.text.SpeedControl_getTargetDistance,"ax",%progbits
 938              		.align	2
 939              		.global	SpeedControl_getTargetDistance
 940              		.thumb
 941              		.thumb_func
 942              		.type	SpeedControl_getTargetDistance, %function
 943              	SpeedControl_getTargetDistance:
 944              	.LFB49:
 200:.\speedcontrol.c **** 
 201:.\speedcontrol.c **** /* Get target distance */
 202:.\speedcontrol.c **** double SpeedControl_getTargetDistance() {
 945              		.loc 1 202 0
 946              		.cfi_startproc
 947              		@ args = 0, pretend = 0, frame = 0
 948              		@ frame_needed = 1, uses_anonymous_args = 0
 949              		@ link register save eliminated.
 950 0000 80B4     		push	{r7}
 951              	.LCFI46:
 952              		.cfi_def_cfa_offset 4
 953 0002 00AF     		add	r7, sp, #0
 954              		.cfi_offset 7, -4
 955              	.LCFI47:
 956              		.cfi_def_cfa_register 7
 203:.\speedcontrol.c ****     return targetDistance;
ARM GAS  C:\Users\bccho\AppData\Local\Temp\ccHbMFsA.s 			page 22


 957              		.loc 1 203 0
 958 0004 40F20003 		movw	r3, #:lower16:targetDistance
 959 0008 C0F20003 		movt	r3, #:upper16:targetDistance
 960 000c D3E90023 		ldrd	r2, [r3]
 204:.\speedcontrol.c **** }
 961              		.loc 1 204 0
 962 0010 1046     		mov	r0, r2
 963 0012 1946     		mov	r1, r3
 964 0014 BD46     		mov	sp, r7
 965 0016 80BC     		pop	{r7}
 966 0018 7047     		bx	lr
 967              		.cfi_endproc
 968              	.LFE49:
 969              		.size	SpeedControl_getTargetDistance, .-SpeedControl_getTargetDistance
 970 001a 00BF     		.section	.text.SpeedControl_getP,"ax",%progbits
 971              		.align	2
 972              		.global	SpeedControl_getP
 973              		.thumb
 974              		.thumb_func
 975              		.type	SpeedControl_getP, %function
 976              	SpeedControl_getP:
 977              	.LFB50:
 205:.\speedcontrol.c **** 
 206:.\speedcontrol.c **** /* Get P coefficient */
 207:.\speedcontrol.c **** double SpeedControl_getP() {
 978              		.loc 1 207 0
 979              		.cfi_startproc
 980              		@ args = 0, pretend = 0, frame = 0
 981              		@ frame_needed = 1, uses_anonymous_args = 0
 982              		@ link register save eliminated.
 983 0000 80B4     		push	{r7}
 984              	.LCFI48:
 985              		.cfi_def_cfa_offset 4
 986 0002 00AF     		add	r7, sp, #0
 987              		.cfi_offset 7, -4
 988              	.LCFI49:
 989              		.cfi_def_cfa_register 7
 208:.\speedcontrol.c ****     return coeffP;
 990              		.loc 1 208 0
 991 0004 40F20003 		movw	r3, #:lower16:coeffP
 992 0008 C0F20003 		movt	r3, #:upper16:coeffP
 993 000c D3E90023 		ldrd	r2, [r3]
 209:.\speedcontrol.c **** }
 994              		.loc 1 209 0
 995 0010 1046     		mov	r0, r2
 996 0012 1946     		mov	r1, r3
 997 0014 BD46     		mov	sp, r7
 998 0016 80BC     		pop	{r7}
 999 0018 7047     		bx	lr
 1000              		.cfi_endproc
 1001              	.LFE50:
 1002              		.size	SpeedControl_getP, .-SpeedControl_getP
 1003 001a 00BF     		.section	.text.SpeedControl_getI,"ax",%progbits
 1004              		.align	2
 1005              		.global	SpeedControl_getI
 1006              		.thumb
 1007              		.thumb_func
ARM GAS  C:\Users\bccho\AppData\Local\Temp\ccHbMFsA.s 			page 23


 1008              		.type	SpeedControl_getI, %function
 1009              	SpeedControl_getI:
 1010              	.LFB51:
 210:.\speedcontrol.c **** 
 211:.\speedcontrol.c **** /* Get I coefficient */
 212:.\speedcontrol.c **** double SpeedControl_getI() {
 1011              		.loc 1 212 0
 1012              		.cfi_startproc
 1013              		@ args = 0, pretend = 0, frame = 0
 1014              		@ frame_needed = 1, uses_anonymous_args = 0
 1015              		@ link register save eliminated.
 1016 0000 80B4     		push	{r7}
 1017              	.LCFI50:
 1018              		.cfi_def_cfa_offset 4
 1019 0002 00AF     		add	r7, sp, #0
 1020              		.cfi_offset 7, -4
 1021              	.LCFI51:
 1022              		.cfi_def_cfa_register 7
 213:.\speedcontrol.c ****     return coeffI;
 1023              		.loc 1 213 0
 1024 0004 40F20003 		movw	r3, #:lower16:coeffI
 1025 0008 C0F20003 		movt	r3, #:upper16:coeffI
 1026 000c D3E90023 		ldrd	r2, [r3]
 214:.\speedcontrol.c **** }
 1027              		.loc 1 214 0
 1028 0010 1046     		mov	r0, r2
 1029 0012 1946     		mov	r1, r3
 1030 0014 BD46     		mov	sp, r7
 1031 0016 80BC     		pop	{r7}
 1032 0018 7047     		bx	lr
 1033              		.cfi_endproc
 1034              	.LFE51:
 1035              		.size	SpeedControl_getI, .-SpeedControl_getI
 1036 001a 00BF     		.section	.text.SpeedControl_getD,"ax",%progbits
 1037              		.align	2
 1038              		.global	SpeedControl_getD
 1039              		.thumb
 1040              		.thumb_func
 1041              		.type	SpeedControl_getD, %function
 1042              	SpeedControl_getD:
 1043              	.LFB52:
 215:.\speedcontrol.c **** 
 216:.\speedcontrol.c **** /* Get D coefficient */
 217:.\speedcontrol.c **** double SpeedControl_getD() {
 1044              		.loc 1 217 0
 1045              		.cfi_startproc
 1046              		@ args = 0, pretend = 0, frame = 0
 1047              		@ frame_needed = 1, uses_anonymous_args = 0
 1048              		@ link register save eliminated.
 1049 0000 80B4     		push	{r7}
 1050              	.LCFI52:
 1051              		.cfi_def_cfa_offset 4
 1052 0002 00AF     		add	r7, sp, #0
 1053              		.cfi_offset 7, -4
 1054              	.LCFI53:
 1055              		.cfi_def_cfa_register 7
 218:.\speedcontrol.c ****     return coeffD;
ARM GAS  C:\Users\bccho\AppData\Local\Temp\ccHbMFsA.s 			page 24


 1056              		.loc 1 218 0
 1057 0004 40F20003 		movw	r3, #:lower16:coeffD
 1058 0008 C0F20003 		movt	r3, #:upper16:coeffD
 1059 000c D3E90023 		ldrd	r2, [r3]
 219:.\speedcontrol.c **** }
 1060              		.loc 1 219 0
 1061 0010 1046     		mov	r0, r2
 1062 0012 1946     		mov	r1, r3
 1063 0014 BD46     		mov	sp, r7
 1064 0016 80BC     		pop	{r7}
 1065 0018 7047     		bx	lr
 1066              		.cfi_endproc
 1067              	.LFE52:
 1068              		.size	SpeedControl_getD, .-SpeedControl_getD
 1069 001a 00BF     		.section	.text.SpeedControl_getSpeed,"ax",%progbits
 1070              		.align	2
 1071              		.global	SpeedControl_getSpeed
 1072              		.thumb
 1073              		.thumb_func
 1074              		.type	SpeedControl_getSpeed, %function
 1075              	SpeedControl_getSpeed:
 1076              	.LFB53:
 220:.\speedcontrol.c **** 
 221:.\speedcontrol.c **** /* Get current speed */
 222:.\speedcontrol.c **** double SpeedControl_getSpeed() {
 1077              		.loc 1 222 0
 1078              		.cfi_startproc
 1079              		@ args = 0, pretend = 0, frame = 0
 1080              		@ frame_needed = 1, uses_anonymous_args = 0
 1081 0000 80B5     		push	{r7, lr}
 1082              	.LCFI54:
 1083              		.cfi_def_cfa_offset 8
 1084 0002 00AF     		add	r7, sp, #0
 1085              		.cfi_offset 14, -4
 1086              		.cfi_offset 7, -8
 1087              	.LCFI55:
 1088              		.cfi_def_cfa_register 7
 223:.\speedcontrol.c ****     return getSpeed();
 1089              		.loc 1 223 0
 1090 0004 FFF7FEFF 		bl	getSpeed
 1091 0008 0246     		mov	r2, r0
 1092 000a 0B46     		mov	r3, r1
 224:.\speedcontrol.c **** }
 1093              		.loc 1 224 0
 1094 000c 1046     		mov	r0, r2
 1095 000e 1946     		mov	r1, r3
 1096 0010 80BD     		pop	{r7, pc}
 1097              		.cfi_endproc
 1098              	.LFE53:
 1099              		.size	SpeedControl_getSpeed, .-SpeedControl_getSpeed
 1100 0012 00BF     		.section	.text.SpeedControl_getDistance,"ax",%progbits
 1101              		.align	2
 1102              		.global	SpeedControl_getDistance
 1103              		.thumb
 1104              		.thumb_func
 1105              		.type	SpeedControl_getDistance, %function
 1106              	SpeedControl_getDistance:
ARM GAS  C:\Users\bccho\AppData\Local\Temp\ccHbMFsA.s 			page 25


 1107              	.LFB54:
 225:.\speedcontrol.c **** 
 226:.\speedcontrol.c **** /* Get total distance */
 227:.\speedcontrol.c **** double SpeedControl_getDistance() {
 1108              		.loc 1 227 0
 1109              		.cfi_startproc
 1110              		@ args = 0, pretend = 0, frame = 0
 1111              		@ frame_needed = 1, uses_anonymous_args = 0
 1112              		@ link register save eliminated.
 1113 0000 80B4     		push	{r7}
 1114              	.LCFI56:
 1115              		.cfi_def_cfa_offset 4
 1116 0002 00AF     		add	r7, sp, #0
 1117              		.cfi_offset 7, -4
 1118              	.LCFI57:
 1119              		.cfi_def_cfa_register 7
 228:.\speedcontrol.c ****     return totalDistance;
 1120              		.loc 1 228 0
 1121 0004 40F20003 		movw	r3, #:lower16:totalDistance
 1122 0008 C0F20003 		movt	r3, #:upper16:totalDistance
 1123 000c D3E90023 		ldrd	r2, [r3]
 229:.\speedcontrol.c **** }
 1124              		.loc 1 229 0
 1125 0010 1046     		mov	r0, r2
 1126 0012 1946     		mov	r1, r3
 1127 0014 BD46     		mov	sp, r7
 1128 0016 80BC     		pop	{r7}
 1129 0018 7047     		bx	lr
 1130              		.cfi_endproc
 1131              	.LFE54:
 1132              		.size	SpeedControl_getDistance, .-SpeedControl_getDistance
 1133 001a 00BF     		.section	.text.SpeedControl_getSteadyStateThrottle,"ax",%progbits
 1134              		.align	2
 1135              		.global	SpeedControl_getSteadyStateThrottle
 1136              		.thumb
 1137              		.thumb_func
 1138              		.type	SpeedControl_getSteadyStateThrottle, %function
 1139              	SpeedControl_getSteadyStateThrottle:
 1140              	.LFB55:
 230:.\speedcontrol.c **** 
 231:.\speedcontrol.c **** /* Get steady state throttle */
 232:.\speedcontrol.c **** int SpeedControl_getSteadyStateThrottle() {
 1141              		.loc 1 232 0
 1142              		.cfi_startproc
 1143              		@ args = 0, pretend = 0, frame = 0
 1144              		@ frame_needed = 1, uses_anonymous_args = 0
 1145              		@ link register save eliminated.
 1146 0000 80B4     		push	{r7}
 1147              	.LCFI58:
 1148              		.cfi_def_cfa_offset 4
 1149 0002 00AF     		add	r7, sp, #0
 1150              		.cfi_offset 7, -4
 1151              	.LCFI59:
 1152              		.cfi_def_cfa_register 7
 233:.\speedcontrol.c ****     return throttleSS;
 1153              		.loc 1 233 0
 1154 0004 40F20003 		movw	r3, #:lower16:throttleSS
ARM GAS  C:\Users\bccho\AppData\Local\Temp\ccHbMFsA.s 			page 26


 1155 0008 C0F20003 		movt	r3, #:upper16:throttleSS
 1156 000c 1B68     		ldr	r3, [r3, #0]
 234:.\speedcontrol.c **** }
 1157              		.loc 1 234 0
 1158 000e 1846     		mov	r0, r3
 1159 0010 BD46     		mov	sp, r7
 1160 0012 80BC     		pop	{r7}
 1161 0014 7047     		bx	lr
 1162              		.cfi_endproc
 1163              	.LFE55:
 1164              		.size	SpeedControl_getSteadyStateThrottle, .-SpeedControl_getSteadyStateThrottle
 1165 0016 00BF     		.section	.rodata
 1166 00f1 000000   		.align	2
 1167              	.LC3:
 1168 00f4 43616E6E 		.ascii	"Cannot change throttle when PID on\012\000"
 1168      6F742063 
 1168      68616E67 
 1168      65207468 
 1168      726F7474 
 1169              		.section	.text.SpeedControl_setThrottle,"ax",%progbits
 1170              		.align	2
 1171              		.global	SpeedControl_setThrottle
 1172              		.thumb
 1173              		.thumb_func
 1174              		.type	SpeedControl_setThrottle, %function
 1175              	SpeedControl_setThrottle:
 1176              	.LFB56:
 235:.\speedcontrol.c **** 
 236:.\speedcontrol.c **** /* Set throttle */
 237:.\speedcontrol.c **** void SpeedControl_setThrottle(int throttle) {
 1177              		.loc 1 237 0
 1178              		.cfi_startproc
 1179              		@ args = 0, pretend = 0, frame = 8
 1180              		@ frame_needed = 1, uses_anonymous_args = 0
 1181 0000 80B5     		push	{r7, lr}
 1182              	.LCFI60:
 1183              		.cfi_def_cfa_offset 8
 1184 0002 82B0     		sub	sp, sp, #8
 1185              	.LCFI61:
 1186              		.cfi_def_cfa_offset 16
 1187 0004 00AF     		add	r7, sp, #0
 1188              		.cfi_offset 14, -4
 1189              		.cfi_offset 7, -8
 1190              	.LCFI62:
 1191              		.cfi_def_cfa_register 7
 1192 0006 7860     		str	r0, [r7, #4]
 238:.\speedcontrol.c ****     if (!throttlePIDon) setThrottle(throttle);
 1193              		.loc 1 238 0
 1194 0008 40F20003 		movw	r3, #:lower16:throttlePIDon
 1195 000c C0F20003 		movt	r3, #:upper16:throttlePIDon
 1196 0010 1B68     		ldr	r3, [r3, #0]
 1197 0012 002B     		cmp	r3, #0
 1198 0014 03D1     		bne	.L62
 1199 0016 7868     		ldr	r0, [r7, #4]
 1200 0018 FFF7FEFF 		bl	setThrottle
 1201 001c 05E0     		b	.L64
 1202              	.L62:
ARM GAS  C:\Users\bccho\AppData\Local\Temp\ccHbMFsA.s 			page 27


 239:.\speedcontrol.c ****     else UART_PutString("Cannot change throttle when PID on\n");
 1203              		.loc 1 239 0
 1204 001e 40F20000 		movw	r0, #:lower16:.LC3
 1205 0022 C0F20000 		movt	r0, #:upper16:.LC3
 1206 0026 FFF7FEFF 		bl	UART_PutString
 1207              	.L64:
 240:.\speedcontrol.c **** }
 1208              		.loc 1 240 0
 1209 002a 07F10807 		add	r7, r7, #8
 1210 002e BD46     		mov	sp, r7
 1211 0030 80BD     		pop	{r7, pc}
 1212              		.cfi_endproc
 1213              	.LFE56:
 1214              		.size	SpeedControl_setThrottle, .-SpeedControl_setThrottle
 1215 0032 00BF     		.section	.text.SpeedControl_getThrottle,"ax",%progbits
 1216              		.align	2
 1217              		.global	SpeedControl_getThrottle
 1218              		.thumb
 1219              		.thumb_func
 1220              		.type	SpeedControl_getThrottle, %function
 1221              	SpeedControl_getThrottle:
 1222              	.LFB57:
 241:.\speedcontrol.c **** 
 242:.\speedcontrol.c **** /* Get throttle */
 243:.\speedcontrol.c **** int SpeedControl_getThrottle() {
 1223              		.loc 1 243 0
 1224              		.cfi_startproc
 1225              		@ args = 0, pretend = 0, frame = 0
 1226              		@ frame_needed = 1, uses_anonymous_args = 0
 1227              		@ link register save eliminated.
 1228 0000 80B4     		push	{r7}
 1229              	.LCFI63:
 1230              		.cfi_def_cfa_offset 4
 1231 0002 00AF     		add	r7, sp, #0
 1232              		.cfi_offset 7, -4
 1233              	.LCFI64:
 1234              		.cfi_def_cfa_register 7
 244:.\speedcontrol.c ****     return throttle;
 1235              		.loc 1 244 0
 1236 0004 40F20003 		movw	r3, #:lower16:throttle
 1237 0008 C0F20003 		movt	r3, #:upper16:throttle
 1238 000c 1B68     		ldr	r3, [r3, #0]
 245:.\speedcontrol.c **** }
 1239              		.loc 1 245 0
 1240 000e 1846     		mov	r0, r3
 1241 0010 BD46     		mov	sp, r7
 1242 0012 80BC     		pop	{r7}
 1243 0014 7047     		bx	lr
 1244              		.cfi_endproc
 1245              	.LFE57:
 1246              		.size	SpeedControl_getThrottle, .-SpeedControl_getThrottle
 1247 0016 00BF     		.section	.text.SpeedControl_kill,"ax",%progbits
 1248              		.align	2
 1249              		.global	SpeedControl_kill
 1250              		.thumb
 1251              		.thumb_func
 1252              		.type	SpeedControl_kill, %function
ARM GAS  C:\Users\bccho\AppData\Local\Temp\ccHbMFsA.s 			page 28


 1253              	SpeedControl_kill:
 1254              	.LFB58:
 246:.\speedcontrol.c **** 
 247:.\speedcontrol.c **** /* Kill throttle and speed control */
 248:.\speedcontrol.c **** void SpeedControl_kill() {
 1255              		.loc 1 248 0
 1256              		.cfi_startproc
 1257              		@ args = 0, pretend = 0, frame = 0
 1258              		@ frame_needed = 1, uses_anonymous_args = 0
 1259 0000 80B5     		push	{r7, lr}
 1260              	.LCFI65:
 1261              		.cfi_def_cfa_offset 8
 1262 0002 00AF     		add	r7, sp, #0
 1263              		.cfi_offset 14, -4
 1264              		.cfi_offset 7, -8
 1265              	.LCFI66:
 1266              		.cfi_def_cfa_register 7
 249:.\speedcontrol.c ****     killAll();
 1267              		.loc 1 249 0
 1268 0004 FFF7FEFF 		bl	killAll
 250:.\speedcontrol.c **** }
 1269              		.loc 1 250 0
 1270 0008 80BD     		pop	{r7, pc}
 1271              		.cfi_endproc
 1272              	.LFE58:
 1273              		.size	SpeedControl_kill, .-SpeedControl_kill
 1274              		.global	__aeabi_dmul
 1275              		.global	__aeabi_dadd
 1276 000a 00BF     		.section	.text.SpeedControl_handleWheelTick,"ax",%progbits
 1277              		.align	2
 1278              		.global	SpeedControl_handleWheelTick
 1279              		.thumb
 1280              		.thumb_func
 1281              		.type	SpeedControl_handleWheelTick, %function
 1282              	SpeedControl_handleWheelTick:
 1283              	.LFB59:
 251:.\speedcontrol.c **** 
 252:.\speedcontrol.c **** /* Handle wheel tick */
 253:.\speedcontrol.c **** void SpeedControl_handleWheelTick() {
 1284              		.loc 1 253 0
 1285              		.cfi_startproc
 1286              		@ args = 0, pretend = 0, frame = 8
 1287              		@ frame_needed = 1, uses_anonymous_args = 0
 1288 0000 80B5     		push	{r7, lr}
 1289              	.LCFI67:
 1290              		.cfi_def_cfa_offset 8
 1291 0002 82B0     		sub	sp, sp, #8
 1292              	.LCFI68:
 1293              		.cfi_def_cfa_offset 16
 1294 0004 00AF     		add	r7, sp, #0
 1295              		.cfi_offset 14, -4
 1296              		.cfi_offset 7, -8
 1297              	.LCFI69:
 1298              		.cfi_def_cfa_register 7
 254:.\speedcontrol.c ****     int tickCount = Timer_Wheel_Tick_ReadCapture();
 1299              		.loc 1 254 0
 1300 0006 FFF7FEFF 		bl	Timer_Wheel_Tick_ReadCapture
ARM GAS  C:\Users\bccho\AppData\Local\Temp\ccHbMFsA.s 			page 29


 1301 000a 0346     		mov	r3, r0
 1302 000c 3B60     		str	r3, [r7, #0]
 255:.\speedcontrol.c ****     
 256:.\speedcontrol.c ****     // Calculate tick delta
 257:.\speedcontrol.c ****     int tickDelta = oldTickCount - tickCount;
 1303              		.loc 1 257 0
 1304 000e 40F20003 		movw	r3, #:lower16:oldTickCount
 1305 0012 C0F20003 		movt	r3, #:upper16:oldTickCount
 1306 0016 1A68     		ldr	r2, [r3, #0]
 1307 0018 3B68     		ldr	r3, [r7, #0]
 1308 001a C3EB0203 		rsb	r3, r3, r2
 1309 001e 7B60     		str	r3, [r7, #4]
 258:.\speedcontrol.c ****     tickDelta = tickDelta < 0 ? TICK_TIMER_PERIOD + tickDelta : tickDelta;
 1310              		.loc 1 258 0
 1311 0020 7B68     		ldr	r3, [r7, #4]
 1312 0022 002B     		cmp	r3, #0
 1313 0024 07DA     		bge	.L70
 1314 0026 40F20003 		movw	r3, #:lower16:TICK_TIMER_PERIOD
 1315 002a C0F20003 		movt	r3, #:upper16:TICK_TIMER_PERIOD
 1316 002e 1A68     		ldr	r2, [r3, #0]
 1317 0030 7B68     		ldr	r3, [r7, #4]
 1318 0032 1344     		add	r3, r2, r3
 1319 0034 00E0     		b	.L71
 1320              	.L70:
 1321 0036 7B68     		ldr	r3, [r7, #4]
 1322              	.L71:
 1323 0038 7B60     		str	r3, [r7, #4]
 259:.\speedcontrol.c ****     bufWheelTick[bufWheelTickPos] = tickDelta;
 1324              		.loc 1 259 0
 1325 003a 40F20003 		movw	r3, #:lower16:bufWheelTickPos
 1326 003e C0F20003 		movt	r3, #:upper16:bufWheelTickPos
 1327 0042 1A68     		ldr	r2, [r3, #0]
 1328 0044 40F20003 		movw	r3, #:lower16:bufWheelTick
 1329 0048 C0F20003 		movt	r3, #:upper16:bufWheelTick
 1330 004c 7968     		ldr	r1, [r7, #4]
 1331 004e 43F82210 		str	r1, [r3, r2, lsl #2]
 260:.\speedcontrol.c ****     
 261:.\speedcontrol.c ****     // Increment buffer position, and update size and old tick count
 262:.\speedcontrol.c ****     bufWheelTickPos = (bufWheelTickPos + 1) % BUF_WHEEL_TICK_SIZE;
 1332              		.loc 1 262 0
 1333 0052 40F20003 		movw	r3, #:lower16:bufWheelTickPos
 1334 0056 C0F20003 		movt	r3, #:upper16:bufWheelTickPos
 1335 005a 1B68     		ldr	r3, [r3, #0]
 1336 005c 03F10101 		add	r1, r3, #1
 1337 0060 45F25653 		movw	r3, #:lower16:1431655766
 1338 0064 C5F25553 		movt	r3, #:upper16:1431655766
 1339 0068 83FB0102 		smull	r0, r2, r3, r1
 1340 006c 4FEAE173 		asr	r3, r1, #31
 1341 0070 C3EB0202 		rsb	r2, r3, r2
 1342 0074 1346     		mov	r3, r2
 1343 0076 4FEA4303 		lsl	r3, r3, #1
 1344 007a 1344     		add	r3, r3, r2
 1345 007c C3EB0102 		rsb	r2, r3, r1
 1346 0080 40F20003 		movw	r3, #:lower16:bufWheelTickPos
 1347 0084 C0F20003 		movt	r3, #:upper16:bufWheelTickPos
 1348 0088 1A60     		str	r2, [r3, #0]
 263:.\speedcontrol.c ****     if (bufWheelTickCurSize < BUF_WHEEL_TICK_SIZE) bufWheelTickCurSize++;
ARM GAS  C:\Users\bccho\AppData\Local\Temp\ccHbMFsA.s 			page 30


 1349              		.loc 1 263 0
 1350 008a 40F20003 		movw	r3, #:lower16:bufWheelTickCurSize
 1351 008e C0F20003 		movt	r3, #:upper16:bufWheelTickCurSize
 1352 0092 1B68     		ldr	r3, [r3, #0]
 1353 0094 022B     		cmp	r3, #2
 1354 0096 0BDC     		bgt	.L72
 1355 0098 40F20003 		movw	r3, #:lower16:bufWheelTickCurSize
 1356 009c C0F20003 		movt	r3, #:upper16:bufWheelTickCurSize
 1357 00a0 1B68     		ldr	r3, [r3, #0]
 1358 00a2 03F10102 		add	r2, r3, #1
 1359 00a6 40F20003 		movw	r3, #:lower16:bufWheelTickCurSize
 1360 00aa C0F20003 		movt	r3, #:upper16:bufWheelTickCurSize
 1361 00ae 1A60     		str	r2, [r3, #0]
 1362              	.L72:
 264:.\speedcontrol.c ****     oldTickCount = tickCount;
 1363              		.loc 1 264 0
 1364 00b0 40F20003 		movw	r3, #:lower16:oldTickCount
 1365 00b4 C0F20003 		movt	r3, #:upper16:oldTickCount
 1366 00b8 3A68     		ldr	r2, [r7, #0]
 1367 00ba 1A60     		str	r2, [r3, #0]
 265:.\speedcontrol.c ****     
 266:.\speedcontrol.c ****     // Update total distance
 267:.\speedcontrol.c ****     totalDistance += (1.0/5.0) * (M_PI * WHEEL_DIAM) / 12.0;
 1368              		.loc 1 267 0
 1369 00bc 40F20003 		movw	r3, #:lower16:WHEEL_DIAM
 1370 00c0 C0F20003 		movt	r3, #:upper16:WHEEL_DIAM
 1371 00c4 D3E90023 		ldrd	r2, [r3]
 1372 00c8 1046     		mov	r0, r2
 1373 00ca 1946     		mov	r1, r3
 1374 00cc 1AA3     		adr	r3, .L74
 1375 00ce D3E90023 		ldrd	r2, [r3]
 1376 00d2 FFF7FEFF 		bl	__aeabi_dmul
 1377 00d6 0246     		mov	r2, r0
 1378 00d8 0B46     		mov	r3, r1
 1379 00da 1046     		mov	r0, r2
 1380 00dc 1946     		mov	r1, r3
 1381 00de 18A3     		adr	r3, .L74+8
 1382 00e0 D3E90023 		ldrd	r2, [r3]
 1383 00e4 FFF7FEFF 		bl	__aeabi_dmul
 1384 00e8 0246     		mov	r2, r0
 1385 00ea 0B46     		mov	r3, r1
 1386 00ec 1046     		mov	r0, r2
 1387 00ee 1946     		mov	r1, r3
 1388 00f0 4FF00002 		mov	r2, #0
 1389 00f4 4FF08043 		mov	r3, #1073741824
 1390 00f8 03F52013 		add	r3, r3, #2621440
 1391 00fc FFF7FEFF 		bl	__aeabi_ddiv
 1392 0100 0246     		mov	r2, r0
 1393 0102 0B46     		mov	r3, r1
 1394 0104 1046     		mov	r0, r2
 1395 0106 1946     		mov	r1, r3
 1396 0108 40F20003 		movw	r3, #:lower16:totalDistance
 1397 010c C0F20003 		movt	r3, #:upper16:totalDistance
 1398 0110 D3E90023 		ldrd	r2, [r3]
 1399 0114 FFF7FEFF 		bl	__aeabi_dadd
 1400 0118 0246     		mov	r2, r0
 1401 011a 0B46     		mov	r3, r1
ARM GAS  C:\Users\bccho\AppData\Local\Temp\ccHbMFsA.s 			page 31


 1402 011c 1046     		mov	r0, r2
 1403 011e 1946     		mov	r1, r3
 1404 0120 40F20003 		movw	r3, #:lower16:totalDistance
 1405 0124 C0F20003 		movt	r3, #:upper16:totalDistance
 1406 0128 C3E90001 		strd	r0, [r3]
 268:.\speedcontrol.c **** }
 1407              		.loc 1 268 0
 1408 012c 07F10807 		add	r7, r7, #8
 1409 0130 BD46     		mov	sp, r7
 1410 0132 80BD     		pop	{r7, pc}
 1411              	.L75:
 1412 0134 AFF30080 		.align	3
 1413              	.L74:
 1414 0138 182D4454 		.word	1413754136
 1415 013c FB210940 		.word	1074340347
 1416 0140 9A999999 		.word	-1717986918
 1417 0144 9999C93F 		.word	1070176665
 1418              		.cfi_endproc
 1419              	.LFE59:
 1420              		.size	SpeedControl_handleWheelTick, .-SpeedControl_handleWheelTick
 1421              		.section	.rodata
 1422              		.align	2
 1423              	.LC4:
 1424 0118 57686565 		.ascii	"Wheel timeout\012\000"
 1424      6C207469 
 1424      6D656F75 
 1424      740A00
 1425              		.section	.text.SpeedControl_handleWheelTickTimeout,"ax",%progbits
 1426              		.align	2
 1427              		.global	SpeedControl_handleWheelTickTimeout
 1428              		.thumb
 1429              		.thumb_func
 1430              		.type	SpeedControl_handleWheelTickTimeout, %function
 1431              	SpeedControl_handleWheelTickTimeout:
 1432              	.LFB60:
 269:.\speedcontrol.c **** 
 270:.\speedcontrol.c **** 
 271:.\speedcontrol.c **** /* Handle wheel tick timeout */
 272:.\speedcontrol.c **** void SpeedControl_handleWheelTickTimeout() {
 1433              		.loc 1 272 0
 1434              		.cfi_startproc
 1435              		@ args = 0, pretend = 0, frame = 0
 1436              		@ frame_needed = 1, uses_anonymous_args = 0
 1437 0000 80B5     		push	{r7, lr}
 1438              	.LCFI70:
 1439              		.cfi_def_cfa_offset 8
 1440 0002 00AF     		add	r7, sp, #0
 1441              		.cfi_offset 14, -4
 1442              		.cfi_offset 7, -8
 1443              	.LCFI71:
 1444              		.cfi_def_cfa_register 7
 273:.\speedcontrol.c ****     // Reset speed and derivative tracking
 274:.\speedcontrol.c ****     resetSpeedTracking();
 1445              		.loc 1 274 0
 1446 0004 FFF7FEFF 		bl	resetSpeedTracking
 275:.\speedcontrol.c ****     resetDerivativeTracking();
 1447              		.loc 1 275 0
ARM GAS  C:\Users\bccho\AppData\Local\Temp\ccHbMFsA.s 			page 32


 1448 0008 FFF7FEFF 		bl	resetDerivativeTracking
 276:.\speedcontrol.c ****     UART_PutString("Wheel timeout\n");
 1449              		.loc 1 276 0
 1450 000c 40F20000 		movw	r0, #:lower16:.LC4
 1451 0010 C0F20000 		movt	r0, #:upper16:.LC4
 1452 0014 FFF7FEFF 		bl	UART_PutString
 277:.\speedcontrol.c **** }
 1453              		.loc 1 277 0
 1454 0018 80BD     		pop	{r7, pc}
 1455              		.cfi_endproc
 1456              	.LFE60:
 1457              		.size	SpeedControl_handleWheelTickTimeout, .-SpeedControl_handleWheelTickTimeout
 1458              		.global	__aeabi_i2d
 1459 001a 00BF     		.section	.text.SpeedControl_handleTimer,"ax",%progbits
 1460              		.align	2
 1461              		.global	SpeedControl_handleTimer
 1462              		.thumb
 1463              		.thumb_func
 1464              		.type	SpeedControl_handleTimer, %function
 1465              	SpeedControl_handleTimer:
 1466              	.LFB61:
 278:.\speedcontrol.c **** 
 279:.\speedcontrol.c **** 
 280:.\speedcontrol.c **** 
 281:.\speedcontrol.c **** /* Handle PID timer. Controls speed and updates time */
 282:.\speedcontrol.c **** void SpeedControl_handleTimer() {
 1467              		.loc 1 282 0
 1468              		.cfi_startproc
 1469              		@ args = 0, pretend = 0, frame = 0
 1470              		@ frame_needed = 1, uses_anonymous_args = 0
 1471 0000 B0B5     		push	{r4, r5, r7, lr}
 1472              	.LCFI72:
 1473              		.cfi_def_cfa_offset 16
 1474 0002 00AF     		add	r7, sp, #0
 1475              		.cfi_offset 14, -4
 1476              		.cfi_offset 7, -8
 1477              		.cfi_offset 5, -12
 1478              		.cfi_offset 4, -16
 1479              	.LCFI73:
 1480              		.cfi_def_cfa_register 7
 283:.\speedcontrol.c ****     if (throttlePIDon) {
 1481              		.loc 1 283 0
 1482 0004 40F20003 		movw	r3, #:lower16:throttlePIDon
 1483 0008 C0F20003 		movt	r3, #:upper16:throttlePIDon
 1484 000c 1B68     		ldr	r3, [r3, #0]
 1485 000e 002B     		cmp	r3, #0
 1486 0010 39D0     		beq	.L80
 284:.\speedcontrol.c ****         elapsedTime += (double) PID_TIMER_PERIOD / (double) CLK_FREQ;
 1487              		.loc 1 284 0
 1488 0012 40F20003 		movw	r3, #:lower16:PID_TIMER_PERIOD
 1489 0016 C0F20003 		movt	r3, #:upper16:PID_TIMER_PERIOD
 1490 001a 1B68     		ldr	r3, [r3, #0]
 1491 001c 1846     		mov	r0, r3
 1492 001e FFF7FEFF 		bl	__aeabi_i2d
 1493 0022 0446     		mov	r4, r0
 1494 0024 0D46     		mov	r5, r1
 1495 0026 40F20003 		movw	r3, #:lower16:CLK_FREQ
ARM GAS  C:\Users\bccho\AppData\Local\Temp\ccHbMFsA.s 			page 33


 1496 002a C0F20003 		movt	r3, #:upper16:CLK_FREQ
 1497 002e 1B68     		ldr	r3, [r3, #0]
 1498 0030 1846     		mov	r0, r3
 1499 0032 FFF7FEFF 		bl	__aeabi_i2d
 1500 0036 0246     		mov	r2, r0
 1501 0038 0B46     		mov	r3, r1
 1502 003a 2046     		mov	r0, r4
 1503 003c 2946     		mov	r1, r5
 1504 003e FFF7FEFF 		bl	__aeabi_ddiv
 1505 0042 0246     		mov	r2, r0
 1506 0044 0B46     		mov	r3, r1
 1507 0046 1046     		mov	r0, r2
 1508 0048 1946     		mov	r1, r3
 1509 004a 40F20003 		movw	r3, #:lower16:elapsedTime
 1510 004e C0F20003 		movt	r3, #:upper16:elapsedTime
 1511 0052 D3E90023 		ldrd	r2, [r3]
 1512 0056 FFF7FEFF 		bl	__aeabi_dadd
 1513 005a 0246     		mov	r2, r0
 1514 005c 0B46     		mov	r3, r1
 1515 005e 1046     		mov	r0, r2
 1516 0060 1946     		mov	r1, r3
 1517 0062 40F20003 		movw	r3, #:lower16:elapsedTime
 1518 0066 C0F20003 		movt	r3, #:upper16:elapsedTime
 1519 006a C3E90001 		strd	r0, [r3]
 285:.\speedcontrol.c ****         setThrottle(controlThrottle(getSpeed()));
 1520              		.loc 1 285 0
 1521 006e FFF7FEFF 		bl	getSpeed
 1522 0072 0246     		mov	r2, r0
 1523 0074 0B46     		mov	r3, r1
 1524 0076 1046     		mov	r0, r2
 1525 0078 1946     		mov	r1, r3
 1526 007a FFF7FEFF 		bl	controlThrottle
 1527 007e 0346     		mov	r3, r0
 1528 0080 1846     		mov	r0, r3
 1529 0082 FFF7FEFF 		bl	setThrottle
 1530              	.L80:
 286:.\speedcontrol.c ****     }
 287:.\speedcontrol.c **** }
 1531              		.loc 1 287 0
 1532 0086 B0BD     		pop	{r4, r5, r7, pc}
 1533              		.cfi_endproc
 1534              	.LFE61:
 1535              		.size	SpeedControl_handleTimer, .-SpeedControl_handleTimer
 1536              		.global	__aeabi_dcmpge
 1537              		.section	.rodata
 1538 0127 00       		.align	2
 1539              	.LC5:
 1540 0128 54617267 		.ascii	"Target distance reached in %6.2f s\012\000"
 1540      65742064 
 1540      69737461 
 1540      6E636520 
 1540      72656163 
 1541              		.global	__aeabi_dsub
 1542              		.global	__aeabi_dcmpgt
 1543              		.global	__aeabi_dcmple
 1544              		.global	__aeabi_d2iz
 1545              		.align	2
ARM GAS  C:\Users\bccho\AppData\Local\Temp\ccHbMFsA.s 			page 34


 1546              	.LC6:
 1547 014c 2533692C 		.ascii	"%3i, %6.2f, %6.2f, %6.2f, %8.5f, %6.2f | %6.2f, %6."
 1547      2025362E 
 1547      32662C20 
 1547      25362E32 
 1547      662C2025 
 1548 017f 32662C20 		.ascii	"2f, %6.2f\012\000"
 1548      25362E32 
 1548      660A00
 1549              		.section	.text.controlThrottle,"ax",%progbits
 1550              		.align	2
 1551              		.thumb
 1552              		.thumb_func
 1553              		.type	controlThrottle, %function
 1554              	controlThrottle:
 1555              	.LFB62:
 288:.\speedcontrol.c **** 
 289:.\speedcontrol.c **** 
 290:.\speedcontrol.c **** 
 291:.\speedcontrol.c **** /* Updates the error values, and uses them to update
 292:.\speedcontrol.c ****  * the set point throttle for PWM control
 293:.\speedcontrol.c ****  *
 294:.\speedcontrol.c ****  * Inputs: speed (double)
 295:.\speedcontrol.c ****  * Returns: newThrottle (int) */
 296:.\speedcontrol.c **** static int controlThrottle(double speed) {
 1556              		.loc 1 296 0
 1557              		.cfi_startproc
 1558              		@ args = 0, pretend = 0, frame = 64
 1559              		@ frame_needed = 1, uses_anonymous_args = 0
 1560 0000 B0B5     		push	{r4, r5, r7, lr}
 1561              	.LCFI74:
 1562              		.cfi_def_cfa_offset 16
 1563 0002 A0B0     		sub	sp, sp, #128
 1564              	.LCFI75:
 1565              		.cfi_def_cfa_offset 144
 1566 0004 10AF     		add	r7, sp, #64
 1567              		.cfi_offset 14, -4
 1568              		.cfi_offset 7, -8
 1569              		.cfi_offset 5, -12
 1570              		.cfi_offset 4, -16
 1571              	.LCFI76:
 1572              		.cfi_def_cfa 7, 80
 1573 0006 C7E90001 		strd	r0, [r7]
 297:.\speedcontrol.c ****     // Handle distance timeout
 298:.\speedcontrol.c ****     if (distanceTimeoutOn && totalDistance >= targetDistance) {
 1574              		.loc 1 298 0
 1575 000a 40F20003 		movw	r3, #:lower16:distanceTimeoutOn
 1576 000e C0F20003 		movt	r3, #:upper16:distanceTimeoutOn
 1577 0012 1B68     		ldr	r3, [r3, #0]
 1578 0014 002B     		cmp	r3, #0
 1579 0016 34D0     		beq	.L82
 1580 0018 40F20003 		movw	r3, #:lower16:totalDistance
 1581 001c C0F20003 		movt	r3, #:upper16:totalDistance
 1582 0020 D3E90001 		ldrd	r0, [r3]
 1583 0024 40F20003 		movw	r3, #:lower16:targetDistance
 1584 0028 C0F20003 		movt	r3, #:upper16:targetDistance
 1585 002c D3E90023 		ldrd	r2, [r3]
ARM GAS  C:\Users\bccho\AppData\Local\Temp\ccHbMFsA.s 			page 35


 1586 0030 4FF0000C 		mov	ip, #0
 1587 0034 6446     		mov	r4, ip
 1588 0036 FFF7FEFF 		bl	__aeabi_dcmpge
 1589 003a 0346     		mov	r3, r0
 1590 003c 002B     		cmp	r3, #0
 1591 003e 02D0     		beq	.L83
 1592              	.L84:
 1593 0040 4FF00103 		mov	r3, #1
 1594 0044 1C46     		mov	r4, r3
 1595              	.L83:
 1596 0046 E3B2     		uxtb	r3, r4
 1597 0048 002B     		cmp	r3, #0
 1598 004a 1AD0     		beq	.L82
 299:.\speedcontrol.c ****         killAll();
 1599              		.loc 1 299 0
 1600 004c FFF7FEFF 		bl	killAll
 300:.\speedcontrol.c ****         
 301:.\speedcontrol.c ****         sprintf(strbuffer, "Target distance reached in %6.2f s\n", elapsedTime);
 1601              		.loc 1 301 0
 1602 0050 40F20003 		movw	r3, #:lower16:elapsedTime
 1603 0054 C0F20003 		movt	r3, #:upper16:elapsedTime
 1604 0058 D3E90023 		ldrd	r2, [r3]
 1605 005c 40F20000 		movw	r0, #:lower16:strbuffer
 1606 0060 C0F20000 		movt	r0, #:upper16:strbuffer
 1607 0064 40F20001 		movw	r1, #:lower16:.LC5
 1608 0068 C0F20001 		movt	r1, #:upper16:.LC5
 1609 006c FFF7FEFF 		bl	sprintf
 302:.\speedcontrol.c ****         UART_PutString(strbuffer);
 1610              		.loc 1 302 0
 1611 0070 40F20000 		movw	r0, #:lower16:strbuffer
 1612 0074 C0F20000 		movt	r0, #:upper16:strbuffer
 1613 0078 FFF7FEFF 		bl	UART_PutString
 303:.\speedcontrol.c ****         return 0;
 1614              		.loc 1 303 0
 1615 007c 4FF00003 		mov	r3, #0
 1616 0080 D7E1     		b	.L85
 1617              	.L82:
 1618              	.LBB2:
 304:.\speedcontrol.c ****     }
 305:.\speedcontrol.c ****     else {
 306:.\speedcontrol.c ****         // Dynamically update target speed if enabled
 307:.\speedcontrol.c ****         double dynamicTargetSpeed = targetSpeed;
 1619              		.loc 1 307 0
 1620 0082 40F20003 		movw	r3, #:lower16:targetSpeed
 1621 0086 C0F20003 		movt	r3, #:upper16:targetSpeed
 1622 008a D3E90023 		ldrd	r2, [r3]
 1623 008e C7E90223 		strd	r2, [r7, #8]
 308:.\speedcontrol.c ****         double distanceLeft = 0;
 1624              		.loc 1 308 0
 1625 0092 4FF00002 		mov	r2, #0
 1626 0096 4FF00003 		mov	r3, #0
 1627 009a C7E90423 		strd	r2, [r7, #16]
 309:.\speedcontrol.c ****         double timeLeft = 0;
 1628              		.loc 1 309 0
 1629 009e 4FF00002 		mov	r2, #0
 1630 00a2 4FF00003 		mov	r3, #0
 1631 00a6 C7E90623 		strd	r2, [r7, #24]
ARM GAS  C:\Users\bccho\AppData\Local\Temp\ccHbMFsA.s 			page 36


 310:.\speedcontrol.c ****         const double MAX_SPEED = targetSpeed * 2;
 1632              		.loc 1 310 0
 1633 00aa 40F20003 		movw	r3, #:lower16:targetSpeed
 1634 00ae C0F20003 		movt	r3, #:upper16:targetSpeed
 1635 00b2 D3E90023 		ldrd	r2, [r3]
 1636 00b6 1046     		mov	r0, r2
 1637 00b8 1946     		mov	r1, r3
 1638 00ba FFF7FEFF 		bl	__aeabi_dadd
 1639 00be 0246     		mov	r2, r0
 1640 00c0 0B46     		mov	r3, r1
 1641 00c2 C7E90823 		strd	r2, [r7, #32]
 311:.\speedcontrol.c ****         if (dynamicTargetSpeedUpdateOn) {
 1642              		.loc 1 311 0
 1643 00c6 40F20003 		movw	r3, #:lower16:dynamicTargetSpeedUpdateOn
 1644 00ca C0F20003 		movt	r3, #:upper16:dynamicTargetSpeedUpdateOn
 1645 00ce 1B68     		ldr	r3, [r3, #0]
 1646 00d0 002B     		cmp	r3, #0
 1647 00d2 7AD0     		beq	.L86
 312:.\speedcontrol.c ****             distanceLeft = targetDistance - totalDistance;
 1648              		.loc 1 312 0
 1649 00d4 40F20003 		movw	r3, #:lower16:targetDistance
 1650 00d8 C0F20003 		movt	r3, #:upper16:targetDistance
 1651 00dc D3E90001 		ldrd	r0, [r3]
 1652 00e0 40F20003 		movw	r3, #:lower16:totalDistance
 1653 00e4 C0F20003 		movt	r3, #:upper16:totalDistance
 1654 00e8 D3E90023 		ldrd	r2, [r3]
 1655 00ec FFF7FEFF 		bl	__aeabi_dsub
 1656 00f0 0246     		mov	r2, r0
 1657 00f2 0B46     		mov	r3, r1
 1658 00f4 C7E90423 		strd	r2, [r7, #16]
 313:.\speedcontrol.c ****             timeLeft = targetTime - elapsedTime;
 1659              		.loc 1 313 0
 1660 00f8 40F20003 		movw	r3, #:lower16:targetTime
 1661 00fc C0F20003 		movt	r3, #:upper16:targetTime
 1662 0100 D3E90001 		ldrd	r0, [r3]
 1663 0104 40F20003 		movw	r3, #:lower16:elapsedTime
 1664 0108 C0F20003 		movt	r3, #:upper16:elapsedTime
 1665 010c D3E90023 		ldrd	r2, [r3]
 1666 0110 FFF7FEFF 		bl	__aeabi_dsub
 1667 0114 0246     		mov	r2, r0
 1668 0116 0B46     		mov	r3, r1
 1669 0118 C7E90623 		strd	r2, [r7, #24]
 314:.\speedcontrol.c ****             if (distanceLeft > 0) {
 1670              		.loc 1 314 0
 1671 011c 4FF00003 		mov	r3, #0
 1672 0120 1C46     		mov	r4, r3
 1673 0122 D7E90401 		ldrd	r0, [r7, #16]
 1674 0126 4FF00002 		mov	r2, #0
 1675 012a 4FF00003 		mov	r3, #0
 1676 012e FFF7FEFF 		bl	__aeabi_dcmpgt
 1677 0132 0346     		mov	r3, r0
 1678 0134 002B     		cmp	r3, #0
 1679 0136 02D0     		beq	.L87
 1680              	.L88:
 1681 0138 4FF00103 		mov	r3, #1
 1682 013c 1C46     		mov	r4, r3
 1683              	.L87:
ARM GAS  C:\Users\bccho\AppData\Local\Temp\ccHbMFsA.s 			page 37


 1684 013e E3B2     		uxtb	r3, r4
 1685 0140 002B     		cmp	r3, #0
 1686 0142 42D0     		beq	.L86
 315:.\speedcontrol.c ****                 if (timeLeft <= 0) {
 1687              		.loc 1 315 0
 1688 0144 4FF00003 		mov	r3, #0
 1689 0148 1C46     		mov	r4, r3
 1690 014a D7E90601 		ldrd	r0, [r7, #24]
 1691 014e 4FF00002 		mov	r2, #0
 1692 0152 4FF00003 		mov	r3, #0
 1693 0156 FFF7FEFF 		bl	__aeabi_dcmple
 1694 015a 0346     		mov	r3, r0
 1695 015c 002B     		cmp	r3, #0
 1696 015e 02D0     		beq	.L89
 1697              	.L90:
 1698 0160 4FF00103 		mov	r3, #1
 1699 0164 1C46     		mov	r4, r3
 1700              	.L89:
 1701 0166 E3B2     		uxtb	r3, r4
 1702 0168 002B     		cmp	r3, #0
 1703 016a 04D0     		beq	.L91
 316:.\speedcontrol.c ****                     dynamicTargetSpeed = MAX_SPEED;
 1704              		.loc 1 316 0
 1705 016c D7E90823 		ldrd	r2, [r7, #32]
 1706 0170 C7E90223 		strd	r2, [r7, #8]
 1707 0174 29E0     		b	.L86
 1708              	.L91:
 317:.\speedcontrol.c ****                 } else {
 318:.\speedcontrol.c ****                     dynamicTargetSpeed = distanceLeft / timeLeft;
 1709              		.loc 1 318 0
 1710 0176 D7E90401 		ldrd	r0, [r7, #16]
 1711 017a D7E90623 		ldrd	r2, [r7, #24]
 1712 017e FFF7FEFF 		bl	__aeabi_ddiv
 1713 0182 0246     		mov	r2, r0
 1714 0184 0B46     		mov	r3, r1
 1715 0186 C7E90223 		strd	r2, [r7, #8]
 319:.\speedcontrol.c ****                     if (dynamicTargetSpeed > MAX_SPEED) dynamicTargetSpeed = targetSpeed * 2; // li
 1716              		.loc 1 319 0
 1717 018a 4FF00003 		mov	r3, #0
 1718 018e 1C46     		mov	r4, r3
 1719 0190 D7E90201 		ldrd	r0, [r7, #8]
 1720 0194 D7E90823 		ldrd	r2, [r7, #32]
 1721 0198 FFF7FEFF 		bl	__aeabi_dcmpgt
 1722 019c 0346     		mov	r3, r0
 1723 019e 002B     		cmp	r3, #0
 1724 01a0 02D0     		beq	.L92
 1725              	.L93:
 1726 01a2 4FF00103 		mov	r3, #1
 1727 01a6 1C46     		mov	r4, r3
 1728              	.L92:
 1729 01a8 E3B2     		uxtb	r3, r4
 1730 01aa 002B     		cmp	r3, #0
 1731 01ac 0DD0     		beq	.L86
 1732 01ae 40F20003 		movw	r3, #:lower16:targetSpeed
 1733 01b2 C0F20003 		movt	r3, #:upper16:targetSpeed
 1734 01b6 D3E90023 		ldrd	r2, [r3]
 1735 01ba 1046     		mov	r0, r2
ARM GAS  C:\Users\bccho\AppData\Local\Temp\ccHbMFsA.s 			page 38


 1736 01bc 1946     		mov	r1, r3
 1737 01be FFF7FEFF 		bl	__aeabi_dadd
 1738 01c2 0246     		mov	r2, r0
 1739 01c4 0B46     		mov	r3, r1
 1740 01c6 C7E90223 		strd	r2, [r7, #8]
 1741              	.L86:
 320:.\speedcontrol.c ****                 }
 321:.\speedcontrol.c ****             }
 322:.\speedcontrol.c ****         }
 323:.\speedcontrol.c **** 
 324:.\speedcontrol.c ****         // Calculate error
 325:.\speedcontrol.c ****         double error = dynamicTargetSpeed - speed;
 1742              		.loc 1 325 0
 1743 01ca D7E90201 		ldrd	r0, [r7, #8]
 1744 01ce D7E90023 		ldrd	r2, [r7]
 1745 01d2 FFF7FEFF 		bl	__aeabi_dsub
 1746 01d6 0246     		mov	r2, r0
 1747 01d8 0B46     		mov	r3, r1
 1748 01da C7E90A23 		strd	r2, [r7, #40]
 326:.\speedcontrol.c ****         bufSpeed[bufSpeedPos] = error;
 1749              		.loc 1 326 0
 1750 01de 40F20003 		movw	r3, #:lower16:bufSpeedPos
 1751 01e2 C0F20003 		movt	r3, #:upper16:bufSpeedPos
 1752 01e6 1A68     		ldr	r2, [r3, #0]
 1753 01e8 40F20003 		movw	r3, #:lower16:bufSpeed
 1754 01ec C0F20003 		movt	r3, #:upper16:bufSpeed
 1755 01f0 4FEAC202 		lsl	r2, r2, #3
 1756 01f4 02EB0301 		add	r1, r2, r3
 1757 01f8 D7E90A23 		ldrd	r2, [r7, #40]
 1758 01fc C1E90023 		strd	r2, [r1]
 327:.\speedcontrol.c ****         // Calculate derivative of error
 328:.\speedcontrol.c ****         double errorDerivative = (bufSpeed[bufSpeedPos] - bufSpeed[bufSpeedLastPos]) / (double) BUF
 1759              		.loc 1 328 0
 1760 0200 40F20003 		movw	r3, #:lower16:bufSpeedPos
 1761 0204 C0F20003 		movt	r3, #:upper16:bufSpeedPos
 1762 0208 1A68     		ldr	r2, [r3, #0]
 1763 020a 40F20003 		movw	r3, #:lower16:bufSpeed
 1764 020e C0F20003 		movt	r3, #:upper16:bufSpeed
 1765 0212 4FEAC202 		lsl	r2, r2, #3
 1766 0216 1344     		add	r3, r2, r3
 1767 0218 D3E90001 		ldrd	r0, [r3]
 1768 021c 40F20003 		movw	r3, #:lower16:bufSpeedLastPos
 1769 0220 C0F20003 		movt	r3, #:upper16:bufSpeedLastPos
 1770 0224 1A68     		ldr	r2, [r3, #0]
 1771 0226 40F20003 		movw	r3, #:lower16:bufSpeed
 1772 022a C0F20003 		movt	r3, #:upper16:bufSpeed
 1773 022e 4FEAC202 		lsl	r2, r2, #3
 1774 0232 1344     		add	r3, r2, r3
 1775 0234 D3E90023 		ldrd	r2, [r3]
 1776 0238 FFF7FEFF 		bl	__aeabi_dsub
 1777 023c 0246     		mov	r2, r0
 1778 023e 0B46     		mov	r3, r1
 1779 0240 1046     		mov	r0, r2
 1780 0242 1946     		mov	r1, r3
 1781 0244 4FF00002 		mov	r2, #0
 1782 0248 4FF08043 		mov	r3, #1073741824
 1783 024c 03F51013 		add	r3, r3, #2359296
ARM GAS  C:\Users\bccho\AppData\Local\Temp\ccHbMFsA.s 			page 39


 1784 0250 FFF7FEFF 		bl	__aeabi_ddiv
 1785 0254 0246     		mov	r2, r0
 1786 0256 0B46     		mov	r3, r1
 1787 0258 C7E90C23 		strd	r2, [r7, #48]
 329:.\speedcontrol.c ****         bufSpeedPos = (bufSpeedPos + 1) % BUF_SPEED_SIZE;
 1788              		.loc 1 329 0
 1789 025c 40F20003 		movw	r3, #:lower16:bufSpeedPos
 1790 0260 C0F20003 		movt	r3, #:upper16:bufSpeedPos
 1791 0264 1B68     		ldr	r3, [r3, #0]
 1792 0266 03F10101 		add	r1, r3, #1
 1793 026a 46F26763 		movw	r3, #:lower16:1717986919
 1794 026e C6F26663 		movt	r3, #:upper16:1717986919
 1795 0272 83FB0123 		smull	r2, r3, r3, r1
 1796 0276 4FEAA302 		asr	r2, r3, #2
 1797 027a 4FEAE173 		asr	r3, r1, #31
 1798 027e C3EB0202 		rsb	r2, r3, r2
 1799 0282 1346     		mov	r3, r2
 1800 0284 4FEA8303 		lsl	r3, r3, #2
 1801 0288 1344     		add	r3, r3, r2
 1802 028a 4FEA4303 		lsl	r3, r3, #1
 1803 028e C3EB0102 		rsb	r2, r3, r1
 1804 0292 40F20003 		movw	r3, #:lower16:bufSpeedPos
 1805 0296 C0F20003 		movt	r3, #:upper16:bufSpeedPos
 1806 029a 1A60     		str	r2, [r3, #0]
 330:.\speedcontrol.c ****         if (bufSpeedPos == bufSpeedLastPos) { // this gets activated when bufSpeedPos has made one 
 1807              		.loc 1 330 0
 1808 029c 40F20003 		movw	r3, #:lower16:bufSpeedPos
 1809 02a0 C0F20003 		movt	r3, #:upper16:bufSpeedPos
 1810 02a4 1A68     		ldr	r2, [r3, #0]
 1811 02a6 40F20003 		movw	r3, #:lower16:bufSpeedLastPos
 1812 02aa C0F20003 		movt	r3, #:upper16:bufSpeedLastPos
 1813 02ae 1B68     		ldr	r3, [r3, #0]
 1814 02b0 9A42     		cmp	r2, r3
 1815 02b2 1FD1     		bne	.L94
 331:.\speedcontrol.c ****             bufSpeedLastPos = (bufSpeedLastPos + 1) % BUF_SPEED_SIZE;
 1816              		.loc 1 331 0
 1817 02b4 40F20003 		movw	r3, #:lower16:bufSpeedLastPos
 1818 02b8 C0F20003 		movt	r3, #:upper16:bufSpeedLastPos
 1819 02bc 1B68     		ldr	r3, [r3, #0]
 1820 02be 03F10101 		add	r1, r3, #1
 1821 02c2 46F26763 		movw	r3, #:lower16:1717986919
 1822 02c6 C6F26663 		movt	r3, #:upper16:1717986919
 1823 02ca 83FB0123 		smull	r2, r3, r3, r1
 1824 02ce 4FEAA302 		asr	r2, r3, #2
 1825 02d2 4FEAE173 		asr	r3, r1, #31
 1826 02d6 C3EB0202 		rsb	r2, r3, r2
 1827 02da 1346     		mov	r3, r2
 1828 02dc 4FEA8303 		lsl	r3, r3, #2
 1829 02e0 1344     		add	r3, r3, r2
 1830 02e2 4FEA4303 		lsl	r3, r3, #1
 1831 02e6 C3EB0102 		rsb	r2, r3, r1
 1832 02ea 40F20003 		movw	r3, #:lower16:bufSpeedLastPos
 1833 02ee C0F20003 		movt	r3, #:upper16:bufSpeedLastPos
 1834 02f2 1A60     		str	r2, [r3, #0]
 1835              	.L94:
 332:.\speedcontrol.c ****         }
 333:.\speedcontrol.c ****         // Calculate integral of error
ARM GAS  C:\Users\bccho\AppData\Local\Temp\ccHbMFsA.s 			page 40


 334:.\speedcontrol.c ****         errorIntegral += error;
 1836              		.loc 1 334 0
 1837 02f4 40F20003 		movw	r3, #:lower16:errorIntegral
 1838 02f8 C0F20003 		movt	r3, #:upper16:errorIntegral
 1839 02fc D3E90023 		ldrd	r2, [r3]
 1840 0300 1046     		mov	r0, r2
 1841 0302 1946     		mov	r1, r3
 1842 0304 D7E90A23 		ldrd	r2, [r7, #40]
 1843 0308 FFF7FEFF 		bl	__aeabi_dadd
 1844 030c 0246     		mov	r2, r0
 1845 030e 0B46     		mov	r3, r1
 1846 0310 1046     		mov	r0, r2
 1847 0312 1946     		mov	r1, r3
 1848 0314 40F20003 		movw	r3, #:lower16:errorIntegral
 1849 0318 C0F20003 		movt	r3, #:upper16:errorIntegral
 1850 031c C3E90001 		strd	r0, [r3]
 335:.\speedcontrol.c ****         
 336:.\speedcontrol.c ****         // Calculate new throttle
 337:.\speedcontrol.c ****         int newThrottle = throttleSS + (int) (error * coeffP + errorIntegral * coeffI - errorDeriva
 1851              		.loc 1 337 0
 1852 0320 40F20003 		movw	r3, #:lower16:coeffP
 1853 0324 C0F20003 		movt	r3, #:upper16:coeffP
 1854 0328 D3E90023 		ldrd	r2, [r3]
 1855 032c 1046     		mov	r0, r2
 1856 032e 1946     		mov	r1, r3
 1857 0330 D7E90A23 		ldrd	r2, [r7, #40]
 1858 0334 FFF7FEFF 		bl	__aeabi_dmul
 1859 0338 0246     		mov	r2, r0
 1860 033a 0B46     		mov	r3, r1
 1861 033c 1446     		mov	r4, r2
 1862 033e 1D46     		mov	r5, r3
 1863 0340 40F20003 		movw	r3, #:lower16:errorIntegral
 1864 0344 C0F20003 		movt	r3, #:upper16:errorIntegral
 1865 0348 D3E90001 		ldrd	r0, [r3]
 1866 034c 40F20003 		movw	r3, #:lower16:coeffI
 1867 0350 C0F20003 		movt	r3, #:upper16:coeffI
 1868 0354 D3E90023 		ldrd	r2, [r3]
 1869 0358 FFF7FEFF 		bl	__aeabi_dmul
 1870 035c 0246     		mov	r2, r0
 1871 035e 0B46     		mov	r3, r1
 1872 0360 2046     		mov	r0, r4
 1873 0362 2946     		mov	r1, r5
 1874 0364 FFF7FEFF 		bl	__aeabi_dadd
 1875 0368 0246     		mov	r2, r0
 1876 036a 0B46     		mov	r3, r1
 1877 036c 1446     		mov	r4, r2
 1878 036e 1D46     		mov	r5, r3
 1879 0370 40F20003 		movw	r3, #:lower16:coeffD
 1880 0374 C0F20003 		movt	r3, #:upper16:coeffD
 1881 0378 D3E90023 		ldrd	r2, [r3]
 1882 037c 1046     		mov	r0, r2
 1883 037e 1946     		mov	r1, r3
 1884 0380 D7E90C23 		ldrd	r2, [r7, #48]
 1885 0384 FFF7FEFF 		bl	__aeabi_dmul
 1886 0388 0246     		mov	r2, r0
 1887 038a 0B46     		mov	r3, r1
 1888 038c 2046     		mov	r0, r4
ARM GAS  C:\Users\bccho\AppData\Local\Temp\ccHbMFsA.s 			page 41


 1889 038e 2946     		mov	r1, r5
 1890 0390 FFF7FEFF 		bl	__aeabi_dsub
 1891 0394 0246     		mov	r2, r0
 1892 0396 0B46     		mov	r3, r1
 1893 0398 1046     		mov	r0, r2
 1894 039a 1946     		mov	r1, r3
 1895 039c FFF7FEFF 		bl	__aeabi_d2iz
 1896 03a0 0246     		mov	r2, r0
 1897 03a2 40F20003 		movw	r3, #:lower16:throttleSS
 1898 03a6 C0F20003 		movt	r3, #:upper16:throttleSS
 1899 03aa 1B68     		ldr	r3, [r3, #0]
 1900 03ac 1344     		add	r3, r2, r3
 1901 03ae FB63     		str	r3, [r7, #60]
 338:.\speedcontrol.c ****         
 339:.\speedcontrol.c ****         if (verbosePrintoutOn) {
 1902              		.loc 1 339 0
 1903 03b0 40F20003 		movw	r3, #:lower16:verbosePrintoutOn
 1904 03b4 C0F20003 		movt	r3, #:upper16:verbosePrintoutOn
 1905 03b8 1B68     		ldr	r3, [r3, #0]
 1906 03ba 002B     		cmp	r3, #0
 1907 03bc 38D0     		beq	.L95
 340:.\speedcontrol.c ****             sprintf(strbuffer, "%3i, %6.2f, %6.2f, %6.2f, %8.5f, %6.2f | %6.2f, %6.2f, %6.2f\n", 
 1908              		.loc 1 340 0
 1909 03be 40F20003 		movw	r3, #:lower16:errorIntegral
 1910 03c2 C0F20003 		movt	r3, #:upper16:errorIntegral
 1911 03c6 D3E90001 		ldrd	r0, [r3]
 1912 03ca 40F20003 		movw	r3, #:lower16:totalDistance
 1913 03ce C0F20003 		movt	r3, #:upper16:totalDistance
 1914 03d2 D3E90023 		ldrd	r2, [r3]
 1915 03d6 D7E90045 		ldrd	r4, [r7]
 1916 03da CDE90045 		strd	r4, [sp]
 1917 03de D7E90A45 		ldrd	r4, [r7, #40]
 1918 03e2 CDE90245 		strd	r4, [sp, #8]
 1919 03e6 CDE90401 		strd	r0, [sp, #16]
 1920 03ea D7E90C01 		ldrd	r0, [r7, #48]
 1921 03ee CDE90601 		strd	r0, [sp, #24]
 1922 03f2 CDE90823 		strd	r2, [sp, #32]
 1923 03f6 D7E90223 		ldrd	r2, [r7, #8]
 1924 03fa CDE90A23 		strd	r2, [sp, #40]
 1925 03fe D7E90423 		ldrd	r2, [r7, #16]
 1926 0402 CDE90C23 		strd	r2, [sp, #48]
 1927 0406 D7E90623 		ldrd	r2, [r7, #24]
 1928 040a CDE90E23 		strd	r2, [sp, #56]
 1929 040e 40F20000 		movw	r0, #:lower16:strbuffer
 1930 0412 C0F20000 		movt	r0, #:upper16:strbuffer
 1931 0416 40F20001 		movw	r1, #:lower16:.LC6
 1932 041a C0F20001 		movt	r1, #:upper16:.LC6
 1933 041e FA6B     		ldr	r2, [r7, #60]
 1934 0420 FFF7FEFF 		bl	sprintf
 341:.\speedcontrol.c ****                     newThrottle, speed, error, errorIntegral, errorDerivative, totalDistance, dynam
 342:.\speedcontrol.c ****             UART_PutString(strbuffer);
 1935              		.loc 1 342 0
 1936 0424 40F20000 		movw	r0, #:lower16:strbuffer
 1937 0428 C0F20000 		movt	r0, #:upper16:strbuffer
 1938 042c FFF7FEFF 		bl	UART_PutString
 1939              	.L95:
 343:.\speedcontrol.c ****         }
ARM GAS  C:\Users\bccho\AppData\Local\Temp\ccHbMFsA.s 			page 42


 344:.\speedcontrol.c ****         
 345:.\speedcontrol.c ****         return newThrottle;
 1940              		.loc 1 345 0
 1941 0430 FB6B     		ldr	r3, [r7, #60]
 1942              	.L85:
 1943              	.LBE2:
 346:.\speedcontrol.c ****     }
 347:.\speedcontrol.c **** }
 1944              		.loc 1 347 0
 1945 0432 1846     		mov	r0, r3
 1946 0434 07F14007 		add	r7, r7, #64
 1947 0438 BD46     		mov	sp, r7
 1948 043a B0BD     		pop	{r4, r5, r7, pc}
 1949              		.cfi_endproc
 1950              	.LFE62:
 1951              		.size	controlThrottle, .-controlThrottle
 1952              		.section	.rodata
 1953 018a 0000     		.align	2
 1954              	.LC7:
 1955 018c 50494420 		.ascii	"PID and throttle killed\012\000"
 1955      616E6420 
 1955      7468726F 
 1955      74746C65 
 1955      206B696C 
 1956              		.section	.text.killAll,"ax",%progbits
 1957              		.align	2
 1958              		.thumb
 1959              		.thumb_func
 1960              		.type	killAll, %function
 1961              	killAll:
 1962              	.LFB63:
 348:.\speedcontrol.c **** 
 349:.\speedcontrol.c **** 
 350:.\speedcontrol.c **** /* Turns off throttle and PID */
 351:.\speedcontrol.c **** static void killAll() {
 1963              		.loc 1 351 0
 1964              		.cfi_startproc
 1965              		@ args = 0, pretend = 0, frame = 0
 1966              		@ frame_needed = 1, uses_anonymous_args = 0
 1967 0000 80B5     		push	{r7, lr}
 1968              	.LCFI77:
 1969              		.cfi_def_cfa_offset 8
 1970 0002 00AF     		add	r7, sp, #0
 1971              		.cfi_offset 14, -4
 1972              		.cfi_offset 7, -8
 1973              	.LCFI78:
 1974              		.cfi_def_cfa_register 7
 352:.\speedcontrol.c ****     setThrottle(0);
 1975              		.loc 1 352 0
 1976 0004 4FF00000 		mov	r0, #0
 1977 0008 FFF7FEFF 		bl	setThrottle
 353:.\speedcontrol.c ****     throttlePIDon = 0;
 1978              		.loc 1 353 0
 1979 000c 40F20003 		movw	r3, #:lower16:throttlePIDon
 1980 0010 C0F20003 		movt	r3, #:upper16:throttlePIDon
 1981 0014 4FF00002 		mov	r2, #0
 1982 0018 1A60     		str	r2, [r3, #0]
ARM GAS  C:\Users\bccho\AppData\Local\Temp\ccHbMFsA.s 			page 43


 354:.\speedcontrol.c ****     UART_PutString("PID and throttle killed\n");
 1983              		.loc 1 354 0
 1984 001a 40F20000 		movw	r0, #:lower16:.LC7
 1985 001e C0F20000 		movt	r0, #:upper16:.LC7
 1986 0022 FFF7FEFF 		bl	UART_PutString
 355:.\speedcontrol.c **** }
 1987              		.loc 1 355 0
 1988 0026 80BD     		pop	{r7, pc}
 1989              		.cfi_endproc
 1990              	.LFE63:
 1991              		.size	killAll, .-killAll
 1992              		.section	.rodata
 1993 01a5 000000   		.align	2
 1994              	.LC8:
 1995 01a8 25336900 		.ascii	"%3i\000"
 1996 01ac 00000000 		.section	.text.setThrottle,"ax",%progbits
 1997              		.align	2
 1998              		.thumb
 1999              		.thumb_func
 2000              		.type	setThrottle, %function
 2001              	setThrottle:
 2002              	.LFB64:
 356:.\speedcontrol.c **** 
 357:.\speedcontrol.c **** 
 358:.\speedcontrol.c **** /* Takes an integer between 0 and MAX_THROTTLE and
 359:.\speedcontrol.c ****  * sets the motor PWM output to that value */
 360:.\speedcontrol.c **** static void setThrottle(int thr) {
 2003              		.loc 1 360 0
 2004              		.cfi_startproc
 2005              		@ args = 0, pretend = 0, frame = 16
 2006              		@ frame_needed = 1, uses_anonymous_args = 0
 2007 0000 80B5     		push	{r7, lr}
 2008              	.LCFI79:
 2009              		.cfi_def_cfa_offset 8
 2010 0002 84B0     		sub	sp, sp, #16
 2011              	.LCFI80:
 2012              		.cfi_def_cfa_offset 24
 2013 0004 00AF     		add	r7, sp, #0
 2014              		.cfi_offset 14, -4
 2015              		.cfi_offset 7, -8
 2016              	.LCFI81:
 2017              		.cfi_def_cfa_register 7
 2018 0006 7860     		str	r0, [r7, #4]
 361:.\speedcontrol.c ****     if (thr < 0)
 2019              		.loc 1 361 0
 2020 0008 7B68     		ldr	r3, [r7, #4]
 2021 000a 002B     		cmp	r3, #0
 2022 000c 02DA     		bge	.L100
 362:.\speedcontrol.c ****         thr = 0;
 2023              		.loc 1 362 0
 2024 000e 4FF00003 		mov	r3, #0
 2025 0012 7B60     		str	r3, [r7, #4]
 2026              	.L100:
 363:.\speedcontrol.c ****     if (thr > MAX_THROTTLE)
 2027              		.loc 1 363 0
 2028 0014 40F20003 		movw	r3, #:lower16:MAX_THROTTLE
 2029 0018 C0F20003 		movt	r3, #:upper16:MAX_THROTTLE
ARM GAS  C:\Users\bccho\AppData\Local\Temp\ccHbMFsA.s 			page 44


 2030 001c 1B68     		ldr	r3, [r3, #0]
 2031 001e 7A68     		ldr	r2, [r7, #4]
 2032 0020 9A42     		cmp	r2, r3
 2033 0022 05DD     		ble	.L101
 364:.\speedcontrol.c ****         thr = MAX_THROTTLE;
 2034              		.loc 1 364 0
 2035 0024 40F20003 		movw	r3, #:lower16:MAX_THROTTLE
 2036 0028 C0F20003 		movt	r3, #:upper16:MAX_THROTTLE
 2037 002c 1B68     		ldr	r3, [r3, #0]
 2038 002e 7B60     		str	r3, [r7, #4]
 2039              	.L101:
 365:.\speedcontrol.c ****     
 366:.\speedcontrol.c ****     throttle = thr;
 2040              		.loc 1 366 0
 2041 0030 40F20003 		movw	r3, #:lower16:throttle
 2042 0034 C0F20003 		movt	r3, #:upper16:throttle
 2043 0038 7A68     		ldr	r2, [r7, #4]
 2044 003a 1A60     		str	r2, [r3, #0]
 367:.\speedcontrol.c ****     
 368:.\speedcontrol.c ****     PWM_Motor_WriteCompare(throttle);
 2045              		.loc 1 368 0
 2046 003c 40F20003 		movw	r3, #:lower16:throttle
 2047 0040 C0F20003 		movt	r3, #:upper16:throttle
 2048 0044 1B68     		ldr	r3, [r3, #0]
 2049 0046 9BB2     		uxth	r3, r3
 2050 0048 1846     		mov	r0, r3
 2051 004a FFF7FEFF 		bl	PWM_Motor_WriteCompare
 369:.\speedcontrol.c ****     
 370:.\speedcontrol.c ****     LCD_Position(1,0);
 2052              		.loc 1 370 0
 2053 004e 4FF00100 		mov	r0, #1
 2054 0052 4FF00001 		mov	r1, #0
 2055 0056 FFF7FEFF 		bl	LCD_Position
 371:.\speedcontrol.c ****     char lcdbuffer[4];
 372:.\speedcontrol.c ****     sprintf(lcdbuffer, "%3i", throttle);
 2056              		.loc 1 372 0
 2057 005a 40F20003 		movw	r3, #:lower16:throttle
 2058 005e C0F20003 		movt	r3, #:upper16:throttle
 2059 0062 1B68     		ldr	r3, [r3, #0]
 2060 0064 07F10C02 		add	r2, r7, #12
 2061 0068 1046     		mov	r0, r2
 2062 006a 40F20001 		movw	r1, #:lower16:.LC8
 2063 006e C0F20001 		movt	r1, #:upper16:.LC8
 2064 0072 1A46     		mov	r2, r3
 2065 0074 FFF7FEFF 		bl	sprintf
 373:.\speedcontrol.c ****     LCD_PrintString(lcdbuffer);
 2066              		.loc 1 373 0
 2067 0078 07F10C03 		add	r3, r7, #12
 2068 007c 1846     		mov	r0, r3
 2069 007e FFF7FEFF 		bl	LCD_PrintString
 374:.\speedcontrol.c **** }
 2070              		.loc 1 374 0
 2071 0082 07F11007 		add	r7, r7, #16
 2072 0086 BD46     		mov	sp, r7
 2073 0088 80BD     		pop	{r7, pc}
 2074              		.cfi_endproc
 2075              	.LFE64:
ARM GAS  C:\Users\bccho\AppData\Local\Temp\ccHbMFsA.s 			page 45


 2076              		.size	setThrottle, .-setThrottle
 2077 008a 00BF     		.section	.text.getSpeed,"ax",%progbits
 2078              		.align	2
 2079              		.thumb
 2080              		.thumb_func
 2081              		.type	getSpeed, %function
 2082              	getSpeed:
 2083              	.LFB65:
 375:.\speedcontrol.c **** 
 376:.\speedcontrol.c **** 
 377:.\speedcontrol.c **** /* Returns average speed (in ft/sec) over the last BUF_WHEEL_TICK_SIZE ticks */
 378:.\speedcontrol.c **** static double getSpeed() {
 2084              		.loc 1 378 0
 2085              		.cfi_startproc
 2086              		@ args = 0, pretend = 0, frame = 40
 2087              		@ frame_needed = 1, uses_anonymous_args = 0
 2088 0000 80B5     		push	{r7, lr}
 2089              	.LCFI82:
 2090              		.cfi_def_cfa_offset 8
 2091 0002 8AB0     		sub	sp, sp, #40
 2092              	.LCFI83:
 2093              		.cfi_def_cfa_offset 48
 2094 0004 00AF     		add	r7, sp, #0
 2095              		.cfi_offset 14, -4
 2096              		.cfi_offset 7, -8
 2097              	.LCFI84:
 2098              		.cfi_def_cfa_register 7
 379:.\speedcontrol.c ****     double cumSum = 0;
 2099              		.loc 1 379 0
 2100 0006 4FF00002 		mov	r2, #0
 2101 000a 4FF00003 		mov	r3, #0
 2102 000e C7E90023 		strd	r2, [r7]
 380:.\speedcontrol.c ****     int i;
 381:.\speedcontrol.c ****     if (bufWheelTickCurSize == 0) return 0;
 2103              		.loc 1 381 0
 2104 0012 40F20003 		movw	r3, #:lower16:bufWheelTickCurSize
 2105 0016 C0F20003 		movt	r3, #:upper16:bufWheelTickCurSize
 2106 001a 1B68     		ldr	r3, [r3, #0]
 2107 001c 002B     		cmp	r3, #0
 2108 001e 04D1     		bne	.L104
 2109 0020 4FF00002 		mov	r2, #0
 2110 0024 4FF00003 		mov	r3, #0
 2111 0028 74E0     		b	.L105
 2112              	.L104:
 382:.\speedcontrol.c ****     for (i = 0; i < BUF_WHEEL_TICK_SIZE; i++) {
 2113              		.loc 1 382 0
 2114 002a 4FF00003 		mov	r3, #0
 2115 002e FB60     		str	r3, [r7, #12]
 2116 0030 17E0     		b	.L106
 2117              	.L107:
 383:.\speedcontrol.c ****         cumSum += (double) bufWheelTick[i];
 2118              		.loc 1 383 0
 2119 0032 FA68     		ldr	r2, [r7, #12]
 2120 0034 40F20003 		movw	r3, #:lower16:bufWheelTick
 2121 0038 C0F20003 		movt	r3, #:upper16:bufWheelTick
 2122 003c 53F82230 		ldr	r3, [r3, r2, lsl #2]
 2123 0040 1846     		mov	r0, r3
ARM GAS  C:\Users\bccho\AppData\Local\Temp\ccHbMFsA.s 			page 46


 2124 0042 FFF7FEFF 		bl	__aeabi_i2d
 2125 0046 0246     		mov	r2, r0
 2126 0048 0B46     		mov	r3, r1
 2127 004a D7E90001 		ldrd	r0, [r7]
 2128 004e FFF7FEFF 		bl	__aeabi_dadd
 2129 0052 0246     		mov	r2, r0
 2130 0054 0B46     		mov	r3, r1
 2131 0056 C7E90023 		strd	r2, [r7]
 2132              		.loc 1 382 0
 2133 005a FB68     		ldr	r3, [r7, #12]
 2134 005c 03F10103 		add	r3, r3, #1
 2135 0060 FB60     		str	r3, [r7, #12]
 2136              	.L106:
 2137 0062 FB68     		ldr	r3, [r7, #12]
 2138 0064 022B     		cmp	r3, #2
 2139 0066 E4DD     		ble	.L107
 384:.\speedcontrol.c ****     }
 385:.\speedcontrol.c ****     double averageCount = cumSum / bufWheelTickCurSize;
 2140              		.loc 1 385 0
 2141 0068 40F20003 		movw	r3, #:lower16:bufWheelTickCurSize
 2142 006c C0F20003 		movt	r3, #:upper16:bufWheelTickCurSize
 2143 0070 1B68     		ldr	r3, [r3, #0]
 2144 0072 1846     		mov	r0, r3
 2145 0074 FFF7FEFF 		bl	__aeabi_i2d
 2146 0078 0246     		mov	r2, r0
 2147 007a 0B46     		mov	r3, r1
 2148 007c D7E90001 		ldrd	r0, [r7]
 2149 0080 FFF7FEFF 		bl	__aeabi_ddiv
 2150 0084 0246     		mov	r2, r0
 2151 0086 0B46     		mov	r3, r1
 2152 0088 C7E90423 		strd	r2, [r7, #16]
 386:.\speedcontrol.c ****     double ticksPerSec = CLK_FREQ / averageCount;
 2153              		.loc 1 386 0
 2154 008c 40F20003 		movw	r3, #:lower16:CLK_FREQ
 2155 0090 C0F20003 		movt	r3, #:upper16:CLK_FREQ
 2156 0094 1B68     		ldr	r3, [r3, #0]
 2157 0096 1846     		mov	r0, r3
 2158 0098 FFF7FEFF 		bl	__aeabi_i2d
 2159 009c 0246     		mov	r2, r0
 2160 009e 0B46     		mov	r3, r1
 2161 00a0 1046     		mov	r0, r2
 2162 00a2 1946     		mov	r1, r3
 2163 00a4 D7E90423 		ldrd	r2, [r7, #16]
 2164 00a8 FFF7FEFF 		bl	__aeabi_ddiv
 2165 00ac 0246     		mov	r2, r0
 2166 00ae 0B46     		mov	r3, r1
 2167 00b0 C7E90623 		strd	r2, [r7, #24]
 387:.\speedcontrol.c ****     double speed = ticksPerSec * ((M_PI * WHEEL_DIAM) / 5) * (1.0/12.0);
 2168              		.loc 1 387 0
 2169 00b4 40F20003 		movw	r3, #:lower16:WHEEL_DIAM
 2170 00b8 C0F20003 		movt	r3, #:upper16:WHEEL_DIAM
 2171 00bc D3E90023 		ldrd	r2, [r3]
 2172 00c0 1046     		mov	r0, r2
 2173 00c2 1946     		mov	r1, r3
 2174 00c4 16A3     		adr	r3, .L109
 2175 00c6 D3E90023 		ldrd	r2, [r3]
 2176 00ca FFF7FEFF 		bl	__aeabi_dmul
ARM GAS  C:\Users\bccho\AppData\Local\Temp\ccHbMFsA.s 			page 47


 2177 00ce 0246     		mov	r2, r0
 2178 00d0 0B46     		mov	r3, r1
 2179 00d2 1046     		mov	r0, r2
 2180 00d4 1946     		mov	r1, r3
 2181 00d6 4FF00002 		mov	r2, #0
 2182 00da 4FF08043 		mov	r3, #1073741824
 2183 00de 03F5A013 		add	r3, r3, #1310720
 2184 00e2 FFF7FEFF 		bl	__aeabi_ddiv
 2185 00e6 0246     		mov	r2, r0
 2186 00e8 0B46     		mov	r3, r1
 2187 00ea 1046     		mov	r0, r2
 2188 00ec 1946     		mov	r1, r3
 2189 00ee D7E90623 		ldrd	r2, [r7, #24]
 2190 00f2 FFF7FEFF 		bl	__aeabi_dmul
 2191 00f6 0246     		mov	r2, r0
 2192 00f8 0B46     		mov	r3, r1
 2193 00fa 1046     		mov	r0, r2
 2194 00fc 1946     		mov	r1, r3
 2195 00fe 0AA3     		adr	r3, .L109+8
 2196 0100 D3E90023 		ldrd	r2, [r3]
 2197 0104 FFF7FEFF 		bl	__aeabi_dmul
 2198 0108 0246     		mov	r2, r0
 2199 010a 0B46     		mov	r3, r1
 2200 010c C7E90823 		strd	r2, [r7, #32]
 388:.\speedcontrol.c ****     
 389:.\speedcontrol.c ****     return speed;
 2201              		.loc 1 389 0
 2202 0110 D7E90823 		ldrd	r2, [r7, #32]
 2203              	.L105:
 390:.\speedcontrol.c **** }
 2204              		.loc 1 390 0
 2205 0114 1046     		mov	r0, r2
 2206 0116 1946     		mov	r1, r3
 2207 0118 07F12807 		add	r7, r7, #40
 2208 011c BD46     		mov	sp, r7
 2209 011e 80BD     		pop	{r7, pc}
 2210              	.L110:
 2211              		.align	3
 2212              	.L109:
 2213 0120 182D4454 		.word	1413754136
 2214 0124 FB210940 		.word	1074340347
 2215 0128 55555555 		.word	1431655765
 2216 012c 5555B53F 		.word	1068848469
 2217              		.cfi_endproc
 2218              	.LFE65:
 2219              		.size	getSpeed, .-getSpeed
 2220              		.section	.text.resetSpeedTracking,"ax",%progbits
 2221              		.align	2
 2222              		.thumb
 2223              		.thumb_func
 2224              		.type	resetSpeedTracking, %function
 2225              	resetSpeedTracking:
 2226              	.LFB66:
 391:.\speedcontrol.c **** 
 392:.\speedcontrol.c **** /* Resets tick buffer */
 393:.\speedcontrol.c **** static void resetSpeedTracking() {
 2227              		.loc 1 393 0
ARM GAS  C:\Users\bccho\AppData\Local\Temp\ccHbMFsA.s 			page 48


 2228              		.cfi_startproc
 2229              		@ args = 0, pretend = 0, frame = 8
 2230              		@ frame_needed = 1, uses_anonymous_args = 0
 2231              		@ link register save eliminated.
 2232 0000 80B4     		push	{r7}
 2233              	.LCFI85:
 2234              		.cfi_def_cfa_offset 4
 2235 0002 83B0     		sub	sp, sp, #12
 2236              	.LCFI86:
 2237              		.cfi_def_cfa_offset 16
 2238 0004 00AF     		add	r7, sp, #0
 2239              		.cfi_offset 7, -4
 2240              	.LCFI87:
 2241              		.cfi_def_cfa_register 7
 394:.\speedcontrol.c ****     // Clear wheel tick buffer
 395:.\speedcontrol.c ****     bufWheelTickPos = 0;
 2242              		.loc 1 395 0
 2243 0006 40F20003 		movw	r3, #:lower16:bufWheelTickPos
 2244 000a C0F20003 		movt	r3, #:upper16:bufWheelTickPos
 2245 000e 4FF00002 		mov	r2, #0
 2246 0012 1A60     		str	r2, [r3, #0]
 396:.\speedcontrol.c ****     bufWheelTickCurSize = 0;
 2247              		.loc 1 396 0
 2248 0014 40F20003 		movw	r3, #:lower16:bufWheelTickCurSize
 2249 0018 C0F20003 		movt	r3, #:upper16:bufWheelTickCurSize
 2250 001c 4FF00002 		mov	r2, #0
 2251 0020 1A60     		str	r2, [r3, #0]
 397:.\speedcontrol.c ****     int i;
 398:.\speedcontrol.c ****     for (i = 0; i < BUF_WHEEL_TICK_SIZE; i++) bufWheelTick[i] = 0;
 2252              		.loc 1 398 0
 2253 0022 4FF00003 		mov	r3, #0
 2254 0026 7B60     		str	r3, [r7, #4]
 2255 0028 0CE0     		b	.L112
 2256              	.L113:
 2257 002a 7A68     		ldr	r2, [r7, #4]
 2258 002c 40F20003 		movw	r3, #:lower16:bufWheelTick
 2259 0030 C0F20003 		movt	r3, #:upper16:bufWheelTick
 2260 0034 4FF00001 		mov	r1, #0
 2261 0038 43F82210 		str	r1, [r3, r2, lsl #2]
 2262 003c 7B68     		ldr	r3, [r7, #4]
 2263 003e 03F10103 		add	r3, r3, #1
 2264 0042 7B60     		str	r3, [r7, #4]
 2265              	.L112:
 2266 0044 7B68     		ldr	r3, [r7, #4]
 2267 0046 022B     		cmp	r3, #2
 2268 0048 EFDD     		ble	.L113
 399:.\speedcontrol.c **** }
 2269              		.loc 1 399 0
 2270 004a 07F10C07 		add	r7, r7, #12
 2271 004e BD46     		mov	sp, r7
 2272 0050 80BC     		pop	{r7}
 2273 0052 7047     		bx	lr
 2274              		.cfi_endproc
 2275              	.LFE66:
 2276              		.size	resetSpeedTracking, .-resetSpeedTracking
 2277              		.section	.text.resetDerivativeTracking,"ax",%progbits
 2278              		.align	2
ARM GAS  C:\Users\bccho\AppData\Local\Temp\ccHbMFsA.s 			page 49


 2279              		.thumb
 2280              		.thumb_func
 2281              		.type	resetDerivativeTracking, %function
 2282              	resetDerivativeTracking:
 2283              	.LFB67:
 400:.\speedcontrol.c **** 
 401:.\speedcontrol.c **** 
 402:.\speedcontrol.c **** /* Resets speed error buffer */
 403:.\speedcontrol.c **** static void resetDerivativeTracking() {
 2284              		.loc 1 403 0
 2285              		.cfi_startproc
 2286              		@ args = 0, pretend = 0, frame = 8
 2287              		@ frame_needed = 1, uses_anonymous_args = 0
 2288              		@ link register save eliminated.
 2289 0000 80B4     		push	{r7}
 2290              	.LCFI88:
 2291              		.cfi_def_cfa_offset 4
 2292 0002 83B0     		sub	sp, sp, #12
 2293              	.LCFI89:
 2294              		.cfi_def_cfa_offset 16
 2295 0004 00AF     		add	r7, sp, #0
 2296              		.cfi_offset 7, -4
 2297              	.LCFI90:
 2298              		.cfi_def_cfa_register 7
 404:.\speedcontrol.c ****     // Clear speed buffer
 405:.\speedcontrol.c ****     bufSpeedPos = 0;
 2299              		.loc 1 405 0
 2300 0006 40F20003 		movw	r3, #:lower16:bufSpeedPos
 2301 000a C0F20003 		movt	r3, #:upper16:bufSpeedPos
 2302 000e 4FF00002 		mov	r2, #0
 2303 0012 1A60     		str	r2, [r3, #0]
 406:.\speedcontrol.c ****     bufSpeedLastPos = 0;
 2304              		.loc 1 406 0
 2305 0014 40F20003 		movw	r3, #:lower16:bufSpeedLastPos
 2306 0018 C0F20003 		movt	r3, #:upper16:bufSpeedLastPos
 2307 001c 4FF00002 		mov	r2, #0
 2308 0020 1A60     		str	r2, [r3, #0]
 407:.\speedcontrol.c ****     int i;
 408:.\speedcontrol.c ****     for (i = 0; i < BUF_SPEED_SIZE; i++) bufSpeed[i] = 0.0;
 2309              		.loc 1 408 0
 2310 0022 4FF00003 		mov	r3, #0
 2311 0026 7B60     		str	r3, [r7, #4]
 2312 0028 12E0     		b	.L116
 2313              	.L117:
 2314 002a 7A68     		ldr	r2, [r7, #4]
 2315 002c 40F20003 		movw	r3, #:lower16:bufSpeed
 2316 0030 C0F20003 		movt	r3, #:upper16:bufSpeed
 2317 0034 4FEAC202 		lsl	r2, r2, #3
 2318 0038 02EB0301 		add	r1, r2, r3
 2319 003c 4FF00002 		mov	r2, #0
 2320 0040 4FF00003 		mov	r3, #0
 2321 0044 C1E90023 		strd	r2, [r1]
 2322 0048 7B68     		ldr	r3, [r7, #4]
 2323 004a 03F10103 		add	r3, r3, #1
 2324 004e 7B60     		str	r3, [r7, #4]
 2325              	.L116:
 2326 0050 7B68     		ldr	r3, [r7, #4]
ARM GAS  C:\Users\bccho\AppData\Local\Temp\ccHbMFsA.s 			page 50


 2327 0052 092B     		cmp	r3, #9
 2328 0054 E9DD     		ble	.L117
 409:.\speedcontrol.c **** }
 2329              		.loc 1 409 0
 2330 0056 07F10C07 		add	r7, r7, #12
 2331 005a BD46     		mov	sp, r7
 2332 005c 80BC     		pop	{r7}
 2333 005e 7047     		bx	lr
 2334              		.cfi_endproc
 2335              	.LFE67:
 2336              		.size	resetDerivativeTracking, .-resetDerivativeTracking
 2337              		.section	.text.resetIntegralTracking,"ax",%progbits
 2338              		.align	2
 2339              		.thumb
 2340              		.thumb_func
 2341              		.type	resetIntegralTracking, %function
 2342              	resetIntegralTracking:
 2343              	.LFB68:
 410:.\speedcontrol.c **** 
 411:.\speedcontrol.c **** 
 412:.\speedcontrol.c **** /* Resets integral term */
 413:.\speedcontrol.c **** static void resetIntegralTracking() {
 2344              		.loc 1 413 0
 2345              		.cfi_startproc
 2346              		@ args = 0, pretend = 0, frame = 0
 2347              		@ frame_needed = 1, uses_anonymous_args = 0
 2348              		@ link register save eliminated.
 2349 0000 80B4     		push	{r7}
 2350              	.LCFI91:
 2351              		.cfi_def_cfa_offset 4
 2352 0002 00AF     		add	r7, sp, #0
 2353              		.cfi_offset 7, -4
 2354              	.LCFI92:
 2355              		.cfi_def_cfa_register 7
 414:.\speedcontrol.c ****     // Reset integral term
 415:.\speedcontrol.c ****     errorIntegral = 0.0;
 2356              		.loc 1 415 0
 2357 0004 40F20003 		movw	r3, #:lower16:errorIntegral
 2358 0008 C0F20003 		movt	r3, #:upper16:errorIntegral
 2359 000c 4FF00000 		mov	r0, #0
 2360 0010 4FF00001 		mov	r1, #0
 2361 0014 C3E90001 		strd	r0, [r3]
 416:.\speedcontrol.c **** }
 2362              		.loc 1 416 0
 2363 0018 BD46     		mov	sp, r7
 2364 001a 80BC     		pop	{r7}
 2365 001c 7047     		bx	lr
 2366              		.cfi_endproc
 2367              	.LFE68:
 2368              		.size	resetIntegralTracking, .-resetIntegralTracking
 2369 001e 00BF     		.text
 2370              	.Letext0: