ARM GAS  C:\Users\bccho\AppData\Local\Temp\ccHbMFsA.s 			page 1


   1              		.syntax unified
   2              		.cpu cortex-m3
   3              		.fpu softvfp
   4              		.eabi_attribute 20, 1
   5              		.eabi_attribute 21, 1
   6              		.eabi_attribute 23, 3
   7              		.eabi_attribute 24, 1
   8              		.eabi_attribute 25, 1
   9              		.eabi_attribute 26, 1
  10              		.eabi_attribute 30, 6
  11              		.eabi_attribute 18, 4
  12              		.thumb
  13              		.file	"speedcontrol.c"
  14              		.section	.debug_abbrev,"",%progbits
  15              	.Ldebug_abbrev0:
  16              		.section	.debug_info,"",%progbits
  17              	.Ldebug_info0:
  18              		.section	.debug_line,"",%progbits
  19              	.Ldebug_line0:
  20 0000 92030000 		.text
  20      02004E00 
  20      00000201 
  20      FB0E0D00 
  20      01010101 
  21              	.Ltext0:
  22              		.cfi_sections	.debug_frame
  23              		.bss
  24              		.align	2
  25              	strbuffer:
  26 0000 00000000 		.space	100
  26      00000000 
  26      00000000 
  26      00000000 
  26      00000000 
  27              		.section	.rodata
  28              		.align	2
  29              		.type	MAX_THROTTLE, %object
  30              		.size	MAX_THROTTLE, 4
  31              	MAX_THROTTLE:
  32 0000 E7030000 		.word	999
  33              		.global	throttle
  34              		.bss
  35              		.align	2
  36              		.type	throttle, %object
  37              		.size	throttle, 4
  38              	throttle:
  39 0064 00000000 		.space	4
  40              		.section	.rodata
  41              		.align	2
  42              		.type	TICK_TIMER_PERIOD, %object
  43              		.size	TICK_TIMER_PERIOD, 4
  44              	TICK_TIMER_PERIOD:
  45 0004 00000100 		.word	65536
  46              		.comm	bufWheelTick,12,4
  47              		.global	bufWheelTickPos
  48              		.bss
  49              		.align	2
ARM GAS  C:\Users\bccho\AppData\Local\Temp\ccHbMFsA.s 			page 2


  50              		.type	bufWheelTickPos, %object
  51              		.size	bufWheelTickPos, 4
  52              	bufWheelTickPos:
  53 0068 00000000 		.space	4
  54              		.global	bufWheelTickCurSize
  55              		.align	2
  56              		.type	bufWheelTickCurSize, %object
  57              		.size	bufWheelTickCurSize, 4
  58              	bufWheelTickCurSize:
  59 006c 00000000 		.space	4
  60              		.global	oldTickCount
  61              		.align	2
  62              		.type	oldTickCount, %object
  63              		.size	oldTickCount, 4
  64              	oldTickCount:
  65 0070 00000000 		.space	4
  66              		.section	.rodata
  67              		.align	2
  68              		.type	CLK_FREQ, %object
  69              		.size	CLK_FREQ, 4
  70              	CLK_FREQ:
  71 0008 A0860100 		.word	100000
  72 000c 00000000 		.align	3
  73              		.type	WHEEL_DIAM, %object
  74              		.size	WHEEL_DIAM, 8
  75              	WHEEL_DIAM:
  76 0010 48E17A14 		.word	343597384
  77 0014 AE470340 		.word	1073956782
  78              		.bss
  79 0074 00000000 		.align	3
  80              	totalDistance:
  81 0078 00000000 		.space	8
  81      00000000 
  82              		.section	.rodata
  83              		.align	2
  84              		.type	PID_TIMER_PERIOD, %object
  85              		.size	PID_TIMER_PERIOD, 4
  86              	PID_TIMER_PERIOD:
  87 0018 10270000 		.word	10000
  88              		.bss
  89              		.align	3
  90              	elapsedTime:
  91 0080 00000000 		.space	8
  91      00000000 
  92              		.align	3
  93              	bufSpeed:
  94 0088 00000000 		.space	80
  94      00000000 
  94      00000000 
  94      00000000 
  94      00000000 
  95              		.align	2
  96              	bufSpeedPos:
  97 00d8 00000000 		.space	4
  98              		.align	2
  99              	bufSpeedLastPos:
 100 00dc 00000000 		.space	4
ARM GAS  C:\Users\bccho\AppData\Local\Temp\ccHbMFsA.s 			page 3


 101              		.align	3
 102              	errorIntegral:
 103 00e0 00000000 		.space	8
 103      00000000 
 104              		.align	2
 105              	throttlePIDon:
 106 00e8 00000000 		.space	4
 107              		.align	2
 108              	distanceTimeoutOn:
 109 00ec 00000000 		.space	4
 110              		.align	2
 111              	dynamicTargetSpeedUpdateOn:
 112 00f0 00000000 		.space	4
 113              		.data
 114              		.align	3
 115              		.type	targetSpeed, %object
 116              		.size	targetSpeed, 8
 117              	targetSpeed:
 118 0000 00000000 		.word	0
 119 0004 00001040 		.word	1074790400
 120              		.align	3
 121              		.type	targetDistance, %object
 122              		.size	targetDistance, 8
 123              	targetDistance:
 124 0008 00000000 		.word	0
 125 000c 00004440 		.word	1078198272
 126              		.align	3
 127              		.type	targetTime, %object
 128              		.size	targetTime, 8
 129              	targetTime:
 130 0010 00000000 		.word	0
 131 0014 00002440 		.word	1076101120
 132              		.align	2
 133              		.type	throttleSS, %object
 134              		.size	throttleSS, 4
 135              	throttleSS:
 136 0018 64000000 		.word	100
 137 001c 00000000 		.align	3
 138              		.type	coeffP, %object
 139              		.size	coeffP, 8
 140              	coeffP:
 141 0020 00000000 		.word	0
 142 0024 00004940 		.word	1078525952
 143              		.align	3
 144              		.type	coeffI, %object
 145              		.size	coeffI, 8
 146              	coeffI:
 147 0028 00000000 		.word	0
 148 002c 00002440 		.word	1076101120
 149              		.align	3
 150              		.type	coeffD, %object
 151              		.size	coeffD, 8
 152              	coeffD:
 153 0030 00000000 		.word	0
 154 0034 00002440 		.word	1076101120
 155              		.bss
 156              		.align	2
ARM GAS  C:\Users\bccho\AppData\Local\Temp\ccHbMFsA.s 			page 4


 157              	verbosePrintoutOn:
 158 00f4 00000000 		.space	4
 159              		.section	.text.SpeedControl_init,"ax",%progbits
 160              		.align	2
 161              		.global	SpeedControl_init
 162              		.thumb
 163              		.thumb_func
 164              		.type	SpeedControl_init, %function
 165              	SpeedControl_init:
 166              	.LFB29:
 167              		.file 1 ".\\speedcontrol.c"
   1:.\speedcontrol.c **** /*-----------------------------------------------------------------*/
   2:.\speedcontrol.c **** /* speedcontrol.c                                                  */
   3:.\speedcontrol.c **** /*                                                                 */
   4:.\speedcontrol.c **** /* BC Cho (bccho@) and TJ Smith (tjs8@)                            */
   5:.\speedcontrol.c **** /*-----------------------------------------------------------------*/
   6:.\speedcontrol.c **** #include <speedcontrol.h>
   7:.\speedcontrol.c **** #include <device.h>
   8:.\speedcontrol.c **** #include <math.h>
   9:.\speedcontrol.c **** #include <stdio.h>
  10:.\speedcontrol.c **** 
  11:.\speedcontrol.c **** // Printing
  12:.\speedcontrol.c **** static char strbuffer[100];
  13:.\speedcontrol.c **** 
  14:.\speedcontrol.c **** // Speed setting
  15:.\speedcontrol.c **** static const int MAX_THROTTLE = 999;
  16:.\speedcontrol.c **** int throttle = 0;
  17:.\speedcontrol.c **** 
  18:.\speedcontrol.c **** // Tick tracking
  19:.\speedcontrol.c **** static const int TICK_TIMER_PERIOD = 65536;
  20:.\speedcontrol.c **** #define BUF_WHEEL_TICK_SIZE 3
  21:.\speedcontrol.c **** int bufWheelTick[BUF_WHEEL_TICK_SIZE];
  22:.\speedcontrol.c **** int bufWheelTickPos = 0;
  23:.\speedcontrol.c **** int bufWheelTickCurSize = 0;
  24:.\speedcontrol.c **** int oldTickCount = 0;
  25:.\speedcontrol.c **** 
  26:.\speedcontrol.c **** // Speed calculating
  27:.\speedcontrol.c **** static const int CLK_FREQ = 100000;
  28:.\speedcontrol.c **** static const double WHEEL_DIAM = 2.41; // in inches
  29:.\speedcontrol.c **** 
  30:.\speedcontrol.c **** // Distance tracking
  31:.\speedcontrol.c **** static double totalDistance = 0;
  32:.\speedcontrol.c **** 
  33:.\speedcontrol.c **** // Time tracking
  34:.\speedcontrol.c **** static const int PID_TIMER_PERIOD = 10000;
  35:.\speedcontrol.c **** static double elapsedTime = 0;
  36:.\speedcontrol.c **** 
  37:.\speedcontrol.c **** // Speed error derivative tracking
  38:.\speedcontrol.c **** #define BUF_SPEED_SIZE 10
  39:.\speedcontrol.c **** static double bufSpeed[BUF_SPEED_SIZE];
  40:.\speedcontrol.c **** static int bufSpeedPos = 0;
  41:.\speedcontrol.c **** static int bufSpeedLastPos = 0;
  42:.\speedcontrol.c **** 
  43:.\speedcontrol.c **** // Speed error integral tracking
  44:.\speedcontrol.c **** static double errorIntegral = 0.0;
  45:.\speedcontrol.c **** 
  46:.\speedcontrol.c **** // PID settings
ARM GAS  C:\Users\bccho\AppData\Local\Temp\ccHbMFsA.s 			page 5


  47:.\speedcontrol.c **** static int throttlePIDon = 0;
  48:.\speedcontrol.c **** static int distanceTimeoutOn = 0;
  49:.\speedcontrol.c **** static int dynamicTargetSpeedUpdateOn = 0;
  50:.\speedcontrol.c **** 
  51:.\speedcontrol.c **** static double targetSpeed = 4.0; // in feet per second
  52:.\speedcontrol.c **** static double targetDistance = 40;
  53:.\speedcontrol.c **** static double targetTime = 10; // do not set directly
  54:.\speedcontrol.c **** static int throttleSS = 100;
  55:.\speedcontrol.c **** static double coeffP = 50.0;
  56:.\speedcontrol.c **** static double coeffI = 10.0;
  57:.\speedcontrol.c **** static double coeffD = 10.0;
  58:.\speedcontrol.c **** 
  59:.\speedcontrol.c **** // Misc
  60:.\speedcontrol.c **** static int verbosePrintoutOn = 0;
  61:.\speedcontrol.c **** 
  62:.\speedcontrol.c **** 
  63:.\speedcontrol.c **** /*-----------------------------------------------------------------*/
  64:.\speedcontrol.c **** 
  65:.\speedcontrol.c **** static void killAll();
  66:.\speedcontrol.c **** static int controlThrottle(double speed);
  67:.\speedcontrol.c **** static void setThrottle(int thr);
  68:.\speedcontrol.c **** static double getSpeed();
  69:.\speedcontrol.c **** static void resetSpeedTracking();
  70:.\speedcontrol.c **** static void resetDerivativeTracking();
  71:.\speedcontrol.c **** static void resetIntegralTracking();
  72:.\speedcontrol.c **** 
  73:.\speedcontrol.c **** /*-----------------------------------------------------------------*/
  74:.\speedcontrol.c **** 
  75:.\speedcontrol.c **** /* Initialize speed control */
  76:.\speedcontrol.c **** void SpeedControl_init() {
 168              		.loc 1 76 0
 169              		.cfi_startproc
 170              		@ args = 0, pretend = 0, frame = 0
 171              		@ frame_needed = 1, uses_anonymous_args = 0
 172 0000 80B5     		push	{r7, lr}
 173              	.LCFI0:
 174              		.cfi_def_cfa_offset 8
 175 0002 00AF     		add	r7, sp, #0
 176              		.cfi_offset 14, -4
 177              		.cfi_offset 7, -8
 178              	.LCFI1:
 179              		.cfi_def_cfa_register 7
  77:.\speedcontrol.c ****     resetSpeedTracking();
 180              		.loc 1 77 0
 181 0004 FFF7FEFF 		bl	resetSpeedTracking
  78:.\speedcontrol.c ****     resetDerivativeTracking();
 182              		.loc 1 78 0
 183 0008 FFF7FEFF 		bl	resetDerivativeTracking
  79:.\speedcontrol.c ****     setThrottle(0);
 184              		.loc 1 79 0
 185 000c 4FF00000 		mov	r0, #0
 186 0010 FFF7FEFF 		bl	setThrottle
  80:.\speedcontrol.c **** }
 187              		.loc 1 80 0
 188 0014 80BD     		pop	{r7, pc}
 189              		.cfi_endproc
 190              	.LFE29:
ARM GAS  C:\Users\bccho\AppData\Local\Temp\ccHbMFsA.s 			page 6


 191              		.size	SpeedControl_init, .-SpeedControl_init
 192 0016 00BF     		.section	.text.SpeedControl_enable,"ax",%progbits
 193              		.align	2
 194              		.global	SpeedControl_enable
 195              		.thumb
 196              		.thumb_func
 197              		.type	SpeedControl_enable, %function
 198              	SpeedControl_enable:
 199              	.LFB30:
  81:.\speedcontrol.c **** 
  82:.\speedcontrol.c **** /* Enable speed control */
  83:.\speedcontrol.c **** void SpeedControl_enable() {
 200              		.loc 1 83 0
 201              		.cfi_startproc
 202              		@ args = 0, pretend = 0, frame = 0
 203              		@ frame_needed = 1, uses_anonymous_args = 0
 204 0000 80B5     		push	{r7, lr}
 205              	.LCFI2:
 206              		.cfi_def_cfa_offset 8
 207 0002 00AF     		add	r7, sp, #0
 208              		.cfi_offset 14, -4
 209              		.cfi_offset 7, -8
 210              	.LCFI3:
 211              		.cfi_def_cfa_register 7
  84:.\speedcontrol.c ****     resetDerivativeTracking();
 212              		.loc 1 84 0
 213 0004 FFF7FEFF 		bl	resetDerivativeTracking
  85:.\speedcontrol.c ****     resetIntegralTracking();
 214              		.loc 1 85 0
 215 0008 FFF7FEFF 		bl	resetIntegralTracking
  86:.\speedcontrol.c ****     throttlePIDon = 1;
 216              		.loc 1 86 0
 217 000c 40F20003 		movw	r3, #:lower16:throttlePIDon
 218 0010 C0F20003 		movt	r3, #:upper16:throttlePIDon
 219 0014 4FF00102 		mov	r2, #1
 220 0018 1A60     		str	r2, [r3, #0]
  87:.\speedcontrol.c ****     elapsedTime = 0;
 221              		.loc 1 87 0
 222 001a 40F20003 		movw	r3, #:lower16:elapsedTime
 223 001e C0F20003 		movt	r3, #:upper16:elapsedTime
 224 0022 4FF00000 		mov	r0, #0
 225 0026 4FF00001 		mov	r1, #0
 226 002a C3E90001 		strd	r0, [r3]
  88:.\speedcontrol.c ****     totalDistance = 0;
 227              		.loc 1 88 0
 228 002e 40F20003 		movw	r3, #:lower16:totalDistance
 229 0032 C0F20003 		movt	r3, #:upper16:totalDistance
 230 0036 4FF00000 		mov	r0, #0
 231 003a 4FF00001 		mov	r1, #0
 232 003e C3E90001 		strd	r0, [r3]
  89:.\speedcontrol.c **** }
 233              		.loc 1 89 0
 234 0042 80BD     		pop	{r7, pc}
 235              		.cfi_endproc
 236              	.LFE30:
 237              		.size	SpeedControl_enable, .-SpeedControl_enable
 238              		.section	.text.SpeedControl_disable,"ax",%progbits
ARM GAS  C:\Users\bccho\AppData\Local\Temp\ccHbMFsA.s 			page 7


 239              		.align	2
 240              		.global	SpeedControl_disable
 241              		.thumb
 242              		.thumb_func
 243              		.type	SpeedControl_disable, %function
 244              	SpeedControl_disable:
 245              	.LFB31:
  90:.\speedcontrol.c **** 
  91:.\speedcontrol.c **** /* Disable speed control */
  92:.\speedcontrol.c **** void SpeedControl_disable() {
 246              		.loc 1 92 0
 247              		.cfi_startproc
 248              		@ args = 0, pretend = 0, frame = 0
 249              		@ frame_needed = 1, uses_anonymous_args = 0
 250 0000 80B5     		push	{r7, lr}
 251              	.LCFI4:
 252              		.cfi_def_cfa_offset 8
 253 0002 00AF     		add	r7, sp, #0
 254              		.cfi_offset 14, -4
 255              		.cfi_offset 7, -8
 256              	.LCFI5:
 257              		.cfi_def_cfa_register 7
  93:.\speedcontrol.c ****     throttlePIDon = 0;
 258              		.loc 1 93 0
 259 0004 40F20003 		movw	r3, #:lower16:throttlePIDon
 260 0008 C0F20003 		movt	r3, #:upper16:throttlePIDon
 261 000c 4FF00002 		mov	r2, #0
 262 0010 1A60     		str	r2, [r3, #0]
  94:.\speedcontrol.c ****     setThrottle(0);
 263              		.loc 1 94 0
 264 0012 4FF00000 		mov	r0, #0
 265 0016 FFF7FEFF 		bl	setThrottle
  95:.\speedcontrol.c **** }
 266              		.loc 1 95 0
 267 001a 80BD     		pop	{r7, pc}
 268              		.cfi_endproc
 269              	.LFE31:
 270              		.size	SpeedControl_disable, .-SpeedControl_disable
 271              		.section	.text.SpeedControl_enableDistanceControl,"ax",%progbits
 272              		.align	2
 273              		.global	SpeedControl_enableDistanceControl
 274              		.thumb
 275              		.thumb_func
 276              		.type	SpeedControl_enableDistanceControl, %function
 277              	SpeedControl_enableDistanceControl:
 278              	.LFB32:
  96:.\speedcontrol.c **** 
  97:.\speedcontrol.c **** /* Enable distance control */
  98:.\speedcontrol.c **** void SpeedControl_enableDistanceControl() {
 279              		.loc 1 98 0
 280              		.cfi_startproc
 281              		@ args = 0, pretend = 0, frame = 0
 282              		@ frame_needed = 1, uses_anonymous_args = 0
 283              		@ link register save eliminated.
 284 0000 80B4     		push	{r7}
 285              	.LCFI6:
 286              		.cfi_def_cfa_offset 4
ARM GAS  C:\Users\bccho\AppData\Local\Temp\ccHbMFsA.s 			page 8


 287 0002 00AF     		add	r7, sp, #0
 288              		.cfi_offset 7, -4
 289              	.LCFI7:
 290              		.cfi_def_cfa_register 7
  99:.\speedcontrol.c ****     distanceTimeoutOn = 1;
 291              		.loc 1 99 0
 292 0004 40F20003 		movw	r3, #:lower16:distanceTimeoutOn
 293 0008 C0F20003 		movt	r3, #:upper16:distanceTimeoutOn
 294 000c 4FF00102 		mov	r2, #1
 295 0010 1A60     		str	r2, [r3, #0]
 100:.\speedcontrol.c **** }
 296              		.loc 1 100 0
 297 0012 BD46     		mov	sp, r7
 298 0014 80BC     		pop	{r7}
 299 0016 7047     		bx	lr
 300              		.cfi_endproc
 301              	.LFE32:
 302              		.size	SpeedControl_enableDistanceControl, .-SpeedControl_enableDistanceControl
 303              		.section	.text.SpeedControl_disableDistanceControl,"ax",%progbits
 304              		.align	2
 305              		.global	SpeedControl_disableDistanceControl
 306              		.thumb
 307              		.thumb_func
 308              		.type	SpeedControl_disableDistanceControl, %function
 309              	SpeedControl_disableDistanceControl:
 310              	.LFB33:
 101:.\speedcontrol.c **** 
 102:.\speedcontrol.c **** /* Disable distance control */
 103:.\speedcontrol.c **** void SpeedControl_disableDistanceControl() {
 311              		.loc 1 103 0
 312              		.cfi_startproc
 313              		@ args = 0, pretend = 0, frame = 0
 314              		@ frame_needed = 1, uses_anonymous_args = 0
 315              		@ link register save eliminated.
 316 0000 80B4     		push	{r7}
 317              	.LCFI8:
 318              		.cfi_def_cfa_offset 4
 319 0002 00AF     		add	r7, sp, #0
 320              		.cfi_offset 7, -4
 321              	.LCFI9:
 322              		.cfi_def_cfa_register 7
 104:.\speedcontrol.c ****     distanceTimeoutOn = 0;
 323              		.loc 1 104 0
 324 0004 40F20003 		movw	r3, #:lower16:distanceTimeoutOn
 325 0008 C0F20003 		movt	r3, #:upper16:distanceTimeoutOn
 326 000c 4FF00002 		mov	r2, #0
 327 0010 1A60     		str	r2, [r3, #0]
 105:.\speedcontrol.c ****     dynamicTargetSpeedUpdateOn = 0;
 328              		.loc 1 105 0
 329 0012 40F20003 		movw	r3, #:lower16:dynamicTargetSpeedUpdateOn
 330 0016 C0F20003 		movt	r3, #:upper16:dynamicTargetSpeedUpdateOn
 331 001a 4FF00002 		mov	r2, #0
 332 001e 1A60     		str	r2, [r3, #0]
 106:.\speedcontrol.c **** }
 333              		.loc 1 106 0
 334 0020 BD46     		mov	sp, r7
 335 0022 80BC     		pop	{r7}
ARM GAS  C:\Users\bccho\AppData\Local\Temp\ccHbMFsA.s 			page 9


 336 0024 7047     		bx	lr
 337              		.cfi_endproc
 338              	.LFE33:
 339              		.size	SpeedControl_disableDistanceControl, .-SpeedControl_disableDistanceControl
 340 0026 00BF     		.section	.rodata
 341              		.align	2
 342              	.LC0:
 343 001c 43616E6E 		.ascii	"Cannot enable dynamic target speed update while con"
 343      6F742065 
 343      6E61626C 
 343      65206479 
 343      6E616D69 
 344 004f 74726F6C 		.ascii	"trolling speed\012\000"
 344      6C696E67 
 344      20737065 
 344      65640A00 
 345              		.section	.text.SpeedControl_enableDynamicTargetUpdate,"ax",%progbits
 346              		.align	2
 347              		.global	SpeedControl_enableDynamicTargetUpdate
 348              		.thumb
 349              		.thumb_func
 350              		.type	SpeedControl_enableDynamicTargetUpdate, %function
 351              	SpeedControl_enableDynamicTargetUpdate:
 352              	.LFB34:
 107:.\speedcontrol.c **** 
 108:.\speedcontrol.c **** /* Enable dynamic target speed control */
 109:.\speedcontrol.c **** void SpeedControl_enableDynamicTargetUpdate() {
 353              		.loc 1 109 0
 354              		.cfi_startproc
 355              		@ args = 0, pretend = 0, frame = 0
 356              		@ frame_needed = 1, uses_anonymous_args = 0
 357 0000 80B5     		push	{r7, lr}
 358              	.LCFI10:
 359              		.cfi_def_cfa_offset 8
 360 0002 00AF     		add	r7, sp, #0
 361              		.cfi_offset 14, -4
 362              		.cfi_offset 7, -8
 363              	.LCFI11:
 364              		.cfi_def_cfa_register 7
 110:.\speedcontrol.c ****     if (throttlePIDon) {
 365              		.loc 1 110 0
 366 0004 40F20003 		movw	r3, #:lower16:throttlePIDon
 367 0008 C0F20003 		movt	r3, #:upper16:throttlePIDon
 368 000c 1B68     		ldr	r3, [r3, #0]
 369 000e 002B     		cmp	r3, #0
 370 0010 06D0     		beq	.L12
 111:.\speedcontrol.c ****         UART_PutString("Cannot enable dynamic target speed update while controlling speed\n");
 371              		.loc 1 111 0
 372 0012 40F20000 		movw	r0, #:lower16:.LC0
 373 0016 C0F20000 		movt	r0, #:upper16:.LC0
 374 001a FFF7FEFF 		bl	UART_PutString
 375 001e 0DE0     		b	.L14
 376              	.L12:
 112:.\speedcontrol.c ****     } 
 113:.\speedcontrol.c ****     else {
 114:.\speedcontrol.c ****         dynamicTargetSpeedUpdateOn = 1;
 377              		.loc 1 114 0
ARM GAS  C:\Users\bccho\AppData\Local\Temp\ccHbMFsA.s 			page 10


 378 0020 40F20003 		movw	r3, #:lower16:dynamicTargetSpeedUpdateOn
 379 0024 C0F20003 		movt	r3, #:upper16:dynamicTargetSpeedUpdateOn
 380 0028 4FF00102 		mov	r2, #1
 381 002c 1A60     		str	r2, [r3, #0]
 115:.\speedcontrol.c ****         distanceTimeoutOn = 1;
 382              		.loc 1 115 0
 383 002e 40F20003 		movw	r3, #:lower16:distanceTimeoutOn
 384 0032 C0F20003 		movt	r3, #:upper16:distanceTimeoutOn
 385 0036 4FF00102 		mov	r2, #1
 386 003a 1A60     		str	r2, [r3, #0]
 387              	.L14:
 116:.\speedcontrol.c ****     }
 117:.\speedcontrol.c **** }
 388              		.loc 1 117 0
 389 003c 80BD     		pop	{r7, pc}
 390              		.cfi_endproc
 391              	.LFE34:
 392              		.size	SpeedControl_enableDynamicTargetUpdate, .-SpeedControl_enableDynamicTargetUpdate
 393 003e 00BF     		.section	.text.SpeedControl_disableDynamicTargetUpdate,"ax",%progbits
 394              		.align	2
 395              		.global	SpeedControl_disableDynamicTargetUpdate
 396              		.thumb
 397              		.thumb_func
 398              		.type	SpeedControl_disableDynamicTargetUpdate, %function
 399              	SpeedControl_disableDynamicTargetUpdate:
 400              	.LFB35:
 118:.\speedcontrol.c **** 
 119:.\speedcontrol.c **** /* Disable dynamic target speed control */
 120:.\speedcontrol.c **** void SpeedControl_disableDynamicTargetUpdate() {
 401              		.loc 1 120 0
 402              		.cfi_startproc
 403              		@ args = 0, pretend = 0, frame = 0
 404              		@ frame_needed = 1, uses_anonymous_args = 0
 405              		@ link register save eliminated.
 406 0000 80B4     		push	{r7}
 407              	.LCFI12:
 408              		.cfi_def_cfa_offset 4
 409 0002 00AF     		add	r7, sp, #0
 410              		.cfi_offset 7, -4
 411              	.LCFI13:
 412              		.cfi_def_cfa_register 7
 121:.\speedcontrol.c ****     dynamicTargetSpeedUpdateOn = 0;
 413              		.loc 1 121 0
 414 0004 40F20003 		movw	r3, #:lower16:dynamicTargetSpeedUpdateOn
 415 0008 C0F20003 		movt	r3, #:upper16:dynamicTargetSpeedUpdateOn
 416 000c 4FF00002 		mov	r2, #0
 417 0010 1A60     		str	r2, [r3, #0]
 122:.\speedcontrol.c **** }
 418              		.loc 1 122 0
 419 0012 BD46     		mov	sp, r7
 420 0014 80BC     		pop	{r7}
 421 0016 7047     		bx	lr
 422              		.cfi_endproc
 423              	.LFE35:
 424              		.size	SpeedControl_disableDynamicTargetUpdate, .-SpeedControl_disableDynamicTargetUpdate
 425              		.section	.text.SpeedControl_isEnabled,"ax",%progbits
 426              		.align	2
ARM GAS  C:\Users\bccho\AppData\Local\Temp\ccHbMFsA.s 			page 11


 427              		.global	SpeedControl_isEnabled
 428              		.thumb
 429              		.thumb_func
 430              		.type	SpeedControl_isEnabled, %function
 431              	SpeedControl_isEnabled:
 432              	.LFB36:
 123:.\speedcontrol.c **** 
 124:.\speedcontrol.c **** /* Get status of speed control */
 125:.\speedcontrol.c **** int SpeedControl_isEnabled() {
 433              		.loc 1 125 0
 434              		.cfi_startproc
 435              		@ args = 0, pretend = 0, frame = 0
 436              		@ frame_needed = 1, uses_anonymous_args = 0
 437              		@ link register save eliminated.
 438 0000 80B4     		push	{r7}
 439              	.LCFI14:
 440              		.cfi_def_cfa_offset 4
 441 0002 00AF     		add	r7, sp, #0
 442              		.cfi_offset 7, -4
 443              	.LCFI15:
 444              		.cfi_def_cfa_register 7
 126:.\speedcontrol.c ****     return throttlePIDon;
 445              		.loc 1 126 0
 446 0004 40F20003 		movw	r3, #:lower16:throttlePIDon
 447 0008 C0F20003 		movt	r3, #:upper16:throttlePIDon
 448 000c 1B68     		ldr	r3, [r3, #0]
 127:.\speedcontrol.c **** }
 449              		.loc 1 127 0
 450 000e 1846     		mov	r0, r3
 451 0010 BD46     		mov	sp, r7
 452 0012 80BC     		pop	{r7}
 453 0014 7047     		bx	lr
 454              		.cfi_endproc
 455              	.LFE36:
 456              		.size	SpeedControl_isEnabled, .-SpeedControl_isEnabled
 457 0016 00BF     		.section	.text.SpeedControl_isDistanceControlEnabled,"ax",%progbits
 458              		.align	2
 459              		.global	SpeedControl_isDistanceControlEnabled
 460              		.thumb
 461              		.thumb_func
 462              		.type	SpeedControl_isDistanceControlEnabled, %function
 463              	SpeedControl_isDistanceControlEnabled:
 464              	.LFB37:
 128:.\speedcontrol.c **** 
 129:.\speedcontrol.c **** /* Get status of distance control */
 130:.\speedcontrol.c **** int SpeedControl_isDistanceControlEnabled() {
 465              		.loc 1 130 0
 466              		.cfi_startproc
 467              		@ args = 0, pretend = 0, frame = 0
 468              		@ frame_needed = 1, uses_anonymous_args = 0
 469              		@ link register save eliminated.
 470 0000 80B4     		push	{r7}
 471              	.LCFI16:
 472              		.cfi_def_cfa_offset 4
 473 0002 00AF     		add	r7, sp, #0
 474              		.cfi_offset 7, -4
 475              	.LCFI17:
ARM GAS  C:\Users\bccho\AppData\Local\Temp\ccHbMFsA.s 			page 12


 476              		.cfi_def_cfa_register 7
 131:.\speedcontrol.c ****     return distanceTimeoutOn;
 477              		.loc 1 131 0
 478 0004 40F20003 		movw	r3, #:lower16:distanceTimeoutOn
 479 0008 C0F20003 		movt	r3, #:upper16:distanceTimeoutOn
 480 000c 1B68     		ldr	r3, [r3, #0]
 132:.\speedcontrol.c **** }
 481              		.loc 1 132 0
 482 000e 1846     		mov	r0, r3
 483 0010 BD46     		mov	sp, r7
 484 0012 80BC     		pop	{r7}
 485 0014 7047     		bx	lr
 486              		.cfi_endproc
 487              	.LFE37:
 488              		.size	SpeedControl_isDistanceControlEnabled, .-SpeedControl_isDistanceControlEnabled
 489 0016 00BF     		.section	.text.SpeedControl_isDynamicTargetUpdateEnabled,"ax",%progbits
 490              		.align	2
 491              		.global	SpeedControl_isDynamicTargetUpdateEnabled
 492              		.thumb
 493              		.thumb_func
 494              		.type	SpeedControl_isDynamicTargetUpdateEnabled, %function
 495              	SpeedControl_isDynamicTargetUpdateEnabled:
 496              	.LFB38:
 133:.\speedcontrol.c **** 
 134:.\speedcontrol.c **** /* Get status of dynamic target speed control */
 135:.\speedcontrol.c **** int SpeedControl_isDynamicTargetUpdateEnabled() {
 497              		.loc 1 135 0
 498              		.cfi_startproc
 499              		@ args = 0, pretend = 0, frame = 0
 500              		@ frame_needed = 1, uses_anonymous_args = 0
 501              		@ link register save eliminated.
 502 0000 80B4     		push	{r7}
 503              	.LCFI18:
 504              		.cfi_def_cfa_offset 4
 505 0002 00AF     		add	r7, sp, #0
 506              		.cfi_offset 7, -4
 507              	.LCFI19:
 508              		.cfi_def_cfa_register 7
 136:.\speedcontrol.c ****     return dynamicTargetSpeedUpdateOn;
 509              		.loc 1 136 0
 510 0004 40F20003 		movw	r3, #:lower16:dynamicTargetSpeedUpdateOn
 511 0008 C0F20003 		movt	r3, #:upper16:dynamicTargetSpeedUpdateOn
 512 000c 1B68     		ldr	r3, [r3, #0]
 137:.\speedcontrol.c **** }
 513              		.loc 1 137 0
 514 000e 1846     		mov	r0, r3
 515 0010 BD46     		mov	sp, r7
 516 0012 80BC     		pop	{r7}
 517 0014 7047     		bx	lr
 518              		.cfi_endproc
 519              	.LFE38:
 520              		.size	SpeedControl_isDynamicTargetUpdateEnabled, .-SpeedControl_isDynamicTargetUpdateEnabled
 521 0016 00BF     		.section	.text.SpeedControl_enableVerbosePrintout,"ax",%progbits
 522              		.align	2
 523              		.global	SpeedControl_enableVerbosePrintout
 524              		.thumb
 525              		.thumb_func
ARM GAS  C:\Users\bccho\AppData\Local\Temp\ccHbMFsA.s 			page 13


 526              		.type	SpeedControl_enableVerbosePrintout, %function
 527              	SpeedControl_enableVerbosePrintout:
 528              	.LFB39:
 138:.\speedcontrol.c **** 
 139:.\speedcontrol.c **** /* Enable verbose printout */
 140:.\speedcontrol.c **** void SpeedControl_enableVerbosePrintout() {
 529              		.loc 1 140 0
 530              		.cfi_startproc
 531              		@ args = 0, pretend = 0, frame = 0
 532              		@ frame_needed = 1, uses_anonymous_args = 0
 533              		@ link register save eliminated.
 534 0000 80B4     		push	{r7}
 535              	.LCFI20:
 536              		.cfi_def_cfa_offset 4
 537 0002 00AF     		add	r7, sp, #0
 538              		.cfi_offset 7, -4
 539              	.LCFI21:
 540              		.cfi_def_cfa_register 7
 141:.\speedcontrol.c ****     verbosePrintoutOn = 1;
 541              		.loc 1 141 0
 542 0004 40F20003 		movw	r3, #:lower16:verbosePrintoutOn
 543 0008 C0F20003 		movt	r3, #:upper16:verbosePrintoutOn
 544 000c 4FF00102 		mov	r2, #1
 545 0010 1A60     		str	r2, [r3, #0]
 142:.\speedcontrol.c **** }
 546              		.loc 1 142 0
 547 0012 BD46     		mov	sp, r7
 548 0014 80BC     		pop	{r7}
 549 0016 7047     		bx	lr
 550              		.cfi_endproc
 551              	.LFE39:
 552              		.size	SpeedControl_enableVerbosePrintout, .-SpeedControl_enableVerbosePrintout
 553              		.section	.text.SpeedControl_disableVerbosePrintout,"ax",%progbits
 554              		.align	2
 555              		.global	SpeedControl_disableVerbosePrintout
 556              		.thumb
 557              		.thumb_func
 558              		.type	SpeedControl_disableVerbosePrintout, %function
 559              	SpeedControl_disableVerbosePrintout:
 560              	.LFB40:
 143:.\speedcontrol.c **** 
 144:.\speedcontrol.c **** /* Disable verbose printout */
 145:.\speedcontrol.c **** void SpeedControl_disableVerbosePrintout() {
 561              		.loc 1 145 0
 562              		.cfi_startproc
 563              		@ args = 0, pretend = 0, frame = 0
 564              		@ frame_needed = 1, uses_anonymous_args = 0
 565              		@ link register save eliminated.
 566 0000 80B4     		push	{r7}
 567              	.LCFI22:
 568              		.cfi_def_cfa_offset 4
 569 0002 00AF     		add	r7, sp, #0
 570              		.cfi_offset 7, -4
 571              	.LCFI23:
 572              		.cfi_def_cfa_register 7
 146:.\speedcontrol.c ****     verbosePrintoutOn = 0;
 573              		.loc 1 146 0
ARM GAS  C:\Users\bccho\AppData\Local\Temp\ccHbMFsA.s 			page 14


 574 0004 40F20003 		movw	r3, #:lower16:verbosePrintoutOn
 575 0008 C0F20003 		movt	r3, #:upper16:verbosePrintoutOn
 576 000c 4FF00002 		mov	r2, #0
 577 0010 1A60     		str	r2, [r3, #0]
 147:.\speedcontrol.c **** }
 578              		.loc 1 147 0
 579 0012 BD46     		mov	sp, r7
 580 0014 80BC     		pop	{r7}
 581 0016 7047     		bx	lr
 582              		.cfi_endproc
 583              	.LFE40:
 584              		.size	SpeedControl_disableVerbosePrintout, .-SpeedControl_disableVerbosePrintout
 585              		.section	.text.SpeedControl_isVerbosePrintoutEnabled,"ax",%progbits
 586              		.align	2
 587              		.global	SpeedControl_isVerbosePrintoutEnabled
 588              		.thumb
 589              		.thumb_func
 590              		.type	SpeedControl_isVerbosePrintoutEnabled, %function
 591              	SpeedControl_isVerbosePrintoutEnabled:
 592              	.LFB41:
 148:.\speedcontrol.c **** 
 149:.\speedcontrol.c **** /* Get status of verbose printout */
 150:.\speedcontrol.c **** int SpeedControl_isVerbosePrintoutEnabled() {
 593              		.loc 1 150 0
 594              		.cfi_startproc
 595              		@ args = 0, pretend = 0, frame = 0
 596              		@ frame_needed = 1, uses_anonymous_args = 0
 597              		@ link register save eliminated.
 598 0000 80B4     		push	{r7}
 599              	.LCFI24:
 600              		.cfi_def_cfa_offset 4
 601 0002 00AF     		add	r7, sp, #0
 602              		.cfi_offset 7, -4
 603              	.LCFI25:
 604              		.cfi_def_cfa_register 7
 151:.\speedcontrol.c ****     return verbosePrintoutOn;
 605              		.loc 1 151 0
 606 0004 40F20003 		movw	r3, #:lower16:verbosePrintoutOn
 607 0008 C0F20003 		movt	r3, #:upper16:verbosePrintoutOn
 608 000c 1B68     		ldr	r3, [r3, #0]
 152:.\speedcontrol.c **** }
 609              		.loc 1 152 0
 610 000e 1846     		mov	r0, r3
 611 0010 BD46     		mov	sp, r7
 612 0012 80BC     		pop	{r7}
 613 0014 7047     		bx	lr
 614              		.cfi_endproc
 615              	.LFE41:
 616              		.size	SpeedControl_isVerbosePrintoutEnabled, .-SpeedControl_isVerbosePrintoutEnabled
 617 0016 00BF     		.section	.rodata
 618 005f 00       		.align	2
 619              	.LC1:
 620 0060 43616E6E 		.ascii	"Cannot change target speed while dynamic target spe"
 620      6F742063 
 620      68616E67 
 620      65207461 
 620      72676574 
ARM GAS  C:\Users\bccho\AppData\Local\Temp\ccHbMFsA.s 			page 15


 621 0093 65642075 		.ascii	"ed updating is on\012\000"
 621      70646174 
 621      696E6720 
 621      6973206F 
 621      6E0A00
 622              		.global	__aeabi_ddiv
 623              		.section	.text.SpeedControl_setTargetSpeed,"ax",%progbits
 624              		.align	2
 625              		.global	SpeedControl_setTargetSpeed
 626              		.thumb
 627              		.thumb_func
 628              		.type	SpeedControl_setTargetSpeed, %function
 629              	SpeedControl_setTargetSpeed:
 630              	.LFB42:
 153:.\speedcontrol.c **** 
 154:.\speedcontrol.c **** /* Set target speed */
 155:.\speedcontrol.c **** void SpeedControl_setTargetSpeed(double ts) {
 631              		.loc 1 155 0
 632              		.cfi_startproc
 633              		@ args = 0, pretend = 0, frame = 8
 634              		@ frame_needed = 1, uses_anonymous_args = 0
 635 0000 80B5     		push	{r7, lr}
 636              	.LCFI26:
 637              		.cfi_def_cfa_offset 8
 638 0002 82B0     		sub	sp, sp, #8
 639              	.LCFI27:
 640              		.cfi_def_cfa_offset 16
 641 0004 00AF     		add	r7, sp, #0
 642              		.cfi_offset 14, -4
 643              		.cfi_offset 7, -8
 644              	.LCFI28:
 645              		.cfi_def_cfa_register 7
 646 0006 C7E90001 		strd	r0, [r7]
 156:.\speedcontrol.c ****     if (dynamicTargetSpeedUpdateOn) {
 647              		.loc 1 156 0
 648 000a 40F20003 		movw	r3, #:lower16:dynamicTargetSpeedUpdateOn
 649 000e C0F20003 		movt	r3, #:upper16:dynamicTargetSpeedUpdateOn
 650 0012 1B68     		ldr	r3, [r3, #0]
 651 0014 002B     		cmp	r3, #0
 652 0016 06D0     		beq	.L30
 157:.\speedcontrol.c ****         UART_PutString("Cannot change target speed while dynamic target speed updating is on\n");
 653              		.loc 1 157 0
 654 0018 40F20000 		movw	r0, #:lower16:.LC1
 655 001c C0F20000 		movt	r0, #:upper16:.LC1
 656 0020 FFF7FEFF 		bl	UART_PutString
 657 0024 1FE0     		b	.L32
 658              	.L30:
 158:.\speedcontrol.c ****     }
 159:.\speedcontrol.c ****     else {
 160:.\speedcontrol.c ****         targetSpeed = ts;
 659              		.loc 1 160 0
 660 0026 40F20003 		movw	r3, #:lower16:targetSpeed
 661 002a C0F20003 		movt	r3, #:upper16:targetSpeed
 662 002e D7E90001 		ldrd	r0, [r7]
 663 0032 C3E90001 		strd	r0, [r3]
 161:.\speedcontrol.c ****         targetTime = targetDistance / targetSpeed;
 664              		.loc 1 161 0
ARM GAS  C:\Users\bccho\AppData\Local\Temp\ccHbMFsA.s 			page 16


 665 0036 40F20003 		movw	r3, #:lower16:targetDistance
 666 003a C0F20003 		movt	r3, #:upper16:targetDistance
 667 003e D3E90001 		ldrd	r0, [r3]
 668 0042 40F20003 		movw	r3, #:lower16:targetSpeed
 669 0046 C0F20003 		movt	r3, #:upper16:targetSpeed
 670 004a D3E90023 		ldrd	r2, [r3]
 671 004e FFF7FEFF 		bl	__aeabi_ddiv
 672 0052 0246     		mov	r2, r0
 673 0054 0B46     		mov	r3, r1
 674 0056 1046     		mov	r0, r2
 675 0058 1946     		mov	r1, r3
 676 005a 40F20003 		movw	r3, #:lower16:targetTime
 677 005e C0F20003 		movt	r3, #:upper16:targetTime
 678 0062 C3E90001 		strd	r0, [r3]
 679              	.L32:
 162:.\speedcontrol.c ****     }
 163:.\speedcontrol.c **** }
 680              		.loc 1 163 0
 681 0066 07F10807 		add	r7, r7, #8
 682 006a BD46     		mov	sp, r7
 683 006c 80BD     		pop	{r7, pc}
 684              		.cfi_endproc
 685              	.LFE42:
 686              		.size	SpeedControl_setTargetSpeed, .-SpeedControl_setTargetSpeed
 687 006e 00BF     		.section	.rodata
 688 00a6 0000     		.align	2
 689              	.LC2:
 690 00a8 43616E6E 		.ascii	"Cannot change target distance while dynamic target "
 690      6F742063 
 690      68616E67 
 690      65207461 
 690      72676574 
 691 00db 73706565 		.ascii	"speed updating is on\012\000"
 691      64207570 
 691      64617469 
 691      6E672069 
 691      73206F6E 
 692              		.section	.text.SpeedControl_setTargetDistance,"ax",%progbits
 693              		.align	2
 694              		.global	SpeedControl_setTargetDistance
 695              		.thumb
 696              		.thumb_func
 697              		.type	SpeedControl_setTargetDistance, %function
 698              	SpeedControl_setTargetDistance:
 699              	.LFB43:
 164:.\speedcontrol.c **** 
 165:.\speedcontrol.c **** /* Set target distance */
 166:.\speedcontrol.c **** void SpeedControl_setTargetDistance(double dist) {
 700              		.loc 1 166 0
 701              		.cfi_startproc
 702              		@ args = 0, pretend = 0, frame = 8
 703              		@ frame_needed = 1, uses_anonymous_args = 0
 704 0000 80B5     		push	{r7, lr}
 705              	.LCFI29:
 706              		.cfi_def_cfa_offset 8
 707 0002 82B0     		sub	sp, sp, #8
 708              	.LCFI30:
ARM GAS  C:\Users\bccho\AppData\Local\Temp\ccHbMFsA.s 			page 17


 709              		.cfi_def_cfa_offset 16
 710 0004 00AF     		add	r7, sp, #0
 711              		.cfi_offset 14, -4
 712              		.cfi_offset 7, -8
 713              	.LCFI31:
 714              		.cfi_def_cfa_register 7
 715 0006 C7E90001 		strd	r0, [r7]
 167:.\speedcontrol.c ****     if (dynamicTargetSpeedUpdateOn) {
 716              		.loc 1 167 0
 717 000a 40F20003 		movw	r3, #:lower16:dynamicTargetSpeedUpdateOn
 718 000e C0F20003 		movt	r3, #:upper16:dynamicTargetSpeedUpdateOn
 719 0012 1B68     		ldr	r3, [r3, #0]
 720 0014 002B     		cmp	r3, #0
 721 0016 06D0     		beq	.L34
 168:.\speedcontrol.c ****         UART_PutString("Cannot change target distance while dynamic target speed updating is on\n")
 722              		.loc 1 168 0
 723 0018 40F20000 		movw	r0, #:lower16:.LC2
 724 001c C0F20000 		movt	r0, #:upper16:.LC2
 725 0020 FFF7FEFF 		bl	UART_PutString
 726 0024 1FE0     		b	.L36
 727              	.L34:
 169:.\speedcontrol.c ****     }
 170:.\speedcontrol.c ****     else {
 171:.\speedcontrol.c ****         targetDistance = dist;
 728              		.loc 1 171 0
 729 0026 40F20003 		movw	r3, #:lower16:targetDistance
 730 002a C0F20003 		movt	r3, #:upper16:targetDistance
 731 002e D7E90001 		ldrd	r0, [r7]
 732 0032 C3E90001 		strd	r0, [r3]
 172:.\speedcontrol.c ****         targetTime = targetDistance / targetSpeed;
 733              		.loc 1 172 0
 734 0036 40F20003 		movw	r3, #:lower16:targetDistance
 735 003a C0F20003 		movt	r3, #:upper16:targetDistance
 736 003e D3E90001 		ldrd	r0, [r3]
 737 0042 40F20003 		movw	r3, #:lower16:targetSpeed
 738 0046 C0F20003 		movt	r3, #:upper16:targetSpeed
 739 004a D3E90023 		ldrd	r2, [r3]
 740 004e FFF7FEFF 		bl	__aeabi_ddiv
 741 0052 0246     		mov	r2, r0
 742 0054 0B46     		mov	r3, r1
 743 0056 1046     		mov	r0, r2
 744 0058 1946     		mov	r1, r3
 745 005a 40F20003 		movw	r3, #:lower16:targetTime
 746 005e C0F20003 		movt	r3, #:upper16:targetTime
 747 0062 C3E90001 		strd	r0, [r3]
 748              	.L36:
 173:.\speedcontrol.c ****     }
 174:.\speedcontrol.c **** }
 749              		.loc 1 174 0
 750 0066 07F10807 		add	r7, r7, #8
 751 006a BD46     		mov	sp, r7
 752 006c 80BD     		pop	{r7, pc}
 753              		.cfi_endproc
 754              	.LFE43:
 755              		.size	SpeedControl_setTargetDistance, .-SpeedControl_setTargetDistance
 756 006e 00BF     		.section	.text.SpeedControl_setSteadyStateThrottle,"ax",%progbits
 757              		.align	2
ARM GAS  C:\Users\bccho\AppData\Local\Temp\ccHbMFsA.s 			page 18


 758              		.global	SpeedControl_setSteadyStateThrottle
 759              		.thumb
 760              		.thumb_func
 761              		.type	SpeedControl_setSteadyStateThrottle, %function
 762              	SpeedControl_setSteadyStateThrottle:
 763              	.LFB44:
 175:.\speedcontrol.c **** 
 176:.\speedcontrol.c **** /* Set steady state throttle */
 177:.\speedcontrol.c **** void SpeedControl_setSteadyStateThrottle(int thr) {
 764              		.loc 1 177 0
 765              		.cfi_startproc
 766              		@ args = 0, pretend = 0, frame = 8
 767              		@ frame_needed = 1, uses_anonymous_args = 0
 768              		@ link register save eliminated.
 769 0000 80B4     		push	{r7}
 770              	.LCFI32:
 771              		.cfi_def_cfa_offset 4
 772 0002 83B0     		sub	sp, sp, #12
 773              	.LCFI33:
 774              		.cfi_def_cfa_offset 16
 775 0004 00AF     		add	r7, sp, #0
 776              		.cfi_offset 7, -4
 777              	.LCFI34:
 778              		.cfi_def_cfa_register 7
 779 0006 7860     		str	r0, [r7, #4]
 178:.\speedcontrol.c ****     throttleSS = thr;
 780              		.loc 1 178 0
 781 0008 40F20003 		movw	r3, #:lower16:throttleSS
 782 000c C0F20003 		movt	r3, #:upper16:throttleSS
 783 0010 7A68     		ldr	r2, [r7, #4]
 784 0012 1A60     		str	r2, [r3, #0]
 179:.\speedcontrol.c **** }
 785              		.loc 1 179 0
 786 0014 07F10C07 		add	r7, r7, #12
 787 0018 BD46     		mov	sp, r7
 788 001a 80BC     		pop	{r7}
 789 001c 7047     		bx	lr
 790              		.cfi_endproc
 791              	.LFE44:
 792              		.size	SpeedControl_setSteadyStateThrottle, .-SpeedControl_setSteadyStateThrottle
 793 001e 00BF     		.section	.text.SpeedControl_setP,"ax",%progbits
 794              		.align	2
 795              		.global	SpeedControl_setP
 796              		.thumb
 797              		.thumb_func
 798              		.type	SpeedControl_setP, %function
 799              	SpeedControl_setP:
 800              	.LFB45:
 180:.\speedcontrol.c **** 
 181:.\speedcontrol.c **** /* Set P coefficient */
 182:.\speedcontrol.c **** void SpeedControl_setP(double P) {
 801              		.loc 1 182 0
 802              		.cfi_startproc
 803              		@ args = 0, pretend = 0, frame = 8
 804              		@ frame_needed = 1, uses_anonymous_args = 0
 805              		@ link register save eliminated.
 806 0000 80B4     		push	{r7}
ARM GAS  C:\Users\bccho\AppData\Local\Temp\ccHbMFsA.s 			page 19


 807              	.LCFI35:
 808              		.cfi_def_cfa_offset 4
 809 0002 83B0     		sub	sp, sp, #12
 810              	.LCFI36:
 811              		.cfi_def_cfa_offset 16
 812 0004 00AF     		add	r7, sp, #0
 813              		.cfi_offset 7, -4
 814              	.LCFI37:
 815              		.cfi_def_cfa_register 7
 816 0006 C7E90001 		strd	r0, [r7]
 183:.\speedcontrol.c ****     coeffP = P;
 817              		.loc 1 183 0
 818 000a 40F20003 		movw	r3, #:lower16:coeffP
 819 000e C0F20003 		movt	r3, #:upper16:coeffP
 820 0012 D7E90001 		ldrd	r0, [r7]
 821 0016 C3E90001 		strd	r0, [r3]
 184:.\speedcontrol.c **** }
 822              		.loc 1 184 0
 823 001a 07F10C07 		add	r7, r7, #12
 824 001e BD46     		mov	sp, r7
 825 0020 80BC     		pop	{r7}
 826 0022 7047     		bx	lr
 827              		.cfi_endproc
 828              	.LFE45:
 829              		.size	SpeedControl_setP, .-SpeedControl_setP
 830              		.section	.text.SpeedControl_setI,"ax",%progbits
 831              		.align	2
 832              		.global	SpeedControl_setI
 833              		.thumb
 834              		.thumb_func
 835              		.type	SpeedControl_setI, %function
 836              	SpeedControl_setI:
 837              	.LFB46:
 185:.\speedcontrol.c **** 
 186:.\speedcontrol.c **** /* Set I coefficient */
 187:.\speedcontrol.c **** void SpeedControl_setI(double I) {
 838              		.loc 1 187 0
 839              		.cfi_startproc
 840              		@ args = 0, pretend = 0, frame = 8
 841              		@ frame_needed = 1, uses_anonymous_args = 0
 842              		@ link register save eliminated.
 843 0000 80B4     		push	{r7}
 844              	.LCFI38:
 845              		.cfi_def_cfa_offset 4
 846 0002 83B0     		sub	sp, sp, #12
 847              	.LCFI39:
 848              		.cfi_def_cfa_offset 16
 849 0004 00AF     		add	r7, sp, #0
 850              		.cfi_offset 7, -4
 851              	.LCFI40:
 852              		.cfi_def_cfa_register 7
 853 0006 C7E90001 		strd	r0, [r7]
 188:.\speedcontrol.c ****     coeffI = I;
 854              		.loc 1 188 0
 855 000a 40F20003 		movw	r3, #:lower16:coeffI
 856 000e C0F20003 		movt	r3, #:upper16:coeffI
 857 0012 D7E90001 		ldrd	r0, [r7]
ARM GAS  C:\Users\bccho\AppData\Local\Temp\ccHbMFsA.s 			page 20


 858 0016 C3E90001 		strd	r0, [r3]
 189:.\speedcontrol.c **** }
 859              		.loc 1 189 0
 860 001a 07F10C07 		add	r7, r7, #12
 861 001e BD46     		mov	sp, r7
 862 0020 80BC     		pop	{r7}
 863 0022 7047     		bx	lr
 864              		.cfi_endproc
 865              	.LFE46:
 866              		.size	SpeedControl_setI, .-SpeedControl_setI
 867              		.section	.text.SpeedControl_setD,"ax",%progbits
 868              		.align	2
 869              		.global	SpeedControl_setD
 870              		.thumb
 871              		.thumb_func
 872              		.type	SpeedControl_setD, %function
 873              	SpeedControl_setD:
 874              	.LFB47:
 190:.\speedcontrol.c **** 
 191:.\speedcontrol.c **** /* Set D coefficient */
 192:.\speedcontrol.c **** void SpeedControl_setD(double D) {
 875              		.loc 1 192 0
 876              		.cfi_startproc
 877              		@ args = 0, pretend = 0, frame = 8
 878              		@ frame_needed = 1, uses_anonymous_args = 0
 879              		@ link register save eliminated.
 880 0000 80B4     		push	{r7}
 881              	.LCFI41:
 882              		.cfi_def_cfa_offset 4
 883 0002 83B0     		sub	sp, sp, #12
 884              	.LCFI42:
 885              		.cfi_def_cfa_offset 16
 886 0004 00AF     		add	r7, sp, #0
 887              		.cfi_offset 7, -4
 888              	.LCFI43:
 889              		.cfi_def_cfa_register 7
 890 0006 C7E90001 		strd	r0, [r7]
 193:.\speedcontrol.c ****     coeffD = D;
 891              		.loc 1 193 0
 892 000a 40F20003 		movw	r3, #:lower16:coeffD
 893 000e C0F20003 		movt	r3, #:upper16:coeffD
 894 0012 D7E90001 		ldrd	r0, [r7]
 895 0016 C3E90001 		strd	r0, [r3]
 194:.\speedcontrol.c **** }
 896              		.loc 1 194 0
 897 001a 07F10C07 		add	r7, r7, #12
 898 001e BD46     		mov	sp, r7
 899 0020 80BC     		pop	{r7}
 900 0022 7047     		bx	lr
 901              		.cfi_endproc
 902              	.LFE47:
 903              		.size	SpeedControl_setD, .-SpeedControl_setD
 904              		.section	.text.SpeedControl_getTargetSpeed,"ax",%progbits
 905              		.align	2
 906              		.global	SpeedControl_getTargetSpeed
 907              		.thumb
 908              		.thumb_func
ARM GAS  C:\Users\bccho\AppData\Local\Temp\ccHbMFsA.s 			page 21


 909              		.type	SpeedControl_getTargetSpeed, %function
 910              	SpeedControl_getTargetSpeed:
 911              	.LFB48:
 195:.\speedcontrol.c **** 
 196:.\speedcontrol.c **** /* Get target speed */
 197:.\speedcontrol.c **** double SpeedControl_getTargetSpeed() {
 912              		.loc 1 197 0
 913              		.cfi_startproc
 914              		@ args = 0, pretend = 0, frame = 0
 915              		@ frame_needed = 1, uses_anonymous_args = 0
 916              		@ link register save eliminated.
 917 0000 80B4     		push	{r7}
 918              	.LCFI44:
 919              		.cfi_def_cfa_offset 4
 920 0002 00AF     		add	r7, sp, #0
 921              		.cfi_offset 7, -4
 922              	.LCFI45:
 923              		.cfi_def_cfa_register 7
 198:.\speedcontrol.c ****     return targetSpeed;
 924              		.loc 1 198 0
 925 0004 40F20003 		movw	r3, #:lower16:targetSpeed
 926 0008 C0F20003 		movt	r3, #:upper16:targetSpeed
 927 000c D3E90023 		ldrd	r2, [r3]
 199:.\speedcontrol.c **** }
 928              		.loc 1 199 0
 929 0010 1046     		mov	r0, r2
 930 0012 1946     		mov	r1, r3
 931 0014 BD46     		mov	sp, r7
 932 0016 80BC     		pop	{r7}
 933 0018 7047     		bx	lr
 934              		.cfi_endproc
 935              	.LFE48:
 936              		.size	SpeedControl_getTargetSpeed, .-SpeedControl_getTargetSpeed
 937 001a 00BF     		.section	.text.SpeedControl_getTargetDistance,"ax",%progbits
 938              		.align	2
 939              		.global	SpeedControl_getTargetDistance
 940              		.thumb
 941              		.thumb_func
 942              		.type	SpeedControl_getTargetDistance, %function
 943              	SpeedControl_getTargetDistance:
 944              	.LFB49:
 200:.\speedcontrol.c **** 
 201:.\speedcontrol.c **** /* Get target distance */
 202:.\speedcontrol.c **** double SpeedControl_getTargetDistance() {
 945              		.loc 1 202 0
 946              		.cfi_startproc
 947              		@ args = 0, pretend = 0, frame = 0
 948              		@ frame_needed = 1, uses_anonymous_args = 0
 949              		@ link register save eliminated.
 950 0000 80B4     		push	{r7}
 951              	.LCFI46:
 952              		.cfi_def_cfa_offset 4
 953 0002 00AF     		add	r7, sp, #0
 954              		.cfi_offset 7, -4
 955              	.LCFI47:
 956              		.cfi_def_cfa_register 7
 203:.\speedcontrol.c ****     return targetDistance;
ARM GAS  C:\Users\bccho\AppData\Local\Temp\ccHbMFsA.s 			page 22


 957              		.loc 1 203 0
 958 0004 40F20003 		movw	r3, #:lower16:targetDistance
 959 0008 C0F20003 		movt	r3, #:upper16:targetDistance
 960 000c D3E90023 		ldrd	r2, [r3]
 204:.\speedcontrol.c **** }
 961              		.loc 1 204 0
 962 0010 1046     		mov	r0, r2
 963 0012 1946     		mov	r1, r3
 964 0014 BD46     		mov	sp, r7
 965 0016 80BC     		pop	{r7}
 966 0018 7047     		bx	lr
 967              		.cfi_endproc
 968              	.LFE49:
 969              		.size	SpeedControl_getTargetDistance, .-SpeedControl_getTargetDistance
 970 001a 00BF     		.section	.text.SpeedControl_getP,"ax",%progbits
 971              		.align	2
 972              		.global	SpeedControl_getP
 973              		.thumb
 974              		.thumb_func
 975              		.type	SpeedControl_getP, %function
 976              	SpeedControl_getP:
 977              	.LFB50:
 205:.\speedcontrol.c **** 
 206:.\speedcontrol.c **** /* Get P coefficient */
 207:.\speedcontrol.c **** double SpeedControl_getP() {
 978              		.loc 1 207 0
 979              		.cfi_startproc
 980              		@ args = 0, pretend = 0, frame = 0
 981              		@ frame_needed = 1, uses_anonymous_args = 0
 982              		@ link register save eliminated.
 983 0000 80B4     		push	{r7}
 984              	.LCFI48:
 985              		.cfi_def_cfa_offset 4
 986 0002 00AF     		add	r7, sp, #0
 987              		.cfi_offset 7, -4
 988              	.LCFI49:
 989              		.cfi_def_cfa_register 7
 208:.\speedcontrol.c ****     return coeffP;
 990              		.loc 1 208 0
 991 0004 40F20003 		movw	r3, #:lower16:coeffP
 992 0008 C0F20003 		movt	r3, #:upper16:coeffP
 993 000c D3E90023 		ldrd	r2, [r3]
 209:.\speedcontrol.c **** }
 994              		.loc 1 209 0
 995 0010 1046     		mov	r0, r2
 996 0012 1946     		mov	r1, r3
 997 0014 BD46     		mov	sp, r7
 998 0016 80BC     		pop	{r7}
 999 0018 7047     		bx	lr
 1000              		.cfi_endproc
 1001              	.LFE50:
 1002              		.size	SpeedControl_getP, .-SpeedControl_getP
 1003 001a 00BF     		.section	.text.SpeedControl_getI,"ax",%progbits
 1004              		.align	2
 1005              		.global	SpeedControl_getI
 1006              		.thumb
 1007              		.thumb_func
ARM GAS  C:\Users\bccho\AppData\Local\Temp\ccHbMFsA.s 			page 23


 1008              		.type	SpeedControl_getI, %function
 1009              	SpeedControl_getI:
 1010              	.LFB51:
 210:.\speedcontrol.c **** 
 211:.\speedcontrol.c **** /* Get I coefficient */
 212:.\speedcontrol.c **** double SpeedControl_getI() {
 1011              		.loc 1 212 0
 1012              		.cfi_startproc
 1013              		@ args = 0, pretend = 0, frame = 0
 1014              		@ frame_needed = 1, uses_anonymous_args = 0
 1015              		@ link register save eliminated.
 1016 0000 80B4     		push	{r7}
 1017              	.LCFI50:
 1018              		.cfi_def_cfa_offset 4
 1019 0002 00AF     		add	r7, sp, #0
 1020              		.cfi_offset 7, -4
 1021              	.LCFI51:
 1022              		.cfi_def_cfa_register 7
 213:.\speedcontrol.c ****     return coeffI;
 1023              		.loc 1 213 0
 1024 0004 40F20003 		movw	r3, #:lower16:coeffI
 1025 0008 C0F20003 		movt	r3, #:upper16:coeffI
 1026 000c D3E90023 		ldrd	r2, [r3]
 214:.\speedcontrol.c **** }
 1027              		.loc 1 214 0
 1028 0010 1046     		mov	r0, r2
 1029 0012 1946     		mov	r1, r3
 1030 0014 BD46     		mov	sp, r7
 1031 0016 80BC     		pop	{r7}
 1032 0018 7047     		bx	lr
 1033              		.cfi_endproc
 1034              	.LFE51:
 1035              		.size	SpeedControl_getI, .-SpeedControl_getI
 1036 001a 00BF     		.section	.text.SpeedControl_getD,"ax",%progbits
 1037              		.align	2
 1038              		.global	SpeedControl_getD
 1039              		.thumb
 1040              		.thumb_func
 1041              		.type	SpeedControl_getD, %function
 1042              	SpeedControl_getD:
 1043              	.LFB52:
 215:.\speedcontrol.c **** 
 216:.\speedcontrol.c **** /* Get D coefficient */
 217:.\speedcontrol.c **** double SpeedControl_getD() {
 1044              		.loc 1 217 0
 1045              		.cfi_startproc
 1046              		@ args = 0, pretend = 0, frame = 0
 1047              		@ frame_needed = 1, uses_anonymous_args = 0
 1048              		@ link register save eliminated.
 1049 0000 80B4     		push	{r7}
 1050              	.LCFI52:
 1051              		.cfi_def_cfa_offset 4
 1052 0002 00AF     		add	r7, sp, #0
 1053              		.cfi_offset 7, -4
 1054              	.LCFI53:
 1055              		.cfi_def_cfa_register 7
 218:.\speedcontrol.c ****     return coeffD;
ARM GAS  C:\Users\bccho\AppData\Local\Temp\ccHbMFsA.s 			page 24


 1056              		.loc 1 218 0
 1057 0004 40F20003 		movw	r3, #:lower16:coeffD
 1058 0008 C0F20003 		movt	r3, #:upper16:coeffD
 1059 000c D3E90023 		ldrd	r2, [r3]
 219:.\speedcontrol.c **** }
 1060              		.loc 1 219 0
 1061 0010 1046     		mov	r0, r2
 1062 0012 1946     		mov	r1, r3
 1063 0014 BD46     		mov	sp, r7
 1064 0016 80BC     		pop	{r7}
 1065 0018 7047     		bx	lr
 1066              		.cfi_endproc
 1067              	.LFE52:
 1068              		.size	SpeedControl_getD, .-SpeedControl_getD
 1069 001a 00BF     		.section	.text.SpeedControl_getSpeed,"ax",%progbits
 1070              		.align	2
 1071              		.global	SpeedControl_getSpeed
 1072              		.thumb
 1073              		.thumb_func
 1074              		.type	SpeedControl_getSpeed, %function
 1075              	SpeedControl_getSpeed:
 1076              	.LFB53:
 220:.\speedcontrol.c **** 
 221:.\speedcontrol.c **** /* Get current speed */
 222:.\speedcontrol.c **** double SpeedControl_getSpeed() {
 1077              		.loc 1 222 0
 1078              		.cfi_startproc
 1079              		@ args = 0, pretend = 0, frame = 0
 1080              		@ frame_needed = 1, uses_anonymous_args = 0
 1081 0000 80B5     		push	{r7, lr}
 1082              	.LCFI54:
 1083              		.cfi_def_cfa_offset 8
 1084 0002 00AF     		add	r7, sp, #0
 1085              		.cfi_offset 14, -4
 1086              		.cfi_offset 7, -8
 1087              	.LCFI55:
 1088              		.cfi_def_cfa_register 7
 223:.\speedcontrol.c ****     return getSpeed();
 1089              		.loc 1 223 0
 1090 0004 FFF7FEFF 		bl	getSpeed
 1091 0008 0246     		mov	r2, r0
 1092 000a 0B46     		mov	r3, r1
 224:.\speedcontrol.c **** }
 1093              		.loc 1 224 0
 1094 000c 1046     		mov	r0, r2
 1095 000e 1946     		mov	r1, r3
 1096 0010 80BD     		pop	{r7, pc}
 1097              		.cfi_endproc
 1098              	.LFE53:
 1099              		.size	SpeedControl_getSpeed, .-SpeedControl_getSpeed
 1100 0012 00BF     		.section	.text.SpeedControl_getDistance,"ax",%progbits
 1101              		.align	2
 1102              		.global	SpeedControl_getDistance
 1103              		.thumb
 1104              		.thumb_func
 1105              		.type	SpeedControl_getDistance, %function
 1106              	SpeedControl_getDistance:
ARM GAS  C:\Users\bccho\AppData\Local\Temp\ccHbMFsA.s 			page 25


 1107              	.LFB54:
 225:.\speedcontrol.c **** 
 226:.\speedcontrol.c **** /* Get total distance */
 227:.\speedcontrol.c **** double SpeedControl_getDistance() {
 1108              		.loc 1 227 0
 1109              		.cfi_startproc
 1110              		@ args = 0, pretend = 0, frame = 0
 1111              		@ frame_needed = 1, uses_anonymous_args = 0
 1112              		@ link register save eliminated.
 1113 0000 80B4     		push	{r7}
 1114              	.LCFI56:
 1115              		.cfi_def_cfa_offset 4
 1116 0002 00AF     		add	r7, sp, #0
 1117              		.cfi_offset 7, -4
 1118              	.LCFI57:
 1119              		.cfi_def_cfa_register 7
 228:.\speedcontrol.c ****     return totalDistance;
 1120              		.loc 1 228 0
 1121 0004 40F20003 		movw	r3, #:lower16:totalDistance
 1122 0008 C0F20003 		movt	r3, #:upper16:totalDistance
 1123 000c D3E90023 		ldrd	r2, [r3]
 229:.\speedcontrol.c **** }
 1124              		.loc 1 229 0
 1125 0010 1046     		mov	r0, r2
 1126 0012 1946     		mov	r1, r3
 1127 0014 BD46     		mov	sp, r7
 1128 0016 80BC     		pop	{r7}
 1129 0018 7047     		bx	lr
 1130              		.cfi_endproc
 1131              	.LFE54:
 1132              		.size	SpeedControl_getDistance, .-SpeedControl_getDistance
 1133 001a 00BF     		.section	.text.SpeedControl_getSteadyStateThrottle,"ax",%progbits
 1134              		.align	2
 1135              		.global	SpeedControl_getSteadyStateThrottle
 1136              		.thumb
 1137              		.thumb_func
 1138              		.type	SpeedControl_getSteadyStateThrottle, %function
 1139              	SpeedControl_getSteadyStateThrottle:
 1140              	.LFB55:
 230:.\speedcontrol.c **** 
 231:.\speedcontrol.c **** /* Get steady state throttle */
 232:.\speedcontrol.c **** int SpeedControl_getSteadyStateThrottle() {
 1141              		.loc 1 232 0
 1142              		.cfi_startproc
 1143              		@ args = 0, pretend = 0, frame = 0
 1144              		@ frame_needed = 1, uses_anonymous_args = 0
 1145              		@ link register save eliminated.
 1146 0000 80B4     		push	{r7}
 1147              	.LCFI58:
 1148              		.cfi_def_cfa_offset 4
 1149 0002 00AF     		add	r7, sp, #0
 1150              		.cfi_offset 7, -4
 1151              	.LCFI59:
 1152              		.cfi_def_cfa_register 7
 233:.\speedcontrol.c ****     return throttleSS;
 1153              		.loc 1 233 0
 1154 0004 40F20003 		movw	r3, #:lower16:throttleSS
ARM GAS  C:\Users\bccho\AppData\Local\Temp\ccHbMFsA.s 			page 26


 1155 0008 C0F20003 		movt	r3, #:upper16:throttleSS
 1156 000c 1B68     		ldr	r3, [r3, #0]
 234:.\speedcontrol.c **** }
 1157              		.loc 1 234 0
 1158 000e 1846     		mov	r0, r3
 1159 0010 BD46     		mov	sp, r7
 1160 0012 80BC     		pop	{r7}
 1161 0014 7047     		bx	lr
 1162              		.cfi_endproc
 1163              	.LFE55:
 1164              		.size	SpeedControl_getSteadyStateThrottle, .-SpeedControl_getSteadyStateThrottle
 1165 0016 00BF     		.section	.rodata
 1166 00f1 000000   		.align	2
 1167              	.LC3:
 1168 00f4 43616E6E 		.ascii	"Cannot change throttle when PID on\012\000"
 1168      6F742063 
 1168      68616E67 
 1168      65207468 
 1168      726F7474 
 1169              		.section	.text.SpeedControl_setThrottle,"ax",%progbits
 1170              		.align	2
 1171              		.global	SpeedControl_setThrottle
 1172              		.thumb
 1173              		.thumb_func
 1174              		.type	SpeedControl_setThrottle, %function
 1175              	SpeedControl_setThrottle:
 1176              	.LFB56:
 235:.\speedcontrol.c **** 
 236:.\speedcontrol.c **** /* Set throttle */
 237:.\speedcontrol.c **** void SpeedControl_setThrottle(int throttle) {
 1177              		.loc 1 237 0
 1178              		.cfi_startproc
 1179              		@ args = 0, pretend = 0, frame = 8
 1180              		@ frame_needed = 1, uses_anonymous_args = 0
 1181 0000 80B5     		push	{r7, lr}
 1182              	.LCFI60:
 1183              		.cfi_def_cfa_offset 8
 1184 0002 82B0     		sub	sp, sp, #8
 1185              	.LCFI61:
 1186              		.cfi_def_cfa_offset 16
 1187 0004 00AF     		add	r7, sp, #0
 1188              		.cfi_offset 14, -4
 1189              		.cfi_offset 7, -8
 1190              	.LCFI62:
 1191              		.cfi_def_cfa_register 7
 1192 0006 7860     		str	r0, [r7, #4]
 238:.\speedcontrol.c ****     if (!throttlePIDon) setThrottle(throttle);
 1193              		.loc 1 238 0
 1194 0008 40F20003 		movw	r3, #:lower16:throttlePIDon
 1195 000c C0F20003 		movt	r3, #:upper16:throttlePIDon
 1196 0010 1B68     		ldr	r3, [r3, #0]
 1197 0012 002B     		cmp	r3, #0
 1198 0014 03D1     		bne	.L62
 1199 0016 7868     		ldr	r0, [r7, #4]
 1200 0018 FFF7FEFF 		bl	setThrottle
 1201 001c 05E0     		b	.L64
 1202              	.L62:
ARM GAS  C:\Users\bccho\AppData\Local\Temp\ccHbMFsA.s 			page 27


 239:.\speedcontrol.c ****     else UART_PutString("Cannot change throttle when PID on\n");
 1203              		.loc 1 239 0
 1204 001e 40F20000 		movw	r0, #:lower16:.LC3
 1205 0022 C0F20000 		movt	r0, #:upper16:.LC3
 1206 0026 FFF7FEFF 		bl	UART_PutString
 1207              	.L64:
 240:.\speedcontrol.c **** }
 1208              		.loc 1 240 0
 1209 002a 07F10807 		add	r7, r7, #8
 1210 002e BD46     		mov	sp, r7
 1211 0030 80BD     		pop	{r7, pc}
 1212              		.cfi_endproc
 1213              	.LFE56:
 1214              		.size	SpeedControl_setThrottle, .-SpeedControl_setThrottle
 1215 0032 00BF     		.section	.text.SpeedControl_getThrottle,"ax",%progbits
 1216              		.align	2
 1217              		.global	SpeedControl_getThrottle
 1218              		.thumb
 1219              		.thumb_func
 1220              		.type	SpeedControl_getThrottle, %function
 1221              	SpeedControl_getThrottle:
 1222              	.LFB57:
 241:.\speedcontrol.c **** 
 242:.\speedcontrol.c **** /* Get throttle */
 243:.\speedcontrol.c **** int SpeedControl_getThrottle() {
 1223              		.loc 1 243 0
 1224              		.cfi_startproc
 1225              		@ args = 0, pretend = 0, frame = 0
 1226              		@ frame_needed = 1, uses_anonymous_args = 0
 1227              		@ link register save eliminated.
 1228 0000 80B4     		push	{r7}
 1229              	.LCFI63:
 1230              		.cfi_def_cfa_offset 4
 1231 0002 00AF     		add	r7, sp, #0
 1232              		.cfi_offset 7, -4
 1233              	.LCFI64:
 1234              		.cfi_def_cfa_register 7
 244:.\speedcontrol.c ****     return throttle;
 1235              		.loc 1 244 0
 1236 0004 40F20003 		movw	r3, #:lower16:throttle
 1237 0008 C0F20003 		movt	r3, #:upper16:throttle
 1238 000c 1B68     		ldr	r3, [r3, #0]
 245:.\speedcontrol.c **** }
 1239              		.loc 1 245 0
 1240 000e 1846     		mov	r0, r3
 1241 0010 BD46     		mov	sp, r7
 1242 0012 80BC     		pop	{r7}
 1243 0014 7047     		bx	lr
 1244              		.cfi_endproc
 1245              	.LFE57:
 1246              		.size	SpeedControl_getThrottle, .-SpeedControl_getThrottle
 1247 0016 00BF     		.section	.text.SpeedControl_kill,"ax",%progbits
 1248              		.align	2
 1249              		.global	SpeedControl_kill
 1250              		.thumb
 1251              		.thumb_func
 1252              		.type	SpeedControl_kill, %function
ARM GAS  C:\Users\bccho\AppData\Local\Temp\ccHbMFsA.s 			page 28


 1253              	SpeedControl_kill:
 1254              	.LFB58:
 246:.\speedcontrol.c **** 
 247:.\speedcontrol.c **** /* Kill throttle and speed control */
 248:.\speedcontrol.c **** void SpeedControl_kill() {
 1255              		.loc 1 248 0
 1256              		.cfi_startproc
 1257              		@ args = 0, pretend = 0, frame = 0
 1258              		@ frame_needed = 1, uses_anonymous_args = 0
 1259 0000 80B5     		push	{r7, lr}
 1260              	.LCFI65:
 1261              		.cfi_def_cfa_offset 8
 1262 0002 00AF     		add	r7, sp, #0
 1263              		.cfi_offset 14, -4
 1264              		.cfi_offset 7, -8
 1265              	.LCFI66:
 1266              		.cfi_def_cfa_register 7
 249:.\speedcontrol.c ****     killAll();
 1267              		.loc 1 249 0
 1268 0004 FFF7FEFF 		bl	killAll
 250:.\speedcontrol.c **** }
 1269              		.loc 1 250 0
 1270 0008 80BD     		pop	{r7, pc}
 1271              		.cfi_endproc
 1272              	.LFE58:
 1273              		.size	SpeedControl_kill, .-SpeedControl_kill
 1274              		.global	__aeabi_dmul
 1275              		.global	__aeabi_dadd
 1276 000a 00BF     		.section	.text.SpeedControl_handleWheelTick,"ax",%progbits
 1277              		.align	2
 1278              		.global	SpeedControl_handleWheelTick
 1279              		.thumb
 1280              		.thumb_func
 1281              		.type	SpeedControl_handleWheelTick, %function
 1282              	SpeedControl_handleWheelTick:
 1283              	.LFB59:
 251:.\speedcontrol.c **** 
 252:.\speedcontrol.c **** /* Handle wheel tick */
 253:.\speedcontrol.c **** void SpeedControl_handleWheelTick() {
 1284              		.loc 1 253 0
 1285              		.cfi_startproc
 1286              		@ args = 0, pretend = 0, frame = 8
 1287              		@ frame_needed = 1, uses_anonymous_args = 0
 1288 0000 80B5     		push	{r7, lr}
 1289              	.LCFI67:
 1290              		.cfi_def_cfa_offset 8
 1291 0002 82B0     		sub	sp, sp, #8
 1292              	.LCFI68:
 1293              		.cfi_def_cfa_offset 16
 1294 0004 00AF     		add	r7, sp, #0
 1295              		.cfi_offset 14, -4
 1296              		.cfi_offset 7, -8
 1297              	.LCFI69:
 1298              		.cfi_def_cfa_register 7
 254:.\speedcontrol.c ****     int tickCount = Timer_Wheel_Tick_ReadCapture();
 1299              		.loc 1 254 0
 1300 0006 FFF7FEFF 		bl	Timer_Wheel_Tick_ReadCapture
ARM GAS  C:\Users\bccho\AppData\Local\Temp\ccHbMFsA.s 			page 29


 1301 000a 0346     		mov	r3, r0
 1302 000c 3B60     		str	r3, [r7, #0]
 255:.\speedcontrol.c ****     
 256:.\speedcontrol.c ****     // Calculate tick delta
 257:.\speedcontrol.c ****     int tickDelta = oldTickCount - tickCount;
 1303              		.loc 1 257 0
 1304 000e 40F20003 		movw	r3, #:lower16:oldTickCount
 1305 0012 C0F20003 		movt	r3, #:upper16:oldTickCount
 1306 0016 1A68     		ldr	r2, [r3, #0]
 1307 0018 3B68     		ldr	r3, [r7, #0]
 1308 001a C3EB0203 		rsb	r3, r3, r2
 1309 001e 7B60     		str	r3, [r7, #4]
 258:.\speedcontrol.c ****     tickDelta = tickDelta < 0 ? TICK_TIMER_PERIOD + tickDelta : tickDelta;
 1310              		.loc 1 258 0
 1311 0020 7B68     		ldr	r3, [r7, #4]
 1312 0022 002B     		cmp	r3, #0
 1313 0024 07DA     		bge	.L70
 1314 0026 40F20003 		movw	r3, #:lower16:TICK_TIMER_PERIOD
 1315 002a C0F20003 		movt	r3, #:upper16:TICK_TIMER_PERIOD
 1316 002e 1A68     		ldr	r2, [r3, #0]
 1317 0030 7B68     		ldr	r3, [r7, #4]
 1318 0032 1344     		add	r3, r2, r3
 1319 0034 00E0     		b	.L71
 1320              	.L70:
 1321 0036 7B68     		ldr	r3, [r7, #4]
 1322              	.L71:
 1323 0038 7B60     		str	r3, [r7, #4]
 259:.\speedcontrol.c ****     bufWheelTick[bufWheelTickPos] = tickDelta;
 1324              		.loc 1 259 0
 1325 003a 40F20003 		movw	r3, #:lower16:bufWheelTickPos
 1326 003e C0F20003 		movt	r3, #:upper16:bufWheelTickPos
 1327 0042 1A68     		ldr	r2, [r3, #0]
 1328 0044 40F20003 		movw	r3, #:lower16:bufWheelTick
 1329 0048 C0F20003 		movt	r3, #:upper16:bufWheelTick
 1330 004c 7968     		ldr	r1, [r7, #4]
 1331 004e 43F82210 		str	r1, [r3, r2, lsl #2]
 260:.\speedcontrol.c ****     
 261:.\speedcontrol.c ****     // Increment buffer position, and update size and old tick count
 262:.\speedcontrol.c ****     bufWheelTickPos = (bufWheelTickPos + 1) % BUF_WHEEL_TICK_SIZE;
 1332              		.loc 1 262 0
 1333 0052 40F20003 		movw	r3, #:lower16:bufWheelTickPos
 1334 0056 C0F20003 		movt	r3, #:upper16:bufWheelTickPos
 1335 005a 1B68     		ldr	r3, [r3, #0]
 1336 005c 03F10101 		add	r1, r3, #1
 1337 0060 45F25653 		movw	r3, #:lower16:1431655766
 1338 0064 C5F25553 		movt	r3, #:upper16:1431655766
 1339 0068 83FB0102 		smull	r0, r2, r3, r1
 1340 006c 4FEAE173 		asr	r3, r1, #31
 1341 0070 C3EB0202 		rsb	r2, r3, r2
 1342 0074 1346     		mov	r3, r2
 1343 0076 4FEA4303 		lsl	r3, r3, #1
 1344 007a 1344     		add	r3, r3, r2
 1345 007c C3EB0102 		rsb	r2, r3, r1
 1346 0080 40F20003 		movw	r3, #:lower16:bufWheelTickPos
 1347 0084 C0F20003 		movt	r3, #:upper16:bufWheelTickPos
 1348 0088 1A60     		str	r2, [r3, #0]
 263:.\speedcontrol.c ****     if (bufWheelTickCurSize < BUF_WHEEL_TICK_SIZE) bufWheelTickCurSize++;
ARM GAS  C:\Users\bccho\AppData\Local\Temp\ccHbMFsA.s 			page 30


 1349              		.loc 1 263 0
 1350 008a 40F20003 		movw	r3, #:lower16:bufWheelTickCurSize
 1351 008e C0F20003 		movt	r3, #:upper16:bufWheelTickCurSize
 1352 0092 1B68     		ldr	r3, [r3, #0]
 1353 0094 022B     		cmp	r3, #2
 1354 0096 0BDC     		bgt	.L72
 1355 0098 40F20003 		movw	r3, #:lower16:bufWheelTickCurSize
 1356 009c C0F20003 		movt	r3, #:upper16:bufWheelTickCurSize
 1357 00a0 1B68     		ldr	r3, [r3, #0]
 1358 00a2 03F10102 		add	r2, r3, #1
 1359 00a6 40F20003 		movw	r3, #:lower16:bufWheelTickCurSize
 1360 00aa C0F20003 		movt	r3, #:upper16:bufWheelTickCurSize
 1361 00ae 1A60     		str	r2, [r3, #0]
 1362              	.L72:
 264:.\speedcontrol.c ****     oldTickCount = tickCount;
 1363              		.loc 1 264 0
 1364 00b0 40F20003 		movw	r3, #:lower16:oldTickCount
 1365 00b4 C0F20003 		movt	r3, #:upper16:oldTickCount
 1366 00b8 3A68     		ldr	r2, [r7, #0]
 1367 00ba 1A60     		str	r2, [r3, #0]
 265:.\speedcontrol.c ****     
 266:.\speedcontrol.c ****     // Update total distance
 267:.\speedcontrol.c ****     totalDistance += (1.0/5.0) * (M_PI * WHEEL_DIAM) / 12.0;
 1368              		.loc 1 267 0
 1369 00bc 40F20003 		movw	r3, #:lower16:WHEEL_DIAM
 1370 00c0 C0F20003 		movt	r3, #:upper16:WHEEL_DIAM
 1371 00c4 D3E90023 		ldrd	r2, [r3]
 1372 00c8 1046     		mov	r0, r2
 1373 00ca 1946     		mov	r1, r3
 1374 00cc 1AA3     		adr	r3, .L74
 1375 00ce D3E90023 		ldrd	r2, [r3]
 1376 00d2 FFF7FEFF 		bl	__aeabi_dmul
 1377 00d6 0246     		mov	r2, r0
 1378 00d8 0B46     		mov	r3, r1
 1379 00da 1046     		mov	r0, r2
 1380 00dc 1946     		mov	r1, r3
 1381 00de 18A3     		adr	r3, .L74+8
 1382 00e0 D3E90023 		ldrd	r2, [r3]
 1383 00e4 FFF7FEFF 		bl	__aeabi_dmul
 1384 00e8 0246     		mov	r2, r0
 1385 00ea 0B46     		mov	r3, r1
 1386 00ec 1046     		mov	r0, r2
 1387 00ee 1946     		mov	r1, r3
 1388 00f0 4FF00002 		mov	r2, #0
 1389 00f4 4FF08043 		mov	r3, #1073741824
 1390 00f8 03F52013 		add	r3, r3, #2621440
 1391 00fc FFF7FEFF 		bl	__aeabi_ddiv
 1392 0100 0246     		mov	r2, r0
 1393 0102 0B46     		mov	r3, r1
 1394 0104 1046     		mov	r0, r2
 1395 0106 1946     		mov	r1, r3
 1396 0108 40F20003 		movw	r3, #:lower16:totalDistance
 1397 010c C0F20003 		movt	r3, #:upper16:totalDistance
 1398 0110 D3E90023 		ldrd	r2, [r3]
 1399 0114 FFF7FEFF 		bl	__aeabi_dadd
 1400 0118 0246     		mov	r2, r0
 1401 011a 0B46     		mov	r3, r1
ARM GAS  C:\Users\bccho\AppData\Local\Temp\ccHbMFsA.s 			page 31


 1402 011c 1046     		mov	r0, r2
 1403 011e 1946     		mov	r1, r3
 1404 0120 40F20003 		movw	r3, #:lower16:totalDistance
 1405 0124 C0F20003 		movt	r3, #:upper16:totalDistance
 1406 0128 C3E90001 		strd	r0, [r3]
 268:.\speedcontrol.c **** }
 1407              		.loc 1 268 0
 1408 012c 07F10807 		add	r7, r7, #8
 1409 0130 BD46     		mov	sp, r7
 1410 0132 80BD     		pop	{r7, pc}
 1411              	.L75:
 1412 0134 AFF30080 		.align	3
 1413              	.L74:
 1414 0138 182D4454 		.word	1413754136
 1415 013c FB210940 		.word	1074340347
 1416 0140 9A999999 		.word	-1717986918
 1417 0144 9999C93F 		.word	1070176665
 1418              		.cfi_endproc
 1419              	.LFE59:
 1420              		.size	SpeedControl_handleWheelTick, .-SpeedControl_handleWheelTick
 1421              		.section	.rodata
 1422              		.align	2
 1423              	.LC4:
 1424 0118 57686565 		.ascii	"Wheel timeout\012\000"
 1424      6C207469 
 1424      6D656F75 
 1424      740A00
 1425              		.section	.text.SpeedControl_handleWheelTickTimeout,"ax",%progbits
 1426              		.align	2
 1427              		.global	SpeedControl_handleWheelTickTimeout
 1428              		.thumb
 1429              		.thumb_func
 1430              		.type	SpeedControl_handleWheelTickTimeout, %function
 1431              	SpeedControl_handleWheelTickTimeout:
 1432              	.LFB60:
 269:.\speedcontrol.c **** 
 270:.\speedcontrol.c **** 
 271:.\speedcontrol.c **** /* Handle wheel tick timeout */
 272:.\speedcontrol.c **** void SpeedControl_handleWheelTickTimeout() {
 1433              		.loc 1 272 0
 1434              		.cfi_startproc
 1435              		@ args = 0, pretend = 0, frame = 0
 1436              		@ frame_needed = 1, uses_anonymous_args = 0
 1437 0000 80B5     		push	{r7, lr}
 1438              	.LCFI70:
 1439              		.cfi_def_cfa_offset 8
 1440 0002 00AF     		add	r7, sp, #0
 1441              		.cfi_offset 14, -4
 1442              		.cfi_offset 7, -8
 1443              	.LCFI71:
 1444              		.cfi_def_cfa_register 7
 273:.\speedcontrol.c ****     // Reset speed and derivative tracking
 274:.\speedcontrol.c ****     resetSpeedTracking();
 1445              		.loc 1 274 0
 1446 0004 FFF7FEFF 		bl	resetSpeedTracking
 275:.\speedcontrol.c ****     resetDerivativeTracking();
 1447              		.loc 1 275 0
ARM GAS  C:\Users\bccho\AppData\Local\Temp\ccHbMFsA.s 			page 32


 1448 0008 FFF7FEFF 		bl	resetDerivativeTracking
 276:.\speedcontrol.c ****     UART_PutString("Wheel timeout\n");
 1449              		.loc 1 276 0
 1450 000c 40F20000 		movw	r0, #:lower16:.LC4
 1451 0010 C0F20000 		movt	r0, #:upper16:.LC4
 1452 0014 FFF7FEFF 		bl	UART_PutString
 277:.\speedcontrol.c **** }
 1453              		.loc 1 277 0
 1454 0018 80BD     		pop	{r7, pc}
 1455              		.cfi_endproc
 1456              	.LFE60:
 1457              		.size	SpeedControl_handleWheelTickTimeout, .-SpeedControl_handleWheelTickTimeout
 1458              		.global	__aeabi_i2d
 1459 001a 00BF     		.section	.text.SpeedControl_handleTimer,"ax",%progbits
 1460              		.align	2
 1461              		.global	SpeedControl_handleTimer
 1462              		.thumb
 1463              		.thumb_func
 1464              		.type	SpeedControl_handleTimer, %function
 1465              	SpeedControl_handleTimer:
 1466              	.LFB61:
 278:.\speedcontrol.c **** 
 279:.\speedcontrol.c **** 
 280:.\speedcontrol.c **** 
 281:.\speedcontrol.c **** /* Handle PID timer. Controls speed and updates time */
 282:.\speedcontrol.c **** void SpeedControl_handleTimer() {
 1467              		.loc 1 282 0
 1468              		.cfi_startproc
 1469              		@ args = 0, pretend = 0, frame = 0
 1470              		@ frame_needed = 1, uses_anonymous_args = 0
 1471 0000 B0B5     		push	{r4, r5, r7, lr}
 1472              	.LCFI72:
 1473              		.cfi_def_cfa_offset 16
 1474 0002 00AF     		add	r7, sp, #0
 1475              		.cfi_offset 14, -4
 1476              		.cfi_offset 7, -8
 1477              		.cfi_offset 5, -12
 1478              		.cfi_offset 4, -16
 1479              	.LCFI73:
 1480              		.cfi_def_cfa_register 7
 283:.\speedcontrol.c ****     if (throttlePIDon) {
 1481              		.loc 1 283 0
 1482 0004 40F20003 		movw	r3, #:lower16:throttlePIDon
 1483 0008 C0F20003 		movt	r3, #:upper16:throttlePIDon
 1484 000c 1B68     		ldr	r3, [r3, #0]
 1485 000e 002B     		cmp	r3, #0
 1486 0010 39D0     		beq	.L80
 284:.\speedcontrol.c ****         elapsedTime += (double) PID_TIMER_PERIOD / (double) CLK_FREQ;
 1487              		.loc 1 284 0
 1488 0012 40F20003 		movw	r3, #:lower16:PID_TIMER_PERIOD
 1489 0016 C0F20003 		movt	r3, #:upper16:PID_TIMER_PERIOD
 1490 001a 1B68     		ldr	r3, [r3, #0]
 1491 001c 1846     		mov	r0, r3
 1492 001e FFF7FEFF 		bl	__aeabi_i2d
 1493 0022 0446     		mov	r4, r0
 1494 0024 0D46     		mov	r5, r1
 1495 0026 40F20003 		movw	r3, #:lower16:CLK_FREQ
ARM GAS  C:\Users\bccho\AppData\Local\Temp\ccHbMFsA.s 			page 33


 1496 002a C0F20003 		movt	r3, #:upper16:CLK_FREQ
 1497 002e 1B68     		ldr	r3, [r3, #0]
 1498 0030 1846     		mov	r0, r3
 1499 0032 FFF7FEFF 		bl	__aeabi_i2d
 1500 0036 0246     		mov	r2, r0
 1501 0038 0B46     		mov	r3, r1
 1502 003a 2046     		mov	r0, r4
 1503 003c 2946     		mov	r1, r5
 1504 003e FFF7FEFF 		bl	__aeabi_ddiv
 1505 0042 0246     		mov	r2, r0
 1506 0044 0B46     		mov	r3, r1
 1507 0046 1046     		mov	r0, r2
 1508 0048 1946     		mov	r1, r3
 1509 004a 40F20003 		movw	r3, #:lower16:elapsedTime
 1510 004e C0F20003 		movt	r3, #:upper16:elapsedTime
 1511 0052 D3E90023 		ldrd	r2, [r3]
 1512 0056 FFF7FEFF 		bl	__aeabi_dadd
 1513 005a 0246     		mov	r2, r0
 1514 005c 0B46     		mov	r3, r1
 1515 005e 1046     		mov	r0, r2
 1516 0060 1946     		mov	r1, r3
 1517 0062 40F20003 		movw	r3, #:lower16:elapsedTime
 1518 0066 C0F20003 		movt	r3, #:upper16:elapsedTime
 1519 006a C3E90001 		strd	r0, [r3]
 285:.\speedcontrol.c ****         setThrottle(controlThrottle(getSpeed()));
 1520              		.loc 1 285 0
 1521 006e FFF7FEFF 		bl	getSpeed
 1522 0072 0246     		mov	r2, r0
 1523 0074 0B46     		mov	r3, r1
 1524 0076 1046     		mov	r0, r2
 1525 0078 1946     		mov	r1, r3
 1526 007a FFF7FEFF 		bl	controlThrottle
 1527 007e 0346     		mov	r3, r0
 1528 0080 1846     		mov	r0, r3
 1529 0082 FFF7FEFF 		bl	setThrottle
 1530              	.L80:
 286:.\speedcontrol.c ****     }
 287:.\speedcontrol.c **** }
 1531              		.loc 1 287 0
 1532 0086 B0BD     		pop	{r4, r5, r7, pc}
 1533              		.cfi_endproc
 1534              	.LFE61:
 1535              		.size	SpeedControl_handleTimer, .-SpeedControl_handleTimer
 1536              		.global	__aeabi_dcmpge
 1537              		.section	.rodata
 1538 0127 00       		.align	2
 1539              	.LC5:
 1540 0128 54617267 		.ascii	"Target distance reached in %6.2f s\012\000"
 1540      65742064 
 1540      69737461 
 1540      6E636520 
 1540      72656163 
 1541              		.global	__aeabi_dsub
 1542              		.global	__aeabi_dcmpgt
 1543              		.global	__aeabi_dcmple
 1544              		.global	__aeabi_d2iz
 1545              		.align	2
ARM GAS  C:\Users\bccho\AppData\Local\Temp\ccHbMFsA.s 			page 34


 1546              	.LC6:
 1547 014c 2533692C 		.ascii	"%3i, %6.2f, %6.2f, %6.2f, %8.5f, %6.2f | %6.2f, %6."
 1547      2025362E 
 1547      32662C20 
 1547      25362E32 
 1547      662C2025 
 1548 017f 32662C20 		.ascii	"2f, %6.2f\012\000"
 1548      25362E32 
 1548      660A00
 1549              		.section	.text.controlThrottle,"ax",%progbits
 1550              		.align	2
 1551              		.thumb
 1552              		.thumb_func
 1553              		.type	controlThrottle, %function
 1554              	controlThrottle:
 1555              	.LFB62:
 288:.\speedcontrol.c **** 
 289:.\speedcontrol.c **** 
 290:.\speedcontrol.c **** 
 291:.\speedcontrol.c **** /* Updates the error values, and uses them to update
 292:.\speedcontrol.c ****  * the set point throttle for PWM control
 293:.\speedcontrol.c ****  *
 294:.\speedcontrol.c ****  * Inputs: speed (double)
 295:.\speedcontrol.c ****  * Returns: newThrottle (int) */
 296:.\speedcontrol.c **** static int controlThrottle(double speed) {
 1556              		.loc 1 296 0
 1557              		.cfi_startproc
 1558              		@ args = 0, pretend = 0, frame = 64
 1559              		@ frame_needed = 1, uses_anonymous_args = 0
 1560 0000 B0B5     		push	{r4, r5, r7, lr}
 1561              	.LCFI74:
 1562              		.cfi_def_cfa_offset 16
 1563 0002 A0B0     		sub	sp, sp, #128
 1564              	.LCFI75:
 1565              		.cfi_def_cfa_offset 144
 1566 0004 10AF     		add	r7, sp, #64
 1567              		.cfi_offset 14, -4
 1568              		.cfi_offset 7, -8
 1569              		.cfi_offset 5, -12
 1570              		.cfi_offset 4, -16
 1571              	.LCFI76:
 1572              		.cfi_def_cfa 7, 80
 1573 0006 C7E90001 		strd	r0, [r7]
 297:.\speedcontrol.c ****     // Handle distance timeout
 298:.\speedcontrol.c ****     if (distanceTimeoutOn && totalDistance >= targetDistance) {
 1574              		.loc 1 298 0
 1575 000a 40F20003 		movw	r3, #:lower16:distanceTimeoutOn
 1576 000e C0F20003 		movt	r3, #:upper16:distanceTimeoutOn
 1577 0012 1B68     		ldr	r3, [r3, #0]
 1578 0014 002B     		cmp	r3, #0
 1579 0016 34D0     		beq	.L82
 1580 0018 40F20003 		movw	r3, #:lower16:totalDistance
 1581 001c C0F20003 		movt	r3, #:upper16:totalDistance
 1582 0020 D3E90001 		ldrd	r0, [r3]
 1583 0024 40F20003 		movw	r3, #:lower16:targetDistance
 1584 0028 C0F20003 		movt	r3, #:upper16:targetDistance
 1585 002c D3E90023 		ldrd	r2, [r3]
ARM GAS  C:\Users\bccho\AppData\Local\Temp\ccHbMFsA.s 			page 35


 1586 0030 4FF0000C 		mov	ip, #0
 1587 0034 6446     		mov	r4, ip
 1588 0036 FFF7FEFF 		bl	__aeabi_dcmpge
 1589 003a 0346     		mov	r3, r0
 1590 003c 002B     		cmp	r3, #0
 1591 003e 02D0     		beq	.L83
 1592              	.L84:
 1593 0040 4FF00103 		mov	r3, #1
 1594 0044 1C46     		mov	r4, r3
 1595              	.L83:
 1596 0046 E3B2     		uxtb	r3, r4
 1597 0048 002B     		cmp	r3, #0
 1598 004a 1AD0     		beq	.L82
 299:.\speedcontrol.c ****         killAll();
 1599              		.loc 1 299 0
 1600 004c FFF7FEFF 		bl	killAll
 300:.\speedcontrol.c ****         
 301:.\speedcontrol.c ****         sprintf(strbuffer, "Target distance reached in %6.2f s\n", elapsedTime);
 1601              		.loc 1 301 0
 1602 0050 40F20003 		movw	r3, #:lower16:elapsedTime
 1603 0054 C0F20003 		movt	r3, #:upper16:elapsedTime
 1604 0058 D3E90023 		ldrd	r2, [r3]
 1605 005c 40F20000 		movw	r0, #:lower16:strbuffer
 1606 0060 C0F20000 		movt	r0, #:upper16:strbuffer
 1607 0064 40F20001 		movw	r1, #:lower16:.LC5
 1608 0068 C0F20001 		movt	r1, #:upper16:.LC5
 1609 006c FFF7FEFF 		bl	sprintf
 302:.\speedcontrol.c ****         UART_PutString(strbuffer);
 1610              		.loc 1 302 0
 1611 0070 40F20000 		movw	r0, #:lower16:strbuffer
 1612 0074 C0F20000 		movt	r0, #:upper16:strbuffer
 1613 0078 FFF7FEFF 		bl	UART_PutString
 303:.\speedcontrol.c ****         return 0;
 1614              		.loc 1 303 0
 1615 007c 4FF00003 		mov	r3, #0
 1616 0080 D7E1     		b	.L85
 1617              	.L82:
 1618              	.LBB2:
 304:.\speedcontrol.c ****     }
 305:.\speedcontrol.c ****     else {
 306:.\speedcontrol.c ****         // Dynamically update target speed if enabled
 307:.\speedcontrol.c ****         double dynamicTargetSpeed = targetSpeed;
 1619              		.loc 1 307 0
 1620 0082 40F20003 		movw	r3, #:lower16:targetSpeed
 1621 0086 C0F20003 		movt	r3, #:upper16:targetSpeed
 1622 008a D3E90023 		ldrd	r2, [r3]
 1623 008e C7E90223 		strd	r2, [r7, #8]
 308:.\speedcontrol.c ****         double distanceLeft = 0;
 1624              		.loc 1 308 0
 1625 0092 4FF00002 		mov	r2, #0
 1626 0096 4FF00003 		mov	r3, #0
 1627 009a C7E90423 		strd	r2, [r7, #16]
 309:.\speedcontrol.c ****         double timeLeft = 0;
 1628              		.loc 1 309 0
 1629 009e 4FF00002 		mov	r2, #0
 1630 00a2 4FF00003 		mov	r3, #0
 1631 00a6 C7E90623 		strd	r2, [r7, #24]
ARM GAS  C:\Users\bccho\AppData\Local\Temp\ccHbMFsA.s 			page 36


 310:.\speedcontrol.c ****         const double MAX_SPEED = targetSpeed * 2;
 1632              		.loc 1 310 0
 1633 00aa 40F20003 		movw	r3, #:lower16:targetSpeed
 1634 00ae C0F20003 		movt	r3, #:upper16:targetSpeed
 1635 00b2 D3E90023 		ldrd	r2, [r3]
 1636 00b6 1046     		mov	r0, r2
 1637 00b8 1946     		mov	r1, r3
 1638 00ba FFF7FEFF 		bl	__aeabi_dadd
 1639 00be 0246     		mov	r2, r0
 1640 00c0 0B46     		mov	r3, r1
 1641 00c2 C7E90823 		strd	r2, [r7, #32]
 311:.\speedcontrol.c ****         if (dynamicTargetSpeedUpdateOn) {
 1642              		.loc 1 311 0
 1643 00c6 40F20003 		movw	r3, #:lower16:dynamicTargetSpeedUpdateOn
 1644 00ca C0F20003 		movt	r3, #:upper16:dynamicTargetSpeedUpdateOn
 1645 00ce 1B68     		ldr	r3, [r3, #0]
 1646 00d0 002B     		cmp	r3, #0
 1647 00d2 7AD0     		beq	.L86
 312:.\speedcontrol.c ****             distanceLeft = targetDistance - totalDistance;
 1648              		.loc 1 312 0
 1649 00d4 40F20003 		movw	r3, #:lower16:targetDistance
 1650 00d8 C0F20003 		movt	r3, #:upper16:targetDistance
 1651 00dc D3E90001 		ldrd	r0, [r3]
 1652 00e0 40F20003 		movw	r3, #:lower16:totalDistance
 1653 00e4 C0F20003 		movt	r3, #:upper16:totalDistance
 1654 00e8 D3E90023 		ldrd	r2, [r3]
 1655 00ec FFF7FEFF 		bl	__aeabi_dsub
 1656 00f0 0246     		mov	r2, r0
 1657 00f2 0B46     		mov	r3, r1
 1658 00f4 C7E90423 		strd	r2, [r7, #16]
 313:.\speedcontrol.c ****             timeLeft = targetTime - elapsedTime;
 1659              		.loc 1 313 0
 1660 00f8 40F20003 		movw	r3, #:lower16:targetTime
 1661 00fc C0F20003 		movt	r3, #:upper16:targetTime
 1662 0100 D3E90001 		ldrd	r0, [r3]
 1663 0104 40F20003 		movw	r3, #:lower16:elapsedTime
 1664 0108 C0F20003 		movt	r3, #:upper16:elapsedTime
 1665 010c D3E90023 		ldrd	r2, [r3]
 1666 0110 FFF7FEFF 		bl	__aeabi_dsub
 1667 0114 0246     		mov	r2, r0
 1668 0116 0B46     		mov	r3, r1
 1669 0118 C7E90623 		strd	r2, [r7, #24]
 314:.\speedcontrol.c ****             if (distanceLeft > 0) {
 1670              		.loc 1 314 0
 1671 011c 4FF00003 		mov	r3, #0
 1672 0120 1C46     		mov	r4, r3
 1673 0122 D7E90401 		ldrd	r0, [r7, #16]
 1674 0126 4FF00002 		mov	r2, #0
 1675 012a 4FF00003 		mov	r3, #0
 1676 012e FFF7FEFF 		bl	__aeabi_dcmpgt
 1677 0132 0346     		mov	r3, r0
 1678 0134 002B     		cmp	r3, #0
 1679 0136 02D0     		beq	.L87
 1680              	.L88:
 1681 0138 4FF00103 		mov	r3, #1
 1682 013c 1C46     		mov	r4, r3
 1683              	.L87:
ARM GAS  C:\Users\bccho\AppData\Local\Temp\ccHbMFsA.s 			page 37


 1684 013e E3B2     		uxtb	r3, r4
 1685 0140 002B     		cmp	r3, #0
 1686 0142 42D0     		beq	.L86
 315:.\speedcontrol.c ****                 if (timeLeft <= 0) {
 1687              		.loc 1 315 0
 1688 0144 4FF00003 		mov	r3, #0
 1689 0148 1C46     		mov	r4, r3
 1690 014a D7E90601 		ldrd	r0, [r7, #24]
 1691 014e 4FF00002 		mov	r2, #0
 1692 0152 4FF00003 		mov	r3, #0
 1693 0156 FFF7FEFF 		bl	__aeabi_dcmple
 1694 015a 0346     		mov	r3, r0
 1695 015c 002B     		cmp	r3, #0
 1696 015e 02D0     		beq	.L89
 1697              	.L90:
 1698 0160 4FF00103 		mov	r3, #1
 1699 0164 1C46     		mov	r4, r3
 1700              	.L89:
 1701 0166 E3B2     		uxtb	r3, r4
 1702 0168 002B     		cmp	r3, #0
 1703 016a 04D0     		beq	.L91
 316:.\speedcontrol.c ****                     dynamicTargetSpeed = MAX_SPEED;
 1704              		.loc 1 316 0
 1705 016c D7E90823 		ldrd	r2, [r7, #32]
 1706 0170 C7E90223 		strd	r2, [r7, #8]
 1707 0174 29E0     		b	.L86
 1708              	.L91:
 317:.\speedcontrol.c ****                 } else {
 318:.\speedcontrol.c ****                     dynamicTargetSpeed = distanceLeft / timeLeft;
 1709              		.loc 1 318 0
 1710 0176 D7E90401 		ldrd	r0, [r7, #16]
 1711 017a D7E90623 		ldrd	r2, [r7, #24]
 1712 017e FFF7FEFF 		bl	__aeabi_ddiv
 1713 0182 0246     		mov	r2, r0
 1714 0184 0B46     		mov	r3, r1
 1715 0186 C7E90223 		strd	r2, [r7, #8]
 319:.\speedcontrol.c ****                     if (dynamicTargetSpeed > MAX_SPEED) dynamicTargetSpeed = targetSpeed * 2; // li
 1716              		.loc 1 319 0
 1717 018a 4FF00003 		mov	r3, #0
 1718 018e 1C46     		mov	r4, r3
 1719 0190 D7E90201 		ldrd	r0, [r7, #8]
 1720 0194 D7E90823 		ldrd	r2, [r7, #32]
 1721 0198 FFF7FEFF 		bl	__aeabi_dcmpgt
 1722 019c 0346     		mov	r3, r0
 1723 019e 002B     		cmp	r3, #0
 1724 01a0 02D0     		beq	.L92
 1725              	.L93:
 1726 01a2 4FF00103 		mov	r3, #1
 1727 01a6 1C46     		mov	r4, r3
 1728              	.L92:
 1729 01a8 E3B2     		uxtb	r3, r4
 1730 01aa 002B     		cmp	r3, #0
 1731 01ac 0DD0     		beq	.L86
 1732 01ae 40F20003 		movw	r3, #:lower16:targetSpeed
 1733 01b2 C0F20003 		movt	r3, #:upper16:targetSpeed
 1734 01b6 D3E90023 		ldrd	r2, [r3]
 1735 01ba 1046     		mov	r0, r2
ARM GAS  C:\Users\bccho\AppData\Local\Temp\ccHbMFsA.s 			page 38


 1736 01bc 1946     		mov	r1, r3
 1737 01be FFF7FEFF 		bl	__aeabi_dadd
 1738 01c2 0246     		mov	r2, r0
 1739 01c4 0B46     		mov	r3, r1
 1740 01c6 C7E90223 		strd	r2, [r7, #8]
 1741              	.L86:
 320:.\speedcontrol.c ****                 }
 321:.\speedcontrol.c ****             }
 322:.\speedcontrol.c ****         }
 323:.\speedcontrol.c **** 
 324:.\speedcontrol.c ****         // Calculate error
 325:.\speedcontrol.c ****         double error = dynamicTargetSpeed - speed;
 1742              		.loc 1 325 0
 1743 01ca D7E90201 		ldrd	r0, [r7, #8]
 1744 01ce D7E90023 		ldrd	r2, [r7]
 1745 01d2 FFF7FEFF 		bl	__aeabi_dsub
 1746 01d6 0246     		mov	r2, r0
 1747 01d8 0B46     		mov	r3, r1
 1748 01da C7E90A23 		strd	r2, [r7, #40]
 326:.\speedcontrol.c ****         bufSpeed[bufSpeedPos] = error;
 1749              		.loc 1 326 0
 1750 01de 40F20003 		movw	r3, #:lower16:bufSpeedPos
 1751 01e2 C0F20003 		movt	r3, #:upper16:bufSpeedPos
 1752 01e6 1A68     		ldr	r2, [r3, #0]
 1753 01e8 40F20003 		movw	r3, #:lower16:bufSpeed
 1754 01ec C0F20003 		movt	r3, #:upper16:bufSpeed
 1755 01f0 4FEAC202 		lsl	r2, r2, #3
 1756 01f4 02EB0301 		add	r1, r2, r3
 1757 01f8 D7E90A23 		ldrd	r2, [r7, #40]
 1758 01fc C1E90023 		strd	r2, [r1]
 327:.\speedcontrol.c ****         // Calculate derivative of error
 328:.\speedcontrol.c ****         double errorDerivative = (bufSpeed[bufSpeedPos] - bufSpeed[bufSpeedLastPos]) / (double) BUF
 1759              		.loc 1 328 0
 1760 0200 40F20003 		movw	r3, #:lower16:bufSpeedPos
 1761 0204 C0F20003 		movt	r3, #:upper16:bufSpeedPos
 1762 0208 1A68     		ldr	r2, [r3, #0]
 1763 020a 40F20003 		movw	r3, #:lower16:bufSpeed
 1764 020e C0F20003 		movt	r3, #:upper16:bufSpeed
 1765 0212 4FEAC202 		lsl	r2, r2, #3
 1766 0216 1344     		add	r3, r2, r3
 1767 0218 D3E90001 		ldrd	r0, [r3]
 1768 021c 40F20003 		movw	r3, #:lower16:bufSpeedLastPos
 1769 0220 C0F20003 		movt	r3, #:upper16:bufSpeedLastPos
 1770 0224 1A68     		ldr	r2, [r3, #0]
 1771 0226 40F20003 		movw	r3, #:lower16:bufSpeed
 1772 022a C0F20003 		movt	r3, #:upper16:bufSpeed
 1773 022e 4FEAC202 		lsl	r2, r2, #3
 1774 0232 1344     		add	r3, r2, r3
 1775 0234 D3E90023 		ldrd	r2, [r3]
 1776 0238 FFF7FEFF 		bl	__aeabi_dsub
 1777 023c 0246     		mov	r2, r0
 1778 023e 0B46     		mov	r3, r1
 1779 0240 1046     		mov	r0, r2
 1780 0242 1946     		mov	r1, r3
 1781 0244 4FF00002 		mov	r2, #0
 1782 0248 4FF08043 		mov	r3, #1073741824
 1783 024c 03F51013 		add	r3, r3, #2359296
ARM GAS  C:\Users\bccho\AppData\Local\Temp\ccHbMFsA.s 			page 39


 1784 0250 FFF7FEFF 		bl	__aeabi_ddiv
 1785 0254 0246     		mov	r2, r0
 1786 0256 0B46     		mov	r3, r1
 1787 0258 C7E90C23 		strd	r2, [r7, #48]
 329:.\speedcontrol.c ****         bufSpeedPos = (bufSpeedPos + 1) % BUF_SPEED_SIZE;
 1788              		.loc 1 329 0
 1789 025c 40F20003 		movw	r3, #:lower16:bufSpeedPos
 1790 0260 C0F20003 		movt	r3, #:upper16:bufSpeedPos
 1791 0264 1B68     		ldr	r3, [r3, #0]
 1792 0266 03F10101 		add	r1, r3, #1
 1793 026a 46F26763 		movw	r3, #:lower16:1717986919
 1794 026e C6F26663 		movt	r3, #:upper16:1717986919
 1795 0272 83FB0123 		smull	r2, r3, r3, r1
 1796 0276 4FEAA302 		asr	r2, r3, #2
 1797 027a 4FEAE173 		asr	r3, r1, #31
 1798 027e C3EB0202 		rsb	r2, r3, r2
 1799 0282 1346     		mov	r3, r2
 1800 0284 4FEA8303 		lsl	r3, r3, #2
 1801 0288 1344     		add	r3, r3, r2
 1802 028a 4FEA4303 		lsl	r3, r3, #1
 1803 028e C3EB0102 		rsb	r2, r3, r1
 1804 0292 40F20003 		movw	r3, #:lower16:bufSpeedPos
 1805 0296 C0F20003 		movt	r3, #:upper16:bufSpeedPos
 1806 029a 1A60     		str	r2, [r3, #0]
 330:.\speedcontrol.c ****         if (bufSpeedPos == bufSpeedLastPos) { // this gets activated when bufSpeedPos has made one 
 1807              		.loc 1 330 0
 1808 029c 40F20003 		movw	r3, #:lower16:bufSpeedPos
 1809 02a0 C0F20003 		movt	r3, #:upper16:bufSpeedPos
 1810 02a4 1A68     		ldr	r2, [r3, #0]
 1811 02a6 40F20003 		movw	r3, #:lower16:bufSpeedLastPos
 1812 02aa C0F20003 		movt	r3, #:upper16:bufSpeedLastPos
 1813 02ae 1B68     		ldr	r3, [r3, #0]
 1814 02b0 9A42     		cmp	r2, r3
 1815 02b2 1FD1     		bne	.L94
 331:.\speedcontrol.c ****             bufSpeedLastPos = (bufSpeedLastPos + 1) % BUF_SPEED_SIZE;
 1816              		.loc 1 331 0
 1817 02b4 40F20003 		movw	r3, #:lower16:bufSpeedLastPos
 1818 02b8 C0F20003 		movt	r3, #:upper16:bufSpeedLastPos
 1819 02bc 1B68     		ldr	r3, [r3, #0]
 1820 02be 03F10101 		add	r1, r3, #1
 1821 02c2 46F26763 		movw	r3, #:lower16:1717986919
 1822 02c6 C6F26663 		movt	r3, #:upper16:1717986919
 1823 02ca 83FB0123 		smull	r2, r3, r3, r1
 1824 02ce 4FEAA302 		asr	r2, r3, #2
 1825 02d2 4FEAE173 		asr	r3, r1, #31
 1826 02d6 C3EB0202 		rsb	r2, r3, r2
 1827 02da 1346     		mov	r3, r2
 1828 02dc 4FEA8303 		lsl	r3, r3, #2
 1829 02e0 1344     		add	r3, r3, r2
 1830 02e2 4FEA4303 		lsl	r3, r3, #1
 1831 02e6 C3EB0102 		rsb	r2, r3, r1
 1832 02ea 40F20003 		movw	r3, #:lower16:bufSpeedLastPos
 1833 02ee C0F20003 		movt	r3, #:upper16:bufSpeedLastPos
 1834 02f2 1A60     		str	r2, [r3, #0]
 1835              	.L94:
 332:.\speedcontrol.c ****         }
 333:.\speedcontrol.c ****         // Calculate integral of error
ARM GAS  C:\Users\bccho\AppData\Local\Temp\ccHbMFsA.s 			page 40


 334:.\speedcontrol.c ****         errorIntegral += error;
 1836              		.loc 1 334 0
 1837 02f4 40F20003 		movw	r3, #:lower16:errorIntegral
 1838 02f8 C0F20003 		movt	r3, #:upper16:errorIntegral
 1839 02fc D3E90023 		ldrd	r2, [r3]
 1840 0300 1046     		mov	r0, r2
 1841 0302 1946     		mov	r1, r3
 1842 0304 D7E90A23 		ldrd	r2, [r7, #40]
 1843 0308 FFF7FEFF 		bl	__aeabi_dadd
 1844 030c 0246     		mov	r2, r0
 1845 030e 0B46     		mov	r3, r1
 1846 0310 1046     		mov	r0, r2
 1847 0312 1946     		mov	r1, r3
 1848 0314 40F20003 		movw	r3, #:lower16:errorIntegral
 1849 0318 C0F20003 		movt	r3, #:upper16:errorIntegral
 1850 031c C3E90001 		strd	r0, [r3]
 335:.\speedcontrol.c ****         
 336:.\speedcontrol.c ****         // Calculate new throttle
 337:.\speedcontrol.c ****         int newThrottle = throttleSS + (int) (error * coeffP + errorIntegral * coeffI - errorDeriva
 1851              		.loc 1 337 0
 1852 0320 40F20003 		movw	r3, #:lower16:coeffP
 1853 0324 C0F20003 		movt	r3, #:upper16:coeffP
 1854 0328 D3E90023 		ldrd	r2, [r3]
 1855 032c 1046     		mov	r0, r2
 1856 032e 1946     		mov	r1, r3
 1857 0330 D7E90A23 		ldrd	r2, [r7, #40]
 1858 0334 FFF7FEFF 		bl	__aeabi_dmul
 1859 0338 0246     		mov	r2, r0
 1860 033a 0B46     		mov	r3, r1
 1861 033c 1446     		mov	r4, r2
 1862 033e 1D46     		mov	r5, r3
 1863 0340 40F20003 		movw	r3, #:lower16:errorIntegral
 1864 0344 C0F20003 		movt	r3, #:upper16:errorIntegral
 1865 0348 D3E90001 		ldrd	r0, [r3]
 1866 034c 40F20003 		movw	r3, #:lower16:coeffI
 1867 0350 C0F20003 		movt	r3, #:upper16:coeffI
 1868 0354 D3E90023 		ldrd	r2, [r3]
 1869 0358 FFF7FEFF 		bl	__aeabi_dmul
 1870 035c 0246     		mov	r2, r0
 1871 035e 0B46     		mov	r3, r1
 1872 0360 2046     		mov	r0, r4
 1873 0362 2946     		mov	r1, r5
 1874 0364 FFF7FEFF 		bl	__aeabi_dadd
 1875 0368 0246     		mov	r2, r0
 1876 036a 0B46     		mov	r3, r1
 1877 036c 1446     		mov	r4, r2
 1878 036e 1D46     		mov	r5, r3
 1879 0370 40F20003 		movw	r3, #:lower16:coeffD
 1880 0374 C0F20003 		movt	r3, #:upper16:coeffD
 1881 0378 D3E90023 		ldrd	r2, [r3]
 1882 037c 1046     		mov	r0, r2
 1883 037e 1946     		mov	r1, r3
 1884 0380 D7E90C23 		ldrd	r2, [r7, #48]
 1885 0384 FFF7FEFF 		bl	__aeabi_dmul
 1886 0388 0246     		mov	r2, r0
 1887 038a 0B46     		mov	r3, r1
 1888 038c 2046     		mov	r0, r4
ARM GAS  C:\Users\bccho\AppData\Local\Temp\ccHbMFsA.s 			page 41


 1889 038e 2946     		mov	r1, r5
 1890 0390 FFF7FEFF 		bl	__aeabi_dsub
 1891 0394 0246     		mov	r2, r0
 1892 0396 0B46     		mov	r3, r1
 1893 0398 1046     		mov	r0, r2
 1894 039a 1946     		mov	r1, r3
 1895 039c FFF7FEFF 		bl	__aeabi_d2iz
 1896 03a0 0246     		mov	r2, r0
 1897 03a2 40F20003 		movw	r3, #:lower16:throttleSS
 1898 03a6 C0F20003 		movt	r3, #:upper16:throttleSS
 1899 03aa 1B68     		ldr	r3, [r3, #0]
 1900 03ac 1344     		add	r3, r2, r3
 1901 03ae FB63     		str	r3, [r7, #60]
 338:.\speedcontrol.c ****         
 339:.\speedcontrol.c ****         if (verbosePrintoutOn) {
 1902              		.loc 1 339 0
 1903 03b0 40F20003 		movw	r3, #:lower16:verbosePrintoutOn
 1904 03b4 C0F20003 		movt	r3, #:upper16:verbosePrintoutOn
 1905 03b8 1B68     		ldr	r3, [r3, #0]
 1906 03ba 002B     		cmp	r3, #0
 1907 03bc 38D0     		beq	.L95
 340:.\speedcontrol.c ****             sprintf(strbuffer, "%3i, %6.2f, %6.2f, %6.2f, %8.5f, %6.2f | %6.2f, %6.2f, %6.2f\n", 
 1908              		.loc 1 340 0
 1909 03be 40F20003 		movw	r3, #:lower16:errorIntegral
 1910 03c2 C0F20003 		movt	r3, #:upper16:errorIntegral
 1911 03c6 D3E90001 		ldrd	r0, [r3]
 1912 03ca 40F20003 		movw	r3, #:lower16:totalDistance
 1913 03ce C0F20003 		movt	r3, #:upper16:totalDistance
 1914 03d2 D3E90023 		ldrd	r2, [r3]
 1915 03d6 D7E90045 		ldrd	r4, [r7]
 1916 03da CDE90045 		strd	r4, [sp]
 1917 03de D7E90A45 		ldrd	r4, [r7, #40]
 1918 03e2 CDE90245 		strd	r4, [sp, #8]
 1919 03e6 CDE90401 		strd	r0, [sp, #16]
 1920 03ea D7E90C01 		ldrd	r0, [r7, #48]
 1921 03ee CDE90601 		strd	r0, [sp, #24]
 1922 03f2 CDE90823 		strd	r2, [sp, #32]
 1923 03f6 D7E90223 		ldrd	r2, [r7, #8]
 1924 03fa CDE90A23 		strd	r2, [sp, #40]
 1925 03fe D7E90423 		ldrd	r2, [r7, #16]
 1926 0402 CDE90C23 		strd	r2, [sp, #48]
 1927 0406 D7E90623 		ldrd	r2, [r7, #24]
 1928 040a CDE90E23 		strd	r2, [sp, #56]
 1929 040e 40F20000 		movw	r0, #:lower16:strbuffer
 1930 0412 C0F20000 		movt	r0, #:upper16:strbuffer
 1931 0416 40F20001 		movw	r1, #:lower16:.LC6
 1932 041a C0F20001 		movt	r1, #:upper16:.LC6
 1933 041e FA6B     		ldr	r2, [r7, #60]
 1934 0420 FFF7FEFF 		bl	sprintf
 341:.\speedcontrol.c ****                     newThrottle, speed, error, errorIntegral, errorDerivative, totalDistance, dynam
 342:.\speedcontrol.c ****             UART_PutString(strbuffer);
 1935              		.loc 1 342 0
 1936 0424 40F20000 		movw	r0, #:lower16:strbuffer
 1937 0428 C0F20000 		movt	r0, #:upper16:strbuffer
 1938 042c FFF7FEFF 		bl	UART_PutString
 1939              	.L95:
 343:.\speedcontrol.c ****         }
ARM GAS  C:\Users\bccho\AppData\Local\Temp\ccHbMFsA.s 			page 42


 344:.\speedcontrol.c ****         
 345:.\speedcontrol.c ****         return newThrottle;
 1940              		.loc 1 345 0
 1941 0430 FB6B     		ldr	r3, [r7, #60]
 1942              	.L85:
 1943              	.LBE2:
 346:.\speedcontrol.c ****     }
 347:.\speedcontrol.c **** }
 1944              		.loc 1 347 0
 1945 0432 1846     		mov	r0, r3
 1946 0434 07F14007 		add	r7, r7, #64
 1947 0438 BD46     		mov	sp, r7
 1948 043a B0BD     		pop	{r4, r5, r7, pc}
 1949              		.cfi_endproc
 1950              	.LFE62:
 1951              		.size	controlThrottle, .-controlThrottle
 1952              		.section	.rodata
 1953 018a 0000     		.align	2
 1954              	.LC7:
 1955 018c 50494420 		.ascii	"PID and throttle killed\012\000"
 1955      616E6420 
 1955      7468726F 
 1955      74746C65 
 1955      206B696C 
 1956              		.section	.text.killAll,"ax",%progbits
 1957              		.align	2
 1958              		.thumb
 1959              		.thumb_func
 1960              		.type	killAll, %function
 1961              	killAll:
 1962              	.LFB63:
 348:.\speedcontrol.c **** 
 349:.\speedcontrol.c **** 
 350:.\speedcontrol.c **** /* Turns off throttle and PID */
 351:.\speedcontrol.c **** static void killAll() {
 1963              		.loc 1 351 0
 1964              		.cfi_startproc
 1965              		@ args = 0, pretend = 0, frame = 0
 1966              		@ frame_needed = 1, uses_anonymous_args = 0
 1967 0000 80B5     		push	{r7, lr}
 1968              	.LCFI77:
 1969              		.cfi_def_cfa_offset 8
 1970 0002 00AF     		add	r7, sp, #0
 1971              		.cfi_offset 14, -4
 1972              		.cfi_offset 7, -8
 1973              	.LCFI78:
 1974              		.cfi_def_cfa_register 7
 352:.\speedcontrol.c ****     setThrottle(0);
 1975              		.loc 1 352 0
 1976 0004 4FF00000 		mov	r0, #0
 1977 0008 FFF7FEFF 		bl	setThrottle
 353:.\speedcontrol.c ****     throttlePIDon = 0;
 1978              		.loc 1 353 0
 1979 000c 40F20003 		movw	r3, #:lower16:throttlePIDon
 1980 0010 C0F20003 		movt	r3, #:upper16:throttlePIDon
 1981 0014 4FF00002 		mov	r2, #0
 1982 0018 1A60     		str	r2, [r3, #0]
ARM GAS  C:\Users\bccho\AppData\Local\Temp\ccHbMFsA.s 			page 43


 354:.\speedcontrol.c ****     UART_PutString("PID and throttle killed\n");
 1983              		.loc 1 354 0
 1984 001a 40F20000 		movw	r0, #:lower16:.LC7
 1985 001e C0F20000 		movt	r0, #:upper16:.LC7
 1986 0022 FFF7FEFF 		bl	UART_PutString
 355:.\speedcontrol.c **** }
 1987              		.loc 1 355 0
 1988 0026 80BD     		pop	{r7, pc}
 1989              		.cfi_endproc
 1990              	.LFE63:
 1991              		.size	killAll, .-killAll
 1992              		.section	.rodata
 1993 01a5 000000   		.align	2
 1994              	.LC8:
 1995 01a8 25336900 		.ascii	"%3i\000"
 1996 01ac 00000000 		.section	.text.setThrottle,"ax",%progbits
 1997              		.align	2
 1998              		.thumb
 1999              		.thumb_func
 2000              		.type	setThrottle, %function
 2001              	setThrottle:
 2002              	.LFB64:
 356:.\speedcontrol.c **** 
 357:.\speedcontrol.c **** 
 358:.\speedcontrol.c **** /* Takes an integer between 0 and MAX_THROTTLE and
 359:.\speedcontrol.c ****  * sets the motor PWM output to that value */
 360:.\speedcontrol.c **** static void setThrottle(int thr) {
 2003              		.loc 1 360 0
 2004              		.cfi_startproc
 2005              		@ args = 0, pretend = 0, frame = 16
 2006              		@ frame_needed = 1, uses_anonymous_args = 0
 2007 0000 80B5     		push	{r7, lr}
 2008              	.LCFI79:
 2009              		.cfi_def_cfa_offset 8
 2010 0002 84B0     		sub	sp, sp, #16
 2011              	.LCFI80:
 2012              		.cfi_def_cfa_offset 24
 2013 0004 00AF     		add	r7, sp, #0
 2014              		.cfi_offset 14, -4
 2015              		.cfi_offset 7, -8
 2016              	.LCFI81:
 2017              		.cfi_def_cfa_register 7
 2018 0006 7860     		str	r0, [r7, #4]
 361:.\speedcontrol.c ****     if (thr < 0)
 2019              		.loc 1 361 0
 2020 0008 7B68     		ldr	r3, [r7, #4]
 2021 000a 002B     		cmp	r3, #0
 2022 000c 02DA     		bge	.L100
 362:.\speedcontrol.c ****         thr = 0;
 2023              		.loc 1 362 0
 2024 000e 4FF00003 		mov	r3, #0
 2025 0012 7B60     		str	r3, [r7, #4]
 2026              	.L100:
 363:.\speedcontrol.c ****     if (thr > MAX_THROTTLE)
 2027              		.loc 1 363 0
 2028 0014 40F20003 		movw	r3, #:lower16:MAX_THROTTLE
 2029 0018 C0F20003 		movt	r3, #:upper16:MAX_THROTTLE
ARM GAS  C:\Users\bccho\AppData\Local\Temp\ccHbMFsA.s 			page 44


 2030 001c 1B68     		ldr	r3, [r3, #0]
 2031 001e 7A68     		ldr	r2, [r7, #4]
 2032 0020 9A42     		cmp	r2, r3
 2033 0022 05DD     		ble	.L101
 364:.\speedcontrol.c ****         thr = MAX_THROTTLE;
 2034              		.loc 1 364 0
 2035 0024 40F20003 		movw	r3, #:lower16:MAX_THROTTLE
 2036 0028 C0F20003 		movt	r3, #:upper16:MAX_THROTTLE
 2037 002c 1B68     		ldr	r3, [r3, #0]
 2038 002e 7B60     		str	r3, [r7, #4]
 2039              	.L101:
 365:.\speedcontrol.c ****     
 366:.\speedcontrol.c ****     throttle = thr;
 2040              		.loc 1 366 0
 2041 0030 40F20003 		movw	r3, #:lower16:throttle
 2042 0034 C0F20003 		movt	r3, #:upper16:throttle
 2043 0038 7A68     		ldr	r2, [r7, #4]
 2044 003a 1A60     		str	r2, [r3, #0]
 367:.\speedcontrol.c ****     
 368:.\speedcontrol.c ****     PWM_Motor_WriteCompare(throttle);
 2045              		.loc 1 368 0
 2046 003c 40F20003 		movw	r3, #:lower16:throttle
 2047 0040 C0F20003 		movt	r3, #:upper16:throttle
 2048 0044 1B68     		ldr	r3, [r3, #0]
 2049 0046 9BB2     		uxth	r3, r3
 2050 0048 1846     		mov	r0, r3
 2051 004a FFF7FEFF 		bl	PWM_Motor_WriteCompare
 369:.\speedcontrol.c ****     
 370:.\speedcontrol.c ****     LCD_Position(1,0);
 2052              		.loc 1 370 0
 2053 004e 4FF00100 		mov	r0, #1
 2054 0052 4FF00001 		mov	r1, #0
 2055 0056 FFF7FEFF 		bl	LCD_Position
 371:.\speedcontrol.c ****     char lcdbuffer[4];
 372:.\speedcontrol.c ****     sprintf(lcdbuffer, "%3i", throttle);
 2056              		.loc 1 372 0
 2057 005a 40F20003 		movw	r3, #:lower16:throttle
 2058 005e C0F20003 		movt	r3, #:upper16:throttle
 2059 0062 1B68     		ldr	r3, [r3, #0]
 2060 0064 07F10C02 		add	r2, r7, #12
 2061 0068 1046     		mov	r0, r2
 2062 006a 40F20001 		movw	r1, #:lower16:.LC8
 2063 006e C0F20001 		movt	r1, #:upper16:.LC8
 2064 0072 1A46     		mov	r2, r3
 2065 0074 FFF7FEFF 		bl	sprintf
 373:.\speedcontrol.c ****     LCD_PrintString(lcdbuffer);
 2066              		.loc 1 373 0
 2067 0078 07F10C03 		add	r3, r7, #12
 2068 007c 1846     		mov	r0, r3
 2069 007e FFF7FEFF 		bl	LCD_PrintString
 374:.\speedcontrol.c **** }
 2070              		.loc 1 374 0
 2071 0082 07F11007 		add	r7, r7, #16
 2072 0086 BD46     		mov	sp, r7
 2073 0088 80BD     		pop	{r7, pc}
 2074              		.cfi_endproc
 2075              	.LFE64:
ARM GAS  C:\Users\bccho\AppData\Local\Temp\ccHbMFsA.s 			page 45


 2076              		.size	setThrottle, .-setThrottle
 2077 008a 00BF     		.section	.text.getSpeed,"ax",%progbits
 2078              		.align	2
 2079              		.thumb
 2080              		.thumb_func
 2081              		.type	getSpeed, %function
 2082              	getSpeed:
 2083              	.LFB65:
 375:.\speedcontrol.c **** 
 376:.\speedcontrol.c **** 
 377:.\speedcontrol.c **** /* Returns average speed (in ft/sec) over the last BUF_WHEEL_TICK_SIZE ticks */
 378:.\speedcontrol.c **** static double getSpeed() {
 2084              		.loc 1 378 0
 2085              		.cfi_startproc
 2086              		@ args = 0, pretend = 0, frame = 40
 2087              		@ frame_needed = 1, uses_anonymous_args = 0
 2088 0000 80B5     		push	{r7, lr}
 2089              	.LCFI82:
 2090              		.cfi_def_cfa_offset 8
 2091 0002 8AB0     		sub	sp, sp, #40
 2092              	.LCFI83:
 2093              		.cfi_def_cfa_offset 48
 2094 0004 00AF     		add	r7, sp, #0
 2095              		.cfi_offset 14, -4
 2096              		.cfi_offset 7, -8
 2097              	.LCFI84:
 2098              		.cfi_def_cfa_register 7
 379:.\speedcontrol.c ****     double cumSum = 0;
 2099              		.loc 1 379 0
 2100 0006 4FF00002 		mov	r2, #0
 2101 000a 4FF00003 		mov	r3, #0
 2102 000e C7E90023 		strd	r2, [r7]
 380:.\speedcontrol.c ****     int i;
 381:.\speedcontrol.c ****     if (bufWheelTickCurSize == 0) return 0;
 2103              		.loc 1 381 0
 2104 0012 40F20003 		movw	r3, #:lower16:bufWheelTickCurSize
 2105 0016 C0F20003 		movt	r3, #:upper16:bufWheelTickCurSize
 2106 001a 1B68     		ldr	r3, [r3, #0]
 2107 001c 002B     		cmp	r3, #0
 2108 001e 04D1     		bne	.L104
 2109 0020 4FF00002 		mov	r2, #0
 2110 0024 4FF00003 		mov	r3, #0
 2111 0028 74E0     		b	.L105
 2112              	.L104:
 382:.\speedcontrol.c ****     for (i = 0; i < BUF_WHEEL_TICK_SIZE; i++) {
 2113              		.loc 1 382 0
 2114 002a 4FF00003 		mov	r3, #0
 2115 002e FB60     		str	r3, [r7, #12]
 2116 0030 17E0     		b	.L106
 2117              	.L107:
 383:.\speedcontrol.c ****         cumSum += (double) bufWheelTick[i];
 2118              		.loc 1 383 0
 2119 0032 FA68     		ldr	r2, [r7, #12]
 2120 0034 40F20003 		movw	r3, #:lower16:bufWheelTick
 2121 0038 C0F20003 		movt	r3, #:upper16:bufWheelTick
 2122 003c 53F82230 		ldr	r3, [r3, r2, lsl #2]
 2123 0040 1846     		mov	r0, r3
ARM GAS  C:\Users\bccho\AppData\Local\Temp\ccHbMFsA.s 			page 46


 2124 0042 FFF7FEFF 		bl	__aeabi_i2d
 2125 0046 0246     		mov	r2, r0
 2126 0048 0B46     		mov	r3, r1
 2127 004a D7E90001 		ldrd	r0, [r7]
 2128 004e FFF7FEFF 		bl	__aeabi_dadd
 2129 0052 0246     		mov	r2, r0
 2130 0054 0B46     		mov	r3, r1
 2131 0056 C7E90023 		strd	r2, [r7]
 2132              		.loc 1 382 0
 2133 005a FB68     		ldr	r3, [r7, #12]
 2134 005c 03F10103 		add	r3, r3, #1
 2135 0060 FB60     		str	r3, [r7, #12]
 2136              	.L106:
 2137 0062 FB68     		ldr	r3, [r7, #12]
 2138 0064 022B     		cmp	r3, #2
 2139 0066 E4DD     		ble	.L107
 384:.\speedcontrol.c ****     }
 385:.\speedcontrol.c ****     double averageCount = cumSum / bufWheelTickCurSize;
 2140              		.loc 1 385 0
 2141 0068 40F20003 		movw	r3, #:lower16:bufWheelTickCurSize
 2142 006c C0F20003 		movt	r3, #:upper16:bufWheelTickCurSize
 2143 0070 1B68     		ldr	r3, [r3, #0]
 2144 0072 1846     		mov	r0, r3
 2145 0074 FFF7FEFF 		bl	__aeabi_i2d
 2146 0078 0246     		mov	r2, r0
 2147 007a 0B46     		mov	r3, r1
 2148 007c D7E90001 		ldrd	r0, [r7]
 2149 0080 FFF7FEFF 		bl	__aeabi_ddiv
 2150 0084 0246     		mov	r2, r0
 2151 0086 0B46     		mov	r3, r1
 2152 0088 C7E90423 		strd	r2, [r7, #16]
 386:.\speedcontrol.c ****     double ticksPerSec = CLK_FREQ / averageCount;
 2153              		.loc 1 386 0
 2154 008c 40F20003 		movw	r3, #:lower16:CLK_FREQ
 2155 0090 C0F20003 		movt	r3, #:upper16:CLK_FREQ
 2156 0094 1B68     		ldr	r3, [r3, #0]
 2157 0096 1846     		mov	r0, r3
 2158 0098 FFF7FEFF 		bl	__aeabi_i2d
 2159 009c 0246     		mov	r2, r0
 2160 009e 0B46     		mov	r3, r1
 2161 00a0 1046     		mov	r0, r2
 2162 00a2 1946     		mov	r1, r3
 2163 00a4 D7E90423 		ldrd	r2, [r7, #16]
 2164 00a8 FFF7FEFF 		bl	__aeabi_ddiv
 2165 00ac 0246     		mov	r2, r0
 2166 00ae 0B46     		mov	r3, r1
 2167 00b0 C7E90623 		strd	r2, [r7, #24]
 387:.\speedcontrol.c ****     double speed = ticksPerSec * ((M_PI * WHEEL_DIAM) / 5) * (1.0/12.0);
 2168              		.loc 1 387 0
 2169 00b4 40F20003 		movw	r3, #:lower16:WHEEL_DIAM
 2170 00b8 C0F20003 		movt	r3, #:upper16:WHEEL_DIAM
 2171 00bc D3E90023 		ldrd	r2, [r3]
 2172 00c0 1046     		mov	r0, r2
 2173 00c2 1946     		mov	r1, r3
 2174 00c4 16A3     		adr	r3, .L109
 2175 00c6 D3E90023 		ldrd	r2, [r3]
 2176 00ca FFF7FEFF 		bl	__aeabi_dmul
ARM GAS  C:\Users\bccho\AppData\Local\Temp\ccHbMFsA.s 			page 47


 2177 00ce 0246     		mov	r2, r0
 2178 00d0 0B46     		mov	r3, r1
 2179 00d2 1046     		mov	r0, r2
 2180 00d4 1946     		mov	r1, r3
 2181 00d6 4FF00002 		mov	r2, #0
 2182 00da 4FF08043 		mov	r3, #1073741824
 2183 00de 03F5A013 		add	r3, r3, #1310720
 2184 00e2 FFF7FEFF 		bl	__aeabi_ddiv
 2185 00e6 0246     		mov	r2, r0
 2186 00e8 0B46     		mov	r3, r1
 2187 00ea 1046     		mov	r0, r2
 2188 00ec 1946     		mov	r1, r3
 2189 00ee D7E90623 		ldrd	r2, [r7, #24]
 2190 00f2 FFF7FEFF 		bl	__aeabi_dmul
 2191 00f6 0246     		mov	r2, r0
 2192 00f8 0B46     		mov	r3, r1
 2193 00fa 1046     		mov	r0, r2
 2194 00fc 1946     		mov	r1, r3
 2195 00fe 0AA3     		adr	r3, .L109+8
 2196 0100 D3E90023 		ldrd	r2, [r3]
 2197 0104 FFF7FEFF 		bl	__aeabi_dmul
 2198 0108 0246     		mov	r2, r0
 2199 010a 0B46     		mov	r3, r1
 2200 010c C7E90823 		strd	r2, [r7, #32]
 388:.\speedcontrol.c ****     
 389:.\speedcontrol.c ****     return speed;
 2201              		.loc 1 389 0
 2202 0110 D7E90823 		ldrd	r2, [r7, #32]
 2203              	.L105:
 390:.\speedcontrol.c **** }
 2204              		.loc 1 390 0
 2205 0114 1046     		mov	r0, r2
 2206 0116 1946     		mov	r1, r3
 2207 0118 07F12807 		add	r7, r7, #40
 2208 011c BD46     		mov	sp, r7
 2209 011e 80BD     		pop	{r7, pc}
 2210              	.L110:
 2211              		.align	3
 2212              	.L109:
 2213 0120 182D4454 		.word	1413754136
 2214 0124 FB210940 		.word	1074340347
 2215 0128 55555555 		.word	1431655765
 2216 012c 5555B53F 		.word	1068848469
 2217              		.cfi_endproc
 2218              	.LFE65:
 2219              		.size	getSpeed, .-getSpeed
 2220              		.section	.text.resetSpeedTracking,"ax",%progbits
 2221              		.align	2
 2222              		.thumb
 2223              		.thumb_func
 2224              		.type	resetSpeedTracking, %function
 2225              	resetSpeedTracking:
 2226              	.LFB66:
 391:.\speedcontrol.c **** 
 392:.\speedcontrol.c **** /* Resets tick buffer */
 393:.\speedcontrol.c **** static void resetSpeedTracking() {
 2227              		.loc 1 393 0
ARM GAS  C:\Users\bccho\AppData\Local\Temp\ccHbMFsA.s 			page 48


 2228              		.cfi_startproc
 2229              		@ args = 0, pretend = 0, frame = 8
 2230              		@ frame_needed = 1, uses_anonymous_args = 0
 2231              		@ link register save eliminated.
 2232 0000 80B4     		push	{r7}
 2233              	.LCFI85:
 2234              		.cfi_def_cfa_offset 4
 2235 0002 83B0     		sub	sp, sp, #12
 2236              	.LCFI86:
 2237              		.cfi_def_cfa_offset 16
 2238 0004 00AF     		add	r7, sp, #0
 2239              		.cfi_offset 7, -4
 2240              	.LCFI87:
 2241              		.cfi_def_cfa_register 7
 394:.\speedcontrol.c ****     // Clear wheel tick buffer
 395:.\speedcontrol.c ****     bufWheelTickPos = 0;
 2242              		.loc 1 395 0
 2243 0006 40F20003 		movw	r3, #:lower16:bufWheelTickPos
 2244 000a C0F20003 		movt	r3, #:upper16:bufWheelTickPos
 2245 000e 4FF00002 		mov	r2, #0
 2246 0012 1A60     		str	r2, [r3, #0]
 396:.\speedcontrol.c ****     bufWheelTickCurSize = 0;
 2247              		.loc 1 396 0
 2248 0014 40F20003 		movw	r3, #:lower16:bufWheelTickCurSize
 2249 0018 C0F20003 		movt	r3, #:upper16:bufWheelTickCurSize
 2250 001c 4FF00002 		mov	r2, #0
 2251 0020 1A60     		str	r2, [r3, #0]
 397:.\speedcontrol.c ****     int i;
 398:.\speedcontrol.c ****     for (i = 0; i < BUF_WHEEL_TICK_SIZE; i++) bufWheelTick[i] = 0;
 2252              		.loc 1 398 0
 2253 0022 4FF00003 		mov	r3, #0
 2254 0026 7B60     		str	r3, [r7, #4]
 2255 0028 0CE0     		b	.L112
 2256              	.L113:
 2257 002a 7A68     		ldr	r2, [r7, #4]
 2258 002c 40F20003 		movw	r3, #:lower16:bufWheelTick
 2259 0030 C0F20003 		movt	r3, #:upper16:bufWheelTick
 2260 0034 4FF00001 		mov	r1, #0
 2261 0038 43F82210 		str	r1, [r3, r2, lsl #2]
 2262 003c 7B68     		ldr	r3, [r7, #4]
 2263 003e 03F10103 		add	r3, r3, #1
 2264 0042 7B60     		str	r3, [r7, #4]
 2265              	.L112:
 2266 0044 7B68     		ldr	r3, [r7, #4]
 2267 0046 022B     		cmp	r3, #2
 2268 0048 EFDD     		ble	.L113
 399:.\speedcontrol.c **** }
 2269              		.loc 1 399 0
 2270 004a 07F10C07 		add	r7, r7, #12
 2271 004e BD46     		mov	sp, r7
 2272 0050 80BC     		pop	{r7}
 2273 0052 7047     		bx	lr
 2274              		.cfi_endproc
 2275              	.LFE66:
 2276              		.size	resetSpeedTracking, .-resetSpeedTracking
 2277              		.section	.text.resetDerivativeTracking,"ax",%progbits
 2278              		.align	2
ARM GAS  C:\Users\bccho\AppData\Local\Temp\ccHbMFsA.s 			page 49


 2279              		.thumb
 2280              		.thumb_func
 2281              		.type	resetDerivativeTracking, %function
 2282              	resetDerivativeTracking:
 2283              	.LFB67:
 400:.\speedcontrol.c **** 
 401:.\speedcontrol.c **** 
 402:.\speedcontrol.c **** /* Resets speed error buffer */
 403:.\speedcontrol.c **** static void resetDerivativeTracking() {
 2284              		.loc 1 403 0
 2285              		.cfi_startproc
 2286              		@ args = 0, pretend = 0, frame = 8
 2287              		@ frame_needed = 1, uses_anonymous_args = 0
 2288              		@ link register save eliminated.
 2289 0000 80B4     		push	{r7}
 2290              	.LCFI88:
 2291              		.cfi_def_cfa_offset 4
 2292 0002 83B0     		sub	sp, sp, #12
 2293              	.LCFI89:
 2294              		.cfi_def_cfa_offset 16
 2295 0004 00AF     		add	r7, sp, #0
 2296              		.cfi_offset 7, -4
 2297              	.LCFI90:
 2298              		.cfi_def_cfa_register 7
 404:.\speedcontrol.c ****     // Clear speed buffer
 405:.\speedcontrol.c ****     bufSpeedPos = 0;
 2299              		.loc 1 405 0
 2300 0006 40F20003 		movw	r3, #:lower16:bufSpeedPos
 2301 000a C0F20003 		movt	r3, #:upper16:bufSpeedPos
 2302 000e 4FF00002 		mov	r2, #0
 2303 0012 1A60     		str	r2, [r3, #0]
 406:.\speedcontrol.c ****     bufSpeedLastPos = 0;
 2304              		.loc 1 406 0
 2305 0014 40F20003 		movw	r3, #:lower16:bufSpeedLastPos
 2306 0018 C0F20003 		movt	r3, #:upper16:bufSpeedLastPos
 2307 001c 4FF00002 		mov	r2, #0
 2308 0020 1A60     		str	r2, [r3, #0]
 407:.\speedcontrol.c ****     int i;
 408:.\speedcontrol.c ****     for (i = 0; i < BUF_SPEED_SIZE; i++) bufSpeed[i] = 0.0;
 2309              		.loc 1 408 0
 2310 0022 4FF00003 		mov	r3, #0
 2311 0026 7B60     		str	r3, [r7, #4]
 2312 0028 12E0     		b	.L116
 2313              	.L117:
 2314 002a 7A68     		ldr	r2, [r7, #4]
 2315 002c 40F20003 		movw	r3, #:lower16:bufSpeed
 2316 0030 C0F20003 		movt	r3, #:upper16:bufSpeed
 2317 0034 4FEAC202 		lsl	r2, r2, #3
 2318 0038 02EB0301 		add	r1, r2, r3
 2319 003c 4FF00002 		mov	r2, #0
 2320 0040 4FF00003 		mov	r3, #0
 2321 0044 C1E90023 		strd	r2, [r1]
 2322 0048 7B68     		ldr	r3, [r7, #4]
 2323 004a 03F10103 		add	r3, r3, #1
 2324 004e 7B60     		str	r3, [r7, #4]
 2325              	.L116:
 2326 0050 7B68     		ldr	r3, [r7, #4]
ARM GAS  C:\Users\bccho\AppData\Local\Temp\ccHbMFsA.s 			page 50


 2327 0052 092B     		cmp	r3, #9
 2328 0054 E9DD     		ble	.L117
 409:.\speedcontrol.c **** }
 2329              		.loc 1 409 0
 2330 0056 07F10C07 		add	r7, r7, #12
 2331 005a BD46     		mov	sp, r7
 2332 005c 80BC     		pop	{r7}
 2333 005e 7047     		bx	lr
 2334              		.cfi_endproc
 2335              	.LFE67:
 2336              		.size	resetDerivativeTracking, .-resetDerivativeTracking
 2337              		.section	.text.resetIntegralTracking,"ax",%progbits
 2338              		.align	2
 2339              		.thumb
 2340              		.thumb_func
 2341              		.type	resetIntegralTracking, %function
 2342              	resetIntegralTracking:
 2343              	.LFB68:
 410:.\speedcontrol.c **** 
 411:.\speedcontrol.c **** 
 412:.\speedcontrol.c **** /* Resets integral term */
 413:.\speedcontrol.c **** static void resetIntegralTracking() {
 2344              		.loc 1 413 0
 2345              		.cfi_startproc
 2346              		@ args = 0, pretend = 0, frame = 0
 2347              		@ frame_needed = 1, uses_anonymous_args = 0
 2348              		@ link register save eliminated.
 2349 0000 80B4     		push	{r7}
 2350              	.LCFI91:
 2351              		.cfi_def_cfa_offset 4
 2352 0002 00AF     		add	r7, sp, #0
 2353              		.cfi_offset 7, -4
 2354              	.LCFI92:
 2355              		.cfi_def_cfa_register 7
 414:.\speedcontrol.c ****     // Reset integral term
 415:.\speedcontrol.c ****     errorIntegral = 0.0;
 2356              		.loc 1 415 0
 2357 0004 40F20003 		movw	r3, #:lower16:errorIntegral
 2358 0008 C0F20003 		movt	r3, #:upper16:errorIntegral
 2359 000c 4FF00000 		mov	r0, #0
 2360 0010 4FF00001 		mov	r1, #0
 2361 0014 C3E90001 		strd	r0, [r3]
 416:.\speedcontrol.c **** }
 2362              		.loc 1 416 0
 2363 0018 BD46     		mov	sp, r7
 2364 001a 80BC     		pop	{r7}
 2365 001c 7047     		bx	lr
 2366              		.cfi_endproc
 2367              	.LFE68:
 2368              		.size	resetIntegralTracking, .-resetIntegralTracking
 2369 001e 00BF     		.text
 2370              	.Letext0:
 2371              		.section	.debug_loc,"",%progbits
 2372              	.Ldebug_loc0:
 2373              	.LLST0:
 2374 0000 00000000 		.4byte	.LFB29
 2375 0004 02000000 		.4byte	.LCFI0
ARM GAS  C:\Users\bccho\AppData\Local\Temp\ccHbMFsA.s 			page 51


 2376 0008 0100     		.2byte	0x1
 2377 000a 5D       		.byte	0x5d
 2378 000b 02000000 		.4byte	.LCFI0
 2379 000f 04000000 		.4byte	.LCFI1
 2380 0013 0200     		.2byte	0x2
 2381 0015 7D       		.byte	0x7d
 2382 0016 08       		.sleb128 8
 2383 0017 04000000 		.4byte	.LCFI1
 2384 001b 16000000 		.4byte	.LFE29
 2385 001f 0200     		.2byte	0x2
 2386 0021 77       		.byte	0x77
 2387 0022 08       		.sleb128 8
 2388 0023 00000000 		.4byte	0x0
 2389 0027 00000000 		.4byte	0x0
 2390              	.LLST1:
 2391 002b 00000000 		.4byte	.LFB30
 2392 002f 02000000 		.4byte	.LCFI2
 2393 0033 0100     		.2byte	0x1
 2394 0035 5D       		.byte	0x5d
 2395 0036 02000000 		.4byte	.LCFI2
 2396 003a 04000000 		.4byte	.LCFI3
 2397 003e 0200     		.2byte	0x2
 2398 0040 7D       		.byte	0x7d
 2399 0041 08       		.sleb128 8
 2400 0042 04000000 		.4byte	.LCFI3
 2401 0046 44000000 		.4byte	.LFE30
 2402 004a 0200     		.2byte	0x2
 2403 004c 77       		.byte	0x77
 2404 004d 08       		.sleb128 8
 2405 004e 00000000 		.4byte	0x0
 2406 0052 00000000 		.4byte	0x0
 2407              	.LLST2:
 2408 0056 00000000 		.4byte	.LFB31
 2409 005a 02000000 		.4byte	.LCFI4
 2410 005e 0100     		.2byte	0x1
 2411 0060 5D       		.byte	0x5d
 2412 0061 02000000 		.4byte	.LCFI4
 2413 0065 04000000 		.4byte	.LCFI5
 2414 0069 0200     		.2byte	0x2
 2415 006b 7D       		.byte	0x7d
 2416 006c 08       		.sleb128 8
 2417 006d 04000000 		.4byte	.LCFI5
 2418 0071 1C000000 		.4byte	.LFE31
 2419 0075 0200     		.2byte	0x2
 2420 0077 77       		.byte	0x77
 2421 0078 08       		.sleb128 8
 2422 0079 00000000 		.4byte	0x0
 2423 007d 00000000 		.4byte	0x0
 2424              	.LLST3:
 2425 0081 00000000 		.4byte	.LFB32
 2426 0085 02000000 		.4byte	.LCFI6
 2427 0089 0100     		.2byte	0x1
 2428 008b 5D       		.byte	0x5d
 2429 008c 02000000 		.4byte	.LCFI6
 2430 0090 04000000 		.4byte	.LCFI7
 2431 0094 0200     		.2byte	0x2
 2432 0096 7D       		.byte	0x7d
ARM GAS  C:\Users\bccho\AppData\Local\Temp\ccHbMFsA.s 			page 52


 2433 0097 04       		.sleb128 4
 2434 0098 04000000 		.4byte	.LCFI7
 2435 009c 18000000 		.4byte	.LFE32
 2436 00a0 0200     		.2byte	0x2
 2437 00a2 77       		.byte	0x77
 2438 00a3 04       		.sleb128 4
 2439 00a4 00000000 		.4byte	0x0
 2440 00a8 00000000 		.4byte	0x0
 2441              	.LLST4:
 2442 00ac 00000000 		.4byte	.LFB33
 2443 00b0 02000000 		.4byte	.LCFI8
 2444 00b4 0100     		.2byte	0x1
 2445 00b6 5D       		.byte	0x5d
 2446 00b7 02000000 		.4byte	.LCFI8
 2447 00bb 04000000 		.4byte	.LCFI9
 2448 00bf 0200     		.2byte	0x2
 2449 00c1 7D       		.byte	0x7d
 2450 00c2 04       		.sleb128 4
 2451 00c3 04000000 		.4byte	.LCFI9
 2452 00c7 26000000 		.4byte	.LFE33
 2453 00cb 0200     		.2byte	0x2
 2454 00cd 77       		.byte	0x77
 2455 00ce 04       		.sleb128 4
 2456 00cf 00000000 		.4byte	0x0
 2457 00d3 00000000 		.4byte	0x0
 2458              	.LLST5:
 2459 00d7 00000000 		.4byte	.LFB34
 2460 00db 02000000 		.4byte	.LCFI10
 2461 00df 0100     		.2byte	0x1
 2462 00e1 5D       		.byte	0x5d
 2463 00e2 02000000 		.4byte	.LCFI10
 2464 00e6 04000000 		.4byte	.LCFI11
 2465 00ea 0200     		.2byte	0x2
 2466 00ec 7D       		.byte	0x7d
 2467 00ed 08       		.sleb128 8
 2468 00ee 04000000 		.4byte	.LCFI11
 2469 00f2 3E000000 		.4byte	.LFE34
 2470 00f6 0200     		.2byte	0x2
 2471 00f8 77       		.byte	0x77
 2472 00f9 08       		.sleb128 8
 2473 00fa 00000000 		.4byte	0x0
 2474 00fe 00000000 		.4byte	0x0
 2475              	.LLST6:
 2476 0102 00000000 		.4byte	.LFB35
 2477 0106 02000000 		.4byte	.LCFI12
 2478 010a 0100     		.2byte	0x1
 2479 010c 5D       		.byte	0x5d
 2480 010d 02000000 		.4byte	.LCFI12
 2481 0111 04000000 		.4byte	.LCFI13
 2482 0115 0200     		.2byte	0x2
 2483 0117 7D       		.byte	0x7d
 2484 0118 04       		.sleb128 4
 2485 0119 04000000 		.4byte	.LCFI13
 2486 011d 18000000 		.4byte	.LFE35
 2487 0121 0200     		.2byte	0x2
 2488 0123 77       		.byte	0x77
 2489 0124 04       		.sleb128 4
ARM GAS  C:\Users\bccho\AppData\Local\Temp\ccHbMFsA.s 			page 53


 2490 0125 00000000 		.4byte	0x0
 2491 0129 00000000 		.4byte	0x0
 2492              	.LLST7:
 2493 012d 00000000 		.4byte	.LFB36
 2494 0131 02000000 		.4byte	.LCFI14
 2495 0135 0100     		.2byte	0x1
 2496 0137 5D       		.byte	0x5d
 2497 0138 02000000 		.4byte	.LCFI14
 2498 013c 04000000 		.4byte	.LCFI15
 2499 0140 0200     		.2byte	0x2
 2500 0142 7D       		.byte	0x7d
 2501 0143 04       		.sleb128 4
 2502 0144 04000000 		.4byte	.LCFI15
 2503 0148 16000000 		.4byte	.LFE36
 2504 014c 0200     		.2byte	0x2
 2505 014e 77       		.byte	0x77
 2506 014f 04       		.sleb128 4
 2507 0150 00000000 		.4byte	0x0
 2508 0154 00000000 		.4byte	0x0
 2509              	.LLST8:
 2510 0158 00000000 		.4byte	.LFB37
 2511 015c 02000000 		.4byte	.LCFI16
 2512 0160 0100     		.2byte	0x1
 2513 0162 5D       		.byte	0x5d
 2514 0163 02000000 		.4byte	.LCFI16
 2515 0167 04000000 		.4byte	.LCFI17
 2516 016b 0200     		.2byte	0x2
 2517 016d 7D       		.byte	0x7d
 2518 016e 04       		.sleb128 4
 2519 016f 04000000 		.4byte	.LCFI17
 2520 0173 16000000 		.4byte	.LFE37
 2521 0177 0200     		.2byte	0x2
 2522 0179 77       		.byte	0x77
 2523 017a 04       		.sleb128 4
 2524 017b 00000000 		.4byte	0x0
 2525 017f 00000000 		.4byte	0x0
 2526              	.LLST9:
 2527 0183 00000000 		.4byte	.LFB38
 2528 0187 02000000 		.4byte	.LCFI18
 2529 018b 0100     		.2byte	0x1
 2530 018d 5D       		.byte	0x5d
 2531 018e 02000000 		.4byte	.LCFI18
 2532 0192 04000000 		.4byte	.LCFI19
 2533 0196 0200     		.2byte	0x2
 2534 0198 7D       		.byte	0x7d
 2535 0199 04       		.sleb128 4
 2536 019a 04000000 		.4byte	.LCFI19
 2537 019e 16000000 		.4byte	.LFE38
 2538 01a2 0200     		.2byte	0x2
 2539 01a4 77       		.byte	0x77
 2540 01a5 04       		.sleb128 4
 2541 01a6 00000000 		.4byte	0x0
 2542 01aa 00000000 		.4byte	0x0
 2543              	.LLST10:
 2544 01ae 00000000 		.4byte	.LFB39
 2545 01b2 02000000 		.4byte	.LCFI20
 2546 01b6 0100     		.2byte	0x1
ARM GAS  C:\Users\bccho\AppData\Local\Temp\ccHbMFsA.s 			page 54


 2547 01b8 5D       		.byte	0x5d
 2548 01b9 02000000 		.4byte	.LCFI20
 2549 01bd 04000000 		.4byte	.LCFI21
 2550 01c1 0200     		.2byte	0x2
 2551 01c3 7D       		.byte	0x7d
 2552 01c4 04       		.sleb128 4
 2553 01c5 04000000 		.4byte	.LCFI21
 2554 01c9 18000000 		.4byte	.LFE39
 2555 01cd 0200     		.2byte	0x2
 2556 01cf 77       		.byte	0x77
 2557 01d0 04       		.sleb128 4
 2558 01d1 00000000 		.4byte	0x0
 2559 01d5 00000000 		.4byte	0x0
 2560              	.LLST11:
 2561 01d9 00000000 		.4byte	.LFB40
 2562 01dd 02000000 		.4byte	.LCFI22
 2563 01e1 0100     		.2byte	0x1
 2564 01e3 5D       		.byte	0x5d
 2565 01e4 02000000 		.4byte	.LCFI22
 2566 01e8 04000000 		.4byte	.LCFI23
 2567 01ec 0200     		.2byte	0x2
 2568 01ee 7D       		.byte	0x7d
 2569 01ef 04       		.sleb128 4
 2570 01f0 04000000 		.4byte	.LCFI23
 2571 01f4 18000000 		.4byte	.LFE40
 2572 01f8 0200     		.2byte	0x2
 2573 01fa 77       		.byte	0x77
 2574 01fb 04       		.sleb128 4
 2575 01fc 00000000 		.4byte	0x0
 2576 0200 00000000 		.4byte	0x0
 2577              	.LLST12:
 2578 0204 00000000 		.4byte	.LFB41
 2579 0208 02000000 		.4byte	.LCFI24
 2580 020c 0100     		.2byte	0x1
 2581 020e 5D       		.byte	0x5d
 2582 020f 02000000 		.4byte	.LCFI24
 2583 0213 04000000 		.4byte	.LCFI25
 2584 0217 0200     		.2byte	0x2
 2585 0219 7D       		.byte	0x7d
 2586 021a 04       		.sleb128 4
 2587 021b 04000000 		.4byte	.LCFI25
 2588 021f 16000000 		.4byte	.LFE41
 2589 0223 0200     		.2byte	0x2
 2590 0225 77       		.byte	0x77
 2591 0226 04       		.sleb128 4
 2592 0227 00000000 		.4byte	0x0
 2593 022b 00000000 		.4byte	0x0
 2594              	.LLST13:
 2595 022f 00000000 		.4byte	.LFB42
 2596 0233 02000000 		.4byte	.LCFI26
 2597 0237 0100     		.2byte	0x1
 2598 0239 5D       		.byte	0x5d
 2599 023a 02000000 		.4byte	.LCFI26
 2600 023e 04000000 		.4byte	.LCFI27
 2601 0242 0200     		.2byte	0x2
 2602 0244 7D       		.byte	0x7d
 2603 0245 08       		.sleb128 8
ARM GAS  C:\Users\bccho\AppData\Local\Temp\ccHbMFsA.s 			page 55


 2604 0246 04000000 		.4byte	.LCFI27
 2605 024a 06000000 		.4byte	.LCFI28
 2606 024e 0200     		.2byte	0x2
 2607 0250 7D       		.byte	0x7d
 2608 0251 10       		.sleb128 16
 2609 0252 06000000 		.4byte	.LCFI28
 2610 0256 6E000000 		.4byte	.LFE42
 2611 025a 0200     		.2byte	0x2
 2612 025c 77       		.byte	0x77
 2613 025d 10       		.sleb128 16
 2614 025e 00000000 		.4byte	0x0
 2615 0262 00000000 		.4byte	0x0
 2616              	.LLST14:
 2617 0266 00000000 		.4byte	.LFB43
 2618 026a 02000000 		.4byte	.LCFI29
 2619 026e 0100     		.2byte	0x1
 2620 0270 5D       		.byte	0x5d
 2621 0271 02000000 		.4byte	.LCFI29
 2622 0275 04000000 		.4byte	.LCFI30
 2623 0279 0200     		.2byte	0x2
 2624 027b 7D       		.byte	0x7d
 2625 027c 08       		.sleb128 8
 2626 027d 04000000 		.4byte	.LCFI30
 2627 0281 06000000 		.4byte	.LCFI31
 2628 0285 0200     		.2byte	0x2
 2629 0287 7D       		.byte	0x7d
 2630 0288 10       		.sleb128 16
 2631 0289 06000000 		.4byte	.LCFI31
 2632 028d 6E000000 		.4byte	.LFE43
 2633 0291 0200     		.2byte	0x2
 2634 0293 77       		.byte	0x77
 2635 0294 10       		.sleb128 16
 2636 0295 00000000 		.4byte	0x0
 2637 0299 00000000 		.4byte	0x0
 2638              	.LLST15:
 2639 029d 00000000 		.4byte	.LFB44
 2640 02a1 02000000 		.4byte	.LCFI32
 2641 02a5 0100     		.2byte	0x1
 2642 02a7 5D       		.byte	0x5d
 2643 02a8 02000000 		.4byte	.LCFI32
 2644 02ac 04000000 		.4byte	.LCFI33
 2645 02b0 0200     		.2byte	0x2
 2646 02b2 7D       		.byte	0x7d
 2647 02b3 04       		.sleb128 4
 2648 02b4 04000000 		.4byte	.LCFI33
 2649 02b8 06000000 		.4byte	.LCFI34
 2650 02bc 0200     		.2byte	0x2
 2651 02be 7D       		.byte	0x7d
 2652 02bf 10       		.sleb128 16
 2653 02c0 06000000 		.4byte	.LCFI34
 2654 02c4 1E000000 		.4byte	.LFE44
 2655 02c8 0200     		.2byte	0x2
 2656 02ca 77       		.byte	0x77
 2657 02cb 10       		.sleb128 16
 2658 02cc 00000000 		.4byte	0x0
 2659 02d0 00000000 		.4byte	0x0
 2660              	.LLST16:
ARM GAS  C:\Users\bccho\AppData\Local\Temp\ccHbMFsA.s 			page 56


 2661 02d4 00000000 		.4byte	.LFB45
 2662 02d8 02000000 		.4byte	.LCFI35
 2663 02dc 0100     		.2byte	0x1
 2664 02de 5D       		.byte	0x5d
 2665 02df 02000000 		.4byte	.LCFI35
 2666 02e3 04000000 		.4byte	.LCFI36
 2667 02e7 0200     		.2byte	0x2
 2668 02e9 7D       		.byte	0x7d
 2669 02ea 04       		.sleb128 4
 2670 02eb 04000000 		.4byte	.LCFI36
 2671 02ef 06000000 		.4byte	.LCFI37
 2672 02f3 0200     		.2byte	0x2
 2673 02f5 7D       		.byte	0x7d
 2674 02f6 10       		.sleb128 16
 2675 02f7 06000000 		.4byte	.LCFI37
 2676 02fb 24000000 		.4byte	.LFE45
 2677 02ff 0200     		.2byte	0x2
 2678 0301 77       		.byte	0x77
 2679 0302 10       		.sleb128 16
 2680 0303 00000000 		.4byte	0x0
 2681 0307 00000000 		.4byte	0x0
 2682              	.LLST17:
 2683 030b 00000000 		.4byte	.LFB46
 2684 030f 02000000 		.4byte	.LCFI38
 2685 0313 0100     		.2byte	0x1
 2686 0315 5D       		.byte	0x5d
 2687 0316 02000000 		.4byte	.LCFI38
 2688 031a 04000000 		.4byte	.LCFI39
 2689 031e 0200     		.2byte	0x2
 2690 0320 7D       		.byte	0x7d
 2691 0321 04       		.sleb128 4
 2692 0322 04000000 		.4byte	.LCFI39
 2693 0326 06000000 		.4byte	.LCFI40
 2694 032a 0200     		.2byte	0x2
 2695 032c 7D       		.byte	0x7d
 2696 032d 10       		.sleb128 16
 2697 032e 06000000 		.4byte	.LCFI40
 2698 0332 24000000 		.4byte	.LFE46
 2699 0336 0200     		.2byte	0x2
 2700 0338 77       		.byte	0x77
 2701 0339 10       		.sleb128 16
 2702 033a 00000000 		.4byte	0x0
 2703 033e 00000000 		.4byte	0x0
 2704              	.LLST18:
 2705 0342 00000000 		.4byte	.LFB47
 2706 0346 02000000 		.4byte	.LCFI41
 2707 034a 0100     		.2byte	0x1
 2708 034c 5D       		.byte	0x5d
 2709 034d 02000000 		.4byte	.LCFI41
 2710 0351 04000000 		.4byte	.LCFI42
 2711 0355 0200     		.2byte	0x2
 2712 0357 7D       		.byte	0x7d
 2713 0358 04       		.sleb128 4
 2714 0359 04000000 		.4byte	.LCFI42
 2715 035d 06000000 		.4byte	.LCFI43
 2716 0361 0200     		.2byte	0x2
 2717 0363 7D       		.byte	0x7d
ARM GAS  C:\Users\bccho\AppData\Local\Temp\ccHbMFsA.s 			page 57


 2718 0364 10       		.sleb128 16
 2719 0365 06000000 		.4byte	.LCFI43
 2720 0369 24000000 		.4byte	.LFE47
 2721 036d 0200     		.2byte	0x2
 2722 036f 77       		.byte	0x77
 2723 0370 10       		.sleb128 16
 2724 0371 00000000 		.4byte	0x0
 2725 0375 00000000 		.4byte	0x0
 2726              	.LLST19:
 2727 0379 00000000 		.4byte	.LFB48
 2728 037d 02000000 		.4byte	.LCFI44
 2729 0381 0100     		.2byte	0x1
 2730 0383 5D       		.byte	0x5d
 2731 0384 02000000 		.4byte	.LCFI44
 2732 0388 04000000 		.4byte	.LCFI45
 2733 038c 0200     		.2byte	0x2
 2734 038e 7D       		.byte	0x7d
 2735 038f 04       		.sleb128 4
 2736 0390 04000000 		.4byte	.LCFI45
 2737 0394 1A000000 		.4byte	.LFE48
 2738 0398 0200     		.2byte	0x2
 2739 039a 77       		.byte	0x77
 2740 039b 04       		.sleb128 4
 2741 039c 00000000 		.4byte	0x0
 2742 03a0 00000000 		.4byte	0x0
 2743              	.LLST20:
 2744 03a4 00000000 		.4byte	.LFB49
 2745 03a8 02000000 		.4byte	.LCFI46
 2746 03ac 0100     		.2byte	0x1
 2747 03ae 5D       		.byte	0x5d
 2748 03af 02000000 		.4byte	.LCFI46
 2749 03b3 04000000 		.4byte	.LCFI47
 2750 03b7 0200     		.2byte	0x2
 2751 03b9 7D       		.byte	0x7d
 2752 03ba 04       		.sleb128 4
 2753 03bb 04000000 		.4byte	.LCFI47
 2754 03bf 1A000000 		.4byte	.LFE49
 2755 03c3 0200     		.2byte	0x2
 2756 03c5 77       		.byte	0x77
 2757 03c6 04       		.sleb128 4
 2758 03c7 00000000 		.4byte	0x0
 2759 03cb 00000000 		.4byte	0x0
 2760              	.LLST21:
 2761 03cf 00000000 		.4byte	.LFB50
 2762 03d3 02000000 		.4byte	.LCFI48
 2763 03d7 0100     		.2byte	0x1
 2764 03d9 5D       		.byte	0x5d
 2765 03da 02000000 		.4byte	.LCFI48
 2766 03de 04000000 		.4byte	.LCFI49
 2767 03e2 0200     		.2byte	0x2
 2768 03e4 7D       		.byte	0x7d
 2769 03e5 04       		.sleb128 4
 2770 03e6 04000000 		.4byte	.LCFI49
 2771 03ea 1A000000 		.4byte	.LFE50
 2772 03ee 0200     		.2byte	0x2
 2773 03f0 77       		.byte	0x77
 2774 03f1 04       		.sleb128 4
ARM GAS  C:\Users\bccho\AppData\Local\Temp\ccHbMFsA.s 			page 58


 2775 03f2 00000000 		.4byte	0x0
 2776 03f6 00000000 		.4byte	0x0
 2777              	.LLST22:
 2778 03fa 00000000 		.4byte	.LFB51
 2779 03fe 02000000 		.4byte	.LCFI50
 2780 0402 0100     		.2byte	0x1
 2781 0404 5D       		.byte	0x5d
 2782 0405 02000000 		.4byte	.LCFI50
 2783 0409 04000000 		.4byte	.LCFI51
 2784 040d 0200     		.2byte	0x2
 2785 040f 7D       		.byte	0x7d
 2786 0410 04       		.sleb128 4
 2787 0411 04000000 		.4byte	.LCFI51
 2788 0415 1A000000 		.4byte	.LFE51
 2789 0419 0200     		.2byte	0x2
 2790 041b 77       		.byte	0x77
 2791 041c 04       		.sleb128 4
 2792 041d 00000000 		.4byte	0x0
 2793 0421 00000000 		.4byte	0x0
 2794              	.LLST23:
 2795 0425 00000000 		.4byte	.LFB52
 2796 0429 02000000 		.4byte	.LCFI52
 2797 042d 0100     		.2byte	0x1
 2798 042f 5D       		.byte	0x5d
 2799 0430 02000000 		.4byte	.LCFI52
 2800 0434 04000000 		.4byte	.LCFI53
 2801 0438 0200     		.2byte	0x2
 2802 043a 7D       		.byte	0x7d
 2803 043b 04       		.sleb128 4
 2804 043c 04000000 		.4byte	.LCFI53
 2805 0440 1A000000 		.4byte	.LFE52
 2806 0444 0200     		.2byte	0x2
 2807 0446 77       		.byte	0x77
 2808 0447 04       		.sleb128 4
 2809 0448 00000000 		.4byte	0x0
 2810 044c 00000000 		.4byte	0x0
 2811              	.LLST24:
 2812 0450 00000000 		.4byte	.LFB53
 2813 0454 02000000 		.4byte	.LCFI54
 2814 0458 0100     		.2byte	0x1
 2815 045a 5D       		.byte	0x5d
 2816 045b 02000000 		.4byte	.LCFI54
 2817 045f 04000000 		.4byte	.LCFI55
 2818 0463 0200     		.2byte	0x2
 2819 0465 7D       		.byte	0x7d
 2820 0466 08       		.sleb128 8
 2821 0467 04000000 		.4byte	.LCFI55
 2822 046b 12000000 		.4byte	.LFE53
 2823 046f 0200     		.2byte	0x2
 2824 0471 77       		.byte	0x77
 2825 0472 08       		.sleb128 8
 2826 0473 00000000 		.4byte	0x0
 2827 0477 00000000 		.4byte	0x0
 2828              	.LLST25:
 2829 047b 00000000 		.4byte	.LFB54
 2830 047f 02000000 		.4byte	.LCFI56
 2831 0483 0100     		.2byte	0x1
ARM GAS  C:\Users\bccho\AppData\Local\Temp\ccHbMFsA.s 			page 59


 2832 0485 5D       		.byte	0x5d
 2833 0486 02000000 		.4byte	.LCFI56
 2834 048a 04000000 		.4byte	.LCFI57
 2835 048e 0200     		.2byte	0x2
 2836 0490 7D       		.byte	0x7d
 2837 0491 04       		.sleb128 4
 2838 0492 04000000 		.4byte	.LCFI57
 2839 0496 1A000000 		.4byte	.LFE54
 2840 049a 0200     		.2byte	0x2
 2841 049c 77       		.byte	0x77
 2842 049d 04       		.sleb128 4
 2843 049e 00000000 		.4byte	0x0
 2844 04a2 00000000 		.4byte	0x0
 2845              	.LLST26:
 2846 04a6 00000000 		.4byte	.LFB55
 2847 04aa 02000000 		.4byte	.LCFI58
 2848 04ae 0100     		.2byte	0x1
 2849 04b0 5D       		.byte	0x5d
 2850 04b1 02000000 		.4byte	.LCFI58
 2851 04b5 04000000 		.4byte	.LCFI59
 2852 04b9 0200     		.2byte	0x2
 2853 04bb 7D       		.byte	0x7d
 2854 04bc 04       		.sleb128 4
 2855 04bd 04000000 		.4byte	.LCFI59
 2856 04c1 16000000 		.4byte	.LFE55
 2857 04c5 0200     		.2byte	0x2
 2858 04c7 77       		.byte	0x77
 2859 04c8 04       		.sleb128 4
 2860 04c9 00000000 		.4byte	0x0
 2861 04cd 00000000 		.4byte	0x0
 2862              	.LLST27:
 2863 04d1 00000000 		.4byte	.LFB56
 2864 04d5 02000000 		.4byte	.LCFI60
 2865 04d9 0100     		.2byte	0x1
 2866 04db 5D       		.byte	0x5d
 2867 04dc 02000000 		.4byte	.LCFI60
 2868 04e0 04000000 		.4byte	.LCFI61
 2869 04e4 0200     		.2byte	0x2
 2870 04e6 7D       		.byte	0x7d
 2871 04e7 08       		.sleb128 8
 2872 04e8 04000000 		.4byte	.LCFI61
 2873 04ec 06000000 		.4byte	.LCFI62
 2874 04f0 0200     		.2byte	0x2
 2875 04f2 7D       		.byte	0x7d
 2876 04f3 10       		.sleb128 16
 2877 04f4 06000000 		.4byte	.LCFI62
 2878 04f8 32000000 		.4byte	.LFE56
 2879 04fc 0200     		.2byte	0x2
 2880 04fe 77       		.byte	0x77
 2881 04ff 10       		.sleb128 16
 2882 0500 00000000 		.4byte	0x0
 2883 0504 00000000 		.4byte	0x0
 2884              	.LLST28:
 2885 0508 00000000 		.4byte	.LFB57
 2886 050c 02000000 		.4byte	.LCFI63
 2887 0510 0100     		.2byte	0x1
 2888 0512 5D       		.byte	0x5d
ARM GAS  C:\Users\bccho\AppData\Local\Temp\ccHbMFsA.s 			page 60


 2889 0513 02000000 		.4byte	.LCFI63
 2890 0517 04000000 		.4byte	.LCFI64
 2891 051b 0200     		.2byte	0x2
 2892 051d 7D       		.byte	0x7d
 2893 051e 04       		.sleb128 4
 2894 051f 04000000 		.4byte	.LCFI64
 2895 0523 16000000 		.4byte	.LFE57
 2896 0527 0200     		.2byte	0x2
 2897 0529 77       		.byte	0x77
 2898 052a 04       		.sleb128 4
 2899 052b 00000000 		.4byte	0x0
 2900 052f 00000000 		.4byte	0x0
 2901              	.LLST29:
 2902 0533 00000000 		.4byte	.LFB58
 2903 0537 02000000 		.4byte	.LCFI65
 2904 053b 0100     		.2byte	0x1
 2905 053d 5D       		.byte	0x5d
 2906 053e 02000000 		.4byte	.LCFI65
 2907 0542 04000000 		.4byte	.LCFI66
 2908 0546 0200     		.2byte	0x2
 2909 0548 7D       		.byte	0x7d
 2910 0549 08       		.sleb128 8
 2911 054a 04000000 		.4byte	.LCFI66
 2912 054e 0A000000 		.4byte	.LFE58
 2913 0552 0200     		.2byte	0x2
 2914 0554 77       		.byte	0x77
 2915 0555 08       		.sleb128 8
 2916 0556 00000000 		.4byte	0x0
 2917 055a 00000000 		.4byte	0x0
 2918              	.LLST30:
 2919 055e 00000000 		.4byte	.LFB59
 2920 0562 02000000 		.4byte	.LCFI67
 2921 0566 0100     		.2byte	0x1
 2922 0568 5D       		.byte	0x5d
 2923 0569 02000000 		.4byte	.LCFI67
 2924 056d 04000000 		.4byte	.LCFI68
 2925 0571 0200     		.2byte	0x2
 2926 0573 7D       		.byte	0x7d
 2927 0574 08       		.sleb128 8
 2928 0575 04000000 		.4byte	.LCFI68
 2929 0579 06000000 		.4byte	.LCFI69
 2930 057d 0200     		.2byte	0x2
 2931 057f 7D       		.byte	0x7d
 2932 0580 10       		.sleb128 16
 2933 0581 06000000 		.4byte	.LCFI69
 2934 0585 48010000 		.4byte	.LFE59
 2935 0589 0200     		.2byte	0x2
 2936 058b 77       		.byte	0x77
 2937 058c 10       		.sleb128 16
 2938 058d 00000000 		.4byte	0x0
 2939 0591 00000000 		.4byte	0x0
 2940              	.LLST31:
 2941 0595 00000000 		.4byte	.LFB60
 2942 0599 02000000 		.4byte	.LCFI70
 2943 059d 0100     		.2byte	0x1
 2944 059f 5D       		.byte	0x5d
 2945 05a0 02000000 		.4byte	.LCFI70
ARM GAS  C:\Users\bccho\AppData\Local\Temp\ccHbMFsA.s 			page 61


 2946 05a4 04000000 		.4byte	.LCFI71
 2947 05a8 0200     		.2byte	0x2
 2948 05aa 7D       		.byte	0x7d
 2949 05ab 08       		.sleb128 8
 2950 05ac 04000000 		.4byte	.LCFI71
 2951 05b0 1A000000 		.4byte	.LFE60
 2952 05b4 0200     		.2byte	0x2
 2953 05b6 77       		.byte	0x77
 2954 05b7 08       		.sleb128 8
 2955 05b8 00000000 		.4byte	0x0
 2956 05bc 00000000 		.4byte	0x0
 2957              	.LLST32:
 2958 05c0 00000000 		.4byte	.LFB61
 2959 05c4 02000000 		.4byte	.LCFI72
 2960 05c8 0100     		.2byte	0x1
 2961 05ca 5D       		.byte	0x5d
 2962 05cb 02000000 		.4byte	.LCFI72
 2963 05cf 04000000 		.4byte	.LCFI73
 2964 05d3 0200     		.2byte	0x2
 2965 05d5 7D       		.byte	0x7d
 2966 05d6 10       		.sleb128 16
 2967 05d7 04000000 		.4byte	.LCFI73
 2968 05db 88000000 		.4byte	.LFE61
 2969 05df 0200     		.2byte	0x2
 2970 05e1 77       		.byte	0x77
 2971 05e2 10       		.sleb128 16
 2972 05e3 00000000 		.4byte	0x0
 2973 05e7 00000000 		.4byte	0x0
 2974              	.LLST33:
 2975 05eb 00000000 		.4byte	.LFB62
 2976 05ef 02000000 		.4byte	.LCFI74
 2977 05f3 0100     		.2byte	0x1
 2978 05f5 5D       		.byte	0x5d
 2979 05f6 02000000 		.4byte	.LCFI74
 2980 05fa 04000000 		.4byte	.LCFI75
 2981 05fe 0200     		.2byte	0x2
 2982 0600 7D       		.byte	0x7d
 2983 0601 10       		.sleb128 16
 2984 0602 04000000 		.4byte	.LCFI75
 2985 0606 06000000 		.4byte	.LCFI76
 2986 060a 0300     		.2byte	0x3
 2987 060c 7D       		.byte	0x7d
 2988 060d 9001     		.sleb128 144
 2989 060f 06000000 		.4byte	.LCFI76
 2990 0613 3C040000 		.4byte	.LFE62
 2991 0617 0300     		.2byte	0x3
 2992 0619 77       		.byte	0x77
 2993 061a D000     		.sleb128 80
 2994 061c 00000000 		.4byte	0x0
 2995 0620 00000000 		.4byte	0x0
 2996              	.LLST34:
 2997 0624 00000000 		.4byte	.LFB63
 2998 0628 02000000 		.4byte	.LCFI77
 2999 062c 0100     		.2byte	0x1
 3000 062e 5D       		.byte	0x5d
 3001 062f 02000000 		.4byte	.LCFI77
 3002 0633 04000000 		.4byte	.LCFI78
ARM GAS  C:\Users\bccho\AppData\Local\Temp\ccHbMFsA.s 			page 62


 3003 0637 0200     		.2byte	0x2
 3004 0639 7D       		.byte	0x7d
 3005 063a 08       		.sleb128 8
 3006 063b 04000000 		.4byte	.LCFI78
 3007 063f 28000000 		.4byte	.LFE63
 3008 0643 0200     		.2byte	0x2
 3009 0645 77       		.byte	0x77
 3010 0646 08       		.sleb128 8
 3011 0647 00000000 		.4byte	0x0
 3012 064b 00000000 		.4byte	0x0
 3013              	.LLST35:
 3014 064f 00000000 		.4byte	.LFB64
 3015 0653 02000000 		.4byte	.LCFI79
 3016 0657 0100     		.2byte	0x1
 3017 0659 5D       		.byte	0x5d
 3018 065a 02000000 		.4byte	.LCFI79
 3019 065e 04000000 		.4byte	.LCFI80
 3020 0662 0200     		.2byte	0x2
 3021 0664 7D       		.byte	0x7d
 3022 0665 08       		.sleb128 8
 3023 0666 04000000 		.4byte	.LCFI80
 3024 066a 06000000 		.4byte	.LCFI81
 3025 066e 0200     		.2byte	0x2
 3026 0670 7D       		.byte	0x7d
 3027 0671 18       		.sleb128 24
 3028 0672 06000000 		.4byte	.LCFI81
 3029 0676 8A000000 		.4byte	.LFE64
 3030 067a 0200     		.2byte	0x2
 3031 067c 77       		.byte	0x77
 3032 067d 18       		.sleb128 24
 3033 067e 00000000 		.4byte	0x0
 3034 0682 00000000 		.4byte	0x0
 3035              	.LLST36:
 3036 0686 00000000 		.4byte	.LFB65
 3037 068a 02000000 		.4byte	.LCFI82
 3038 068e 0100     		.2byte	0x1
 3039 0690 5D       		.byte	0x5d
 3040 0691 02000000 		.4byte	.LCFI82
 3041 0695 04000000 		.4byte	.LCFI83
 3042 0699 0200     		.2byte	0x2
 3043 069b 7D       		.byte	0x7d
 3044 069c 08       		.sleb128 8
 3045 069d 04000000 		.4byte	.LCFI83
 3046 06a1 06000000 		.4byte	.LCFI84
 3047 06a5 0200     		.2byte	0x2
 3048 06a7 7D       		.byte	0x7d
 3049 06a8 30       		.sleb128 48
 3050 06a9 06000000 		.4byte	.LCFI84
 3051 06ad 30010000 		.4byte	.LFE65
 3052 06b1 0200     		.2byte	0x2
 3053 06b3 77       		.byte	0x77
 3054 06b4 30       		.sleb128 48
 3055 06b5 00000000 		.4byte	0x0
 3056 06b9 00000000 		.4byte	0x0
 3057              	.LLST37:
 3058 06bd 00000000 		.4byte	.LFB66
 3059 06c1 02000000 		.4byte	.LCFI85
ARM GAS  C:\Users\bccho\AppData\Local\Temp\ccHbMFsA.s 			page 63


 3060 06c5 0100     		.2byte	0x1
 3061 06c7 5D       		.byte	0x5d
 3062 06c8 02000000 		.4byte	.LCFI85
 3063 06cc 04000000 		.4byte	.LCFI86
 3064 06d0 0200     		.2byte	0x2
 3065 06d2 7D       		.byte	0x7d
 3066 06d3 04       		.sleb128 4
 3067 06d4 04000000 		.4byte	.LCFI86
 3068 06d8 06000000 		.4byte	.LCFI87
 3069 06dc 0200     		.2byte	0x2
 3070 06de 7D       		.byte	0x7d
 3071 06df 10       		.sleb128 16
 3072 06e0 06000000 		.4byte	.LCFI87
 3073 06e4 54000000 		.4byte	.LFE66
 3074 06e8 0200     		.2byte	0x2
 3075 06ea 77       		.byte	0x77
 3076 06eb 10       		.sleb128 16
 3077 06ec 00000000 		.4byte	0x0
 3078 06f0 00000000 		.4byte	0x0
 3079              	.LLST38:
 3080 06f4 00000000 		.4byte	.LFB67
 3081 06f8 02000000 		.4byte	.LCFI88
 3082 06fc 0100     		.2byte	0x1
 3083 06fe 5D       		.byte	0x5d
 3084 06ff 02000000 		.4byte	.LCFI88
 3085 0703 04000000 		.4byte	.LCFI89
 3086 0707 0200     		.2byte	0x2
 3087 0709 7D       		.byte	0x7d
 3088 070a 04       		.sleb128 4
 3089 070b 04000000 		.4byte	.LCFI89
 3090 070f 06000000 		.4byte	.LCFI90
 3091 0713 0200     		.2byte	0x2
 3092 0715 7D       		.byte	0x7d
 3093 0716 10       		.sleb128 16
 3094 0717 06000000 		.4byte	.LCFI90
 3095 071b 60000000 		.4byte	.LFE67
 3096 071f 0200     		.2byte	0x2
 3097 0721 77       		.byte	0x77
 3098 0722 10       		.sleb128 16
 3099 0723 00000000 		.4byte	0x0
 3100 0727 00000000 		.4byte	0x0
 3101              	.LLST39:
 3102 072b 00000000 		.4byte	.LFB68
 3103 072f 02000000 		.4byte	.LCFI91
 3104 0733 0100     		.2byte	0x1
 3105 0735 5D       		.byte	0x5d
 3106 0736 02000000 		.4byte	.LCFI91
 3107 073a 04000000 		.4byte	.LCFI92
 3108 073e 0200     		.2byte	0x2
 3109 0740 7D       		.byte	0x7d
 3110 0741 04       		.sleb128 4
 3111 0742 04000000 		.4byte	.LCFI92
 3112 0746 1E000000 		.4byte	.LFE68
 3113 074a 0200     		.2byte	0x2
 3114 074c 77       		.byte	0x77
 3115 074d 04       		.sleb128 4
 3116 074e 00000000 		.4byte	0x0
ARM GAS  C:\Users\bccho\AppData\Local\Temp\ccHbMFsA.s 			page 64


 3117 0752 00000000 		.4byte	0x0
 3118              		.file 2 "./Generated_Source/PSoC5/core_cm3.h"
 3119              		.section	.debug_info
 3120 0000 EE070000 		.4byte	0x7ee
 3121 0004 0200     		.2byte	0x2
 3122 0006 00000000 		.4byte	.Ldebug_abbrev0
 3123 000a 04       		.byte	0x4
 3124 000b 01       		.uleb128 0x1
 3125 000c 3A060000 		.4byte	.LASF95
 3126 0010 01       		.byte	0x1
 3127 0011 0F010000 		.4byte	.LASF96
 3128 0015 AE030000 		.4byte	.LASF97
 3129 0019 00000000 		.4byte	0x0
 3130 001d 00000000 		.4byte	0x0
 3131 0021 00000000 		.4byte	.Ldebug_ranges0+0x0
 3132 0025 00000000 		.4byte	.Ldebug_line0
 3133 0029 02       		.uleb128 0x2
 3134 002a 01       		.byte	0x1
 3135 002b 06       		.byte	0x6
 3136 002c 8B030000 		.4byte	.LASF0
 3137 0030 02       		.uleb128 0x2
 3138 0031 01       		.byte	0x1
 3139 0032 08       		.byte	0x8
 3140 0033 C4020000 		.4byte	.LASF1
 3141 0037 02       		.uleb128 0x2
 3142 0038 02       		.byte	0x2
 3143 0039 05       		.byte	0x5
 3144 003a 93000000 		.4byte	.LASF2
 3145 003e 02       		.uleb128 0x2
 3146 003f 02       		.byte	0x2
 3147 0040 07       		.byte	0x7
 3148 0041 BC040000 		.4byte	.LASF3
 3149 0045 02       		.uleb128 0x2
 3150 0046 04       		.byte	0x4
 3151 0047 05       		.byte	0x5
 3152 0048 4B020000 		.4byte	.LASF4
 3153 004c 02       		.uleb128 0x2
 3154 004d 04       		.byte	0x4
 3155 004e 07       		.byte	0x7
 3156 004f D1050000 		.4byte	.LASF5
 3157 0053 02       		.uleb128 0x2
 3158 0054 08       		.byte	0x8
 3159 0055 05       		.byte	0x5
 3160 0056 BA000000 		.4byte	.LASF6
 3161 005a 02       		.uleb128 0x2
 3162 005b 08       		.byte	0x8
 3163 005c 07       		.byte	0x7
 3164 005d 97030000 		.4byte	.LASF7
 3165 0061 03       		.uleb128 0x3
 3166 0062 04       		.byte	0x4
 3167 0063 05       		.byte	0x5
 3168 0064 696E7400 		.ascii	"int\000"
 3169 0068 02       		.uleb128 0x2
 3170 0069 04       		.byte	0x4
 3171 006a 07       		.byte	0x7
 3172 006b 15040000 		.4byte	.LASF8
 3173 006f 02       		.uleb128 0x2
ARM GAS  C:\Users\bccho\AppData\Local\Temp\ccHbMFsA.s 			page 65


 3174 0070 01       		.byte	0x1
 3175 0071 08       		.byte	0x8
 3176 0072 E3040000 		.4byte	.LASF9
 3177 0076 04       		.uleb128 0x4
 3178 0077 04       		.byte	0x4
 3179 0078 07       		.byte	0x7
 3180 0079 02       		.uleb128 0x2
 3181 007a 08       		.byte	0x8
 3182 007b 04       		.byte	0x4
 3183 007c A7050000 		.4byte	.LASF10
 3184 0080 02       		.uleb128 0x2
 3185 0081 04       		.byte	0x4
 3186 0082 04       		.byte	0x4
 3187 0083 30000000 		.4byte	.LASF11
 3188 0087 02       		.uleb128 0x2
 3189 0088 08       		.byte	0x8
 3190 0089 04       		.byte	0x4
 3191 008a 00000000 		.4byte	.LASF12
 3192 008e 05       		.uleb128 0x5
 3193 008f 01       		.byte	0x1
 3194 0090 10070000 		.4byte	.LASF13
 3195 0094 01       		.byte	0x1
 3196 0095 4C       		.byte	0x4c
 3197 0096 00000000 		.4byte	.LFB29
 3198 009a 16000000 		.4byte	.LFE29
 3199 009e 00000000 		.4byte	.LLST0
 3200 00a2 05       		.uleb128 0x5
 3201 00a3 01       		.byte	0x1
 3202 00a4 E8040000 		.4byte	.LASF14
 3203 00a8 01       		.byte	0x1
 3204 00a9 53       		.byte	0x53
 3205 00aa 00000000 		.4byte	.LFB30
 3206 00ae 44000000 		.4byte	.LFE30
 3207 00b2 2B000000 		.4byte	.LLST1
 3208 00b6 05       		.uleb128 0x5
 3209 00b7 01       		.byte	0x1
 3210 00b8 6D000000 		.4byte	.LASF15
 3211 00bc 01       		.byte	0x1
 3212 00bd 5C       		.byte	0x5c
 3213 00be 00000000 		.4byte	.LFB31
 3214 00c2 1C000000 		.4byte	.LFE31
 3215 00c6 56000000 		.4byte	.LLST2
 3216 00ca 05       		.uleb128 0x5
 3217 00cb 01       		.byte	0x1
 3218 00cc FC040000 		.4byte	.LASF16
 3219 00d0 01       		.byte	0x1
 3220 00d1 62       		.byte	0x62
 3221 00d2 00000000 		.4byte	.LFB32
 3222 00d6 18000000 		.4byte	.LFE32
 3223 00da 81000000 		.4byte	.LLST3
 3224 00de 05       		.uleb128 0x5
 3225 00df 01       		.byte	0x1
 3226 00e0 0C000000 		.4byte	.LASF17
 3227 00e4 01       		.byte	0x1
 3228 00e5 67       		.byte	0x67
 3229 00e6 00000000 		.4byte	.LFB33
 3230 00ea 26000000 		.4byte	.LFE33
ARM GAS  C:\Users\bccho\AppData\Local\Temp\ccHbMFsA.s 			page 66


 3231 00ee AC000000 		.4byte	.LLST4
 3232 00f2 05       		.uleb128 0x5
 3233 00f3 01       		.byte	0x1
 3234 00f4 FC020000 		.4byte	.LASF18
 3235 00f8 01       		.byte	0x1
 3236 00f9 6D       		.byte	0x6d
 3237 00fa 00000000 		.4byte	.LFB34
 3238 00fe 3E000000 		.4byte	.LFE34
 3239 0102 D7000000 		.4byte	.LLST5
 3240 0106 05       		.uleb128 0x5
 3241 0107 01       		.byte	0x1
 3242 0108 C5010000 		.4byte	.LASF19
 3243 010c 01       		.byte	0x1
 3244 010d 78       		.byte	0x78
 3245 010e 00000000 		.4byte	.LFB35
 3246 0112 18000000 		.4byte	.LFE35
 3247 0116 02010000 		.4byte	.LLST6
 3248 011a 06       		.uleb128 0x6
 3249 011b 01       		.byte	0x1
 3250 011c 74030000 		.4byte	.LASF20
 3251 0120 01       		.byte	0x1
 3252 0121 7D       		.byte	0x7d
 3253 0122 61000000 		.4byte	0x61
 3254 0126 00000000 		.4byte	.LFB36
 3255 012a 16000000 		.4byte	.LFE36
 3256 012e 2D010000 		.4byte	.LLST7
 3257 0132 06       		.uleb128 0x6
 3258 0133 01       		.byte	0x1
 3259 0134 68050000 		.4byte	.LASF21
 3260 0138 01       		.byte	0x1
 3261 0139 82       		.byte	0x82
 3262 013a 61000000 		.4byte	0x61
 3263 013e 00000000 		.4byte	.LFB37
 3264 0142 16000000 		.4byte	.LFE37
 3265 0146 58010000 		.4byte	.LLST8
 3266 014a 06       		.uleb128 0x6
 3267 014b 01       		.byte	0x1
 3268 014c 63040000 		.4byte	.LASF22
 3269 0150 01       		.byte	0x1
 3270 0151 87       		.byte	0x87
 3271 0152 61000000 		.4byte	0x61
 3272 0156 00000000 		.4byte	.LFB38
 3273 015a 16000000 		.4byte	.LFE38
 3274 015e 83010000 		.4byte	.LLST9
 3275 0162 05       		.uleb128 0x5
 3276 0163 01       		.byte	0x1
 3277 0164 ED060000 		.4byte	.LASF23
 3278 0168 01       		.byte	0x1
 3279 0169 8C       		.byte	0x8c
 3280 016a 00000000 		.4byte	.LFB39
 3281 016e 18000000 		.4byte	.LFE39
 3282 0172 AE010000 		.4byte	.LLST10
 3283 0176 05       		.uleb128 0x5
 3284 0177 01       		.byte	0x1
 3285 0178 37050000 		.4byte	.LASF24
 3286 017c 01       		.byte	0x1
 3287 017d 91       		.byte	0x91
ARM GAS  C:\Users\bccho\AppData\Local\Temp\ccHbMFsA.s 			page 67


 3288 017e 00000000 		.4byte	.LFB40
 3289 0182 18000000 		.4byte	.LFE40
 3290 0186 D9010000 		.4byte	.LLST11
 3291 018a 06       		.uleb128 0x6
 3292 018b 01       		.byte	0x1
 3293 018c 4E030000 		.4byte	.LASF25
 3294 0190 01       		.byte	0x1
 3295 0191 96       		.byte	0x96
 3296 0192 61000000 		.4byte	0x61
 3297 0196 00000000 		.4byte	.LFB41
 3298 019a 16000000 		.4byte	.LFE41
 3299 019e 04020000 		.4byte	.LLST12
 3300 01a2 07       		.uleb128 0x7
 3301 01a3 01       		.byte	0x1
 3302 01a4 2F020000 		.4byte	.LASF26
 3303 01a8 01       		.byte	0x1
 3304 01a9 9B       		.byte	0x9b
 3305 01aa 01       		.byte	0x1
 3306 01ab 00000000 		.4byte	.LFB42
 3307 01af 6E000000 		.4byte	.LFE42
 3308 01b3 2F020000 		.4byte	.LLST13
 3309 01b7 C9010000 		.4byte	0x1c9
 3310 01bb 08       		.uleb128 0x8
 3311 01bc 747300   		.ascii	"ts\000"
 3312 01bf 01       		.byte	0x1
 3313 01c0 9B       		.byte	0x9b
 3314 01c1 79000000 		.4byte	0x79
 3315 01c5 02       		.byte	0x2
 3316 01c6 91       		.byte	0x91
 3317 01c7 70       		.sleb128 -16
 3318 01c8 00       		.byte	0x0
 3319 01c9 07       		.uleb128 0x7
 3320 01ca 01       		.byte	0x1
 3321 01cb 22040000 		.4byte	.LASF27
 3322 01cf 01       		.byte	0x1
 3323 01d0 A6       		.byte	0xa6
 3324 01d1 01       		.byte	0x1
 3325 01d2 00000000 		.4byte	.LFB43
 3326 01d6 6E000000 		.4byte	.LFE43
 3327 01da 66020000 		.4byte	.LLST14
 3328 01de F1010000 		.4byte	0x1f1
 3329 01e2 09       		.uleb128 0x9
 3330 01e3 82000000 		.4byte	.LASF28
 3331 01e7 01       		.byte	0x1
 3332 01e8 A6       		.byte	0xa6
 3333 01e9 79000000 		.4byte	0x79
 3334 01ed 02       		.byte	0x2
 3335 01ee 91       		.byte	0x91
 3336 01ef 70       		.sleb128 -16
 3337 01f0 00       		.byte	0x0
 3338 01f1 07       		.uleb128 0x7
 3339 01f2 01       		.byte	0x1
 3340 01f3 D2020000 		.4byte	.LASF29
 3341 01f7 01       		.byte	0x1
 3342 01f8 B1       		.byte	0xb1
 3343 01f9 01       		.byte	0x1
 3344 01fa 00000000 		.4byte	.LFB44
ARM GAS  C:\Users\bccho\AppData\Local\Temp\ccHbMFsA.s 			page 68


 3345 01fe 1E000000 		.4byte	.LFE44
 3346 0202 9D020000 		.4byte	.LLST15
 3347 0206 19020000 		.4byte	0x219
 3348 020a 08       		.uleb128 0x8
 3349 020b 74687200 		.ascii	"thr\000"
 3350 020f 01       		.byte	0x1
 3351 0210 B1       		.byte	0xb1
 3352 0211 61000000 		.4byte	0x61
 3353 0215 02       		.byte	0x2
 3354 0216 91       		.byte	0x91
 3355 0217 74       		.sleb128 -12
 3356 0218 00       		.byte	0x0
 3357 0219 07       		.uleb128 0x7
 3358 021a 01       		.byte	0x1
 3359 021b 7C020000 		.4byte	.LASF30
 3360 021f 01       		.byte	0x1
 3361 0220 B6       		.byte	0xb6
 3362 0221 01       		.byte	0x1
 3363 0222 00000000 		.4byte	.LFB45
 3364 0226 24000000 		.4byte	.LFE45
 3365 022a D4020000 		.4byte	.LLST16
 3366 022e 3F020000 		.4byte	0x23f
 3367 0232 08       		.uleb128 0x8
 3368 0233 5000     		.ascii	"P\000"
 3369 0235 01       		.byte	0x1
 3370 0236 B6       		.byte	0xb6
 3371 0237 79000000 		.4byte	0x79
 3372 023b 02       		.byte	0x2
 3373 023c 91       		.byte	0x91
 3374 023d 70       		.sleb128 -16
 3375 023e 00       		.byte	0x0
 3376 023f 07       		.uleb128 0x7
 3377 0240 01       		.byte	0x1
 3378 0241 54020000 		.4byte	.LASF31
 3379 0245 01       		.byte	0x1
 3380 0246 BB       		.byte	0xbb
 3381 0247 01       		.byte	0x1
 3382 0248 00000000 		.4byte	.LFB46
 3383 024c 24000000 		.4byte	.LFE46
 3384 0250 0B030000 		.4byte	.LLST17
 3385 0254 65020000 		.4byte	0x265
 3386 0258 08       		.uleb128 0x8
 3387 0259 4900     		.ascii	"I\000"
 3388 025b 01       		.byte	0x1
 3389 025c BB       		.byte	0xbb
 3390 025d 79000000 		.4byte	0x79
 3391 0261 02       		.byte	0x2
 3392 0262 91       		.byte	0x91
 3393 0263 70       		.sleb128 -16
 3394 0264 00       		.byte	0x0
 3395 0265 07       		.uleb128 0x7
 3396 0266 01       		.byte	0x1
 3397 0267 1D020000 		.4byte	.LASF32
 3398 026b 01       		.byte	0x1
 3399 026c C0       		.byte	0xc0
 3400 026d 01       		.byte	0x1
 3401 026e 00000000 		.4byte	.LFB47
ARM GAS  C:\Users\bccho\AppData\Local\Temp\ccHbMFsA.s 			page 69


 3402 0272 24000000 		.4byte	.LFE47
 3403 0276 42030000 		.4byte	.LLST18
 3404 027a 8B020000 		.4byte	0x28b
 3405 027e 08       		.uleb128 0x8
 3406 027f 4400     		.ascii	"D\000"
 3407 0281 01       		.byte	0x1
 3408 0282 C0       		.byte	0xc0
 3409 0283 79000000 		.4byte	0x79
 3410 0287 02       		.byte	0x2
 3411 0288 91       		.byte	0x91
 3412 0289 70       		.sleb128 -16
 3413 028a 00       		.byte	0x0
 3414 028b 06       		.uleb128 0x6
 3415 028c 01       		.byte	0x1
 3416 028d 46060000 		.4byte	.LASF33
 3417 0291 01       		.byte	0x1
 3418 0292 C5       		.byte	0xc5
 3419 0293 79000000 		.4byte	0x79
 3420 0297 00000000 		.4byte	.LFB48
 3421 029b 1A000000 		.4byte	.LFE48
 3422 029f 79030000 		.4byte	.LLST19
 3423 02a3 06       		.uleb128 0x6
 3424 02a4 01       		.byte	0x1
 3425 02a5 36000000 		.4byte	.LASF34
 3426 02a9 01       		.byte	0x1
 3427 02aa CA       		.byte	0xca
 3428 02ab 79000000 		.4byte	0x79
 3429 02af 00000000 		.4byte	.LFB49
 3430 02b3 1A000000 		.4byte	.LFE49
 3431 02b7 A4030000 		.4byte	.LLST20
 3432 02bb 06       		.uleb128 0x6
 3433 02bc 01       		.byte	0x1
 3434 02bd ED010000 		.4byte	.LASF35
 3435 02c1 01       		.byte	0x1
 3436 02c2 CF       		.byte	0xcf
 3437 02c3 79000000 		.4byte	0x79
 3438 02c7 00000000 		.4byte	.LFB50
 3439 02cb 1A000000 		.4byte	.LFE50
 3440 02cf CF030000 		.4byte	.LLST21
 3441 02d3 06       		.uleb128 0x6
 3442 02d4 01       		.byte	0x1
 3443 02d5 98010000 		.4byte	.LASF36
 3444 02d9 01       		.byte	0x1
 3445 02da D4       		.byte	0xd4
 3446 02db 79000000 		.4byte	0x79
 3447 02df 00000000 		.4byte	.LFB51
 3448 02e3 1A000000 		.4byte	.LFE51
 3449 02e7 FA030000 		.4byte	.LLST22
 3450 02eb 06       		.uleb128 0x6
 3451 02ec 01       		.byte	0x1
 3452 02ed 86010000 		.4byte	.LASF37
 3453 02f1 01       		.byte	0x1
 3454 02f2 D9       		.byte	0xd9
 3455 02f3 79000000 		.4byte	0x79
 3456 02f7 00000000 		.4byte	.LFB52
 3457 02fb 1A000000 		.4byte	.LFE52
 3458 02ff 25040000 		.4byte	.LLST23
ARM GAS  C:\Users\bccho\AppData\Local\Temp\ccHbMFsA.s 			page 70


 3459 0303 06       		.uleb128 0x6
 3460 0304 01       		.byte	0x1
 3461 0305 A6040000 		.4byte	.LASF38
 3462 0309 01       		.byte	0x1
 3463 030a DE       		.byte	0xde
 3464 030b 79000000 		.4byte	0x79
 3465 030f 00000000 		.4byte	.LFB53
 3466 0313 12000000 		.4byte	.LFE53
 3467 0317 50040000 		.4byte	.LLST24
 3468 031b 06       		.uleb128 0x6
 3469 031c 01       		.byte	0x1
 3470 031d 8D040000 		.4byte	.LASF39
 3471 0321 01       		.byte	0x1
 3472 0322 E3       		.byte	0xe3
 3473 0323 79000000 		.4byte	0x79
 3474 0327 00000000 		.4byte	.LFB54
 3475 032b 1A000000 		.4byte	.LFE54
 3476 032f 7B040000 		.4byte	.LLST25
 3477 0333 06       		.uleb128 0x6
 3478 0334 01       		.byte	0x1
 3479 0335 30010000 		.4byte	.LASF40
 3480 0339 01       		.byte	0x1
 3481 033a E8       		.byte	0xe8
 3482 033b 61000000 		.4byte	0x61
 3483 033f 00000000 		.4byte	.LFB55
 3484 0343 16000000 		.4byte	.LFE55
 3485 0347 A6040000 		.4byte	.LLST26
 3486 034b 07       		.uleb128 0x7
 3487 034c 01       		.byte	0x1
 3488 034d B8050000 		.4byte	.LASF41
 3489 0351 01       		.byte	0x1
 3490 0352 ED       		.byte	0xed
 3491 0353 01       		.byte	0x1
 3492 0354 00000000 		.4byte	.LFB56
 3493 0358 32000000 		.4byte	.LFE56
 3494 035c D1040000 		.4byte	.LLST27
 3495 0360 73030000 		.4byte	0x373
 3496 0364 09       		.uleb128 0x9
 3497 0365 29070000 		.4byte	.LASF42
 3498 0369 01       		.byte	0x1
 3499 036a ED       		.byte	0xed
 3500 036b 61000000 		.4byte	0x61
 3501 036f 02       		.byte	0x2
 3502 0370 91       		.byte	0x91
 3503 0371 74       		.sleb128 -12
 3504 0372 00       		.byte	0x0
 3505 0373 06       		.uleb128 0x6
 3506 0374 01       		.byte	0x1
 3507 0375 81060000 		.4byte	.LASF43
 3508 0379 01       		.byte	0x1
 3509 037a F3       		.byte	0xf3
 3510 037b 61000000 		.4byte	0x61
 3511 037f 00000000 		.4byte	.LFB57
 3512 0383 16000000 		.4byte	.LFE57
 3513 0387 08050000 		.4byte	.LLST28
 3514 038b 05       		.uleb128 0x5
 3515 038c 01       		.byte	0x1
ARM GAS  C:\Users\bccho\AppData\Local\Temp\ccHbMFsA.s 			page 71


 3516 038d E3050000 		.4byte	.LASF44
 3517 0391 01       		.byte	0x1
 3518 0392 F8       		.byte	0xf8
 3519 0393 00000000 		.4byte	.LFB58
 3520 0397 0A000000 		.4byte	.LFE58
 3521 039b 33050000 		.4byte	.LLST29
 3522 039f 0A       		.uleb128 0xa
 3523 03a0 01       		.byte	0x1
 3524 03a1 B4060000 		.4byte	.LASF98
 3525 03a5 01       		.byte	0x1
 3526 03a6 FD       		.byte	0xfd
 3527 03a7 00000000 		.4byte	.LFB59
 3528 03ab 48010000 		.4byte	.LFE59
 3529 03af 5E050000 		.4byte	.LLST30
 3530 03b3 D5030000 		.4byte	0x3d5
 3531 03b7 0B       		.uleb128 0xb
 3532 03b8 30060000 		.4byte	.LASF45
 3533 03bc 01       		.byte	0x1
 3534 03bd FE       		.byte	0xfe
 3535 03be 61000000 		.4byte	0x61
 3536 03c2 02       		.byte	0x2
 3537 03c3 91       		.byte	0x91
 3538 03c4 70       		.sleb128 -16
 3539 03c5 0C       		.uleb128 0xc
 3540 03c6 D1060000 		.4byte	.LASF46
 3541 03ca 01       		.byte	0x1
 3542 03cb 0101     		.2byte	0x101
 3543 03cd 61000000 		.4byte	0x61
 3544 03d1 02       		.byte	0x2
 3545 03d2 91       		.byte	0x91
 3546 03d3 74       		.sleb128 -12
 3547 03d4 00       		.byte	0x0
 3548 03d5 0D       		.uleb128 0xd
 3549 03d6 01       		.byte	0x1
 3550 03d7 CF000000 		.4byte	.LASF47
 3551 03db 01       		.byte	0x1
 3552 03dc 1001     		.2byte	0x110
 3553 03de 00000000 		.4byte	.LFB60
 3554 03e2 1A000000 		.4byte	.LFE60
 3555 03e6 95050000 		.4byte	.LLST31
 3556 03ea 0D       		.uleb128 0xd
 3557 03eb 01       		.byte	0x1
 3558 03ec 8E050000 		.4byte	.LASF48
 3559 03f0 01       		.byte	0x1
 3560 03f1 1A01     		.2byte	0x11a
 3561 03f3 00000000 		.4byte	.LFB61
 3562 03f7 88000000 		.4byte	.LFE61
 3563 03fb C0050000 		.4byte	.LLST32
 3564 03ff 0E       		.uleb128 0xe
 3565 0400 99020000 		.4byte	.LASF99
 3566 0404 01       		.byte	0x1
 3567 0405 2801     		.2byte	0x128
 3568 0407 01       		.byte	0x1
 3569 0408 61000000 		.4byte	0x61
 3570 040c 00000000 		.4byte	.LFB62
 3571 0410 3C040000 		.4byte	.LFE62
 3572 0414 EB050000 		.4byte	.LLST33
ARM GAS  C:\Users\bccho\AppData\Local\Temp\ccHbMFsA.s 			page 72


 3573 0418 A1040000 		.4byte	0x4a1
 3574 041c 0F       		.uleb128 0xf
 3575 041d F6020000 		.4byte	.LASF49
 3576 0421 01       		.byte	0x1
 3577 0422 2801     		.2byte	0x128
 3578 0424 79000000 		.4byte	0x79
 3579 0428 03       		.byte	0x3
 3580 0429 91       		.byte	0x91
 3581 042a B07F     		.sleb128 -80
 3582 042c 10       		.uleb128 0x10
 3583 042d 82000000 		.4byte	.LBB2
 3584 0431 32040000 		.4byte	.LBE2
 3585 0435 0C       		.uleb128 0xc
 3586 0436 A9020000 		.4byte	.LASF50
 3587 043a 01       		.byte	0x1
 3588 043b 3301     		.2byte	0x133
 3589 043d 79000000 		.4byte	0x79
 3590 0441 03       		.byte	0x3
 3591 0442 91       		.byte	0x91
 3592 0443 B87F     		.sleb128 -72
 3593 0445 0C       		.uleb128 0xc
 3594 0446 66020000 		.4byte	.LASF51
 3595 044a 01       		.byte	0x1
 3596 044b 3401     		.2byte	0x134
 3597 044d 79000000 		.4byte	0x79
 3598 0451 02       		.byte	0x2
 3599 0452 91       		.byte	0x91
 3600 0453 40       		.sleb128 -64
 3601 0454 0C       		.uleb128 0xc
 3602 0455 73020000 		.4byte	.LASF52
 3603 0459 01       		.byte	0x1
 3604 045a 3501     		.2byte	0x135
 3605 045c 79000000 		.4byte	0x79
 3606 0460 02       		.byte	0x2
 3607 0461 91       		.byte	0x91
 3608 0462 48       		.sleb128 -56
 3609 0463 0C       		.uleb128 0xc
 3610 0464 F5050000 		.4byte	.LASF53
 3611 0468 01       		.byte	0x1
 3612 0469 3601     		.2byte	0x136
 3613 046b A1040000 		.4byte	0x4a1
 3614 046f 02       		.byte	0x2
 3615 0470 91       		.byte	0x91
 3616 0471 50       		.sleb128 -48
 3617 0472 0C       		.uleb128 0xc
 3618 0473 2A060000 		.4byte	.LASF54
 3619 0477 01       		.byte	0x1
 3620 0478 4501     		.2byte	0x145
 3621 047a 79000000 		.4byte	0x79
 3622 047e 02       		.byte	0x2
 3623 047f 91       		.byte	0x91
 3624 0480 58       		.sleb128 -40
 3625 0481 0C       		.uleb128 0xc
 3626 0482 63010000 		.4byte	.LASF55
 3627 0486 01       		.byte	0x1
 3628 0487 4801     		.2byte	0x148
 3629 0489 79000000 		.4byte	0x79
ARM GAS  C:\Users\bccho\AppData\Local\Temp\ccHbMFsA.s 			page 73


 3630 048d 02       		.byte	0x2
 3631 048e 91       		.byte	0x91
 3632 048f 60       		.sleb128 -32
 3633 0490 0C       		.uleb128 0xc
 3634 0491 1F050000 		.4byte	.LASF56
 3635 0495 01       		.byte	0x1
 3636 0496 5101     		.2byte	0x151
 3637 0498 61000000 		.4byte	0x61
 3638 049c 02       		.byte	0x2
 3639 049d 91       		.byte	0x91
 3640 049e 6C       		.sleb128 -20
 3641 049f 00       		.byte	0x0
 3642 04a0 00       		.byte	0x0
 3643 04a1 11       		.uleb128 0x11
 3644 04a2 79000000 		.4byte	0x79
 3645 04a6 12       		.uleb128 0x12
 3646 04a7 BC020000 		.4byte	.LASF65
 3647 04ab 01       		.byte	0x1
 3648 04ac 5F01     		.2byte	0x15f
 3649 04ae 00000000 		.4byte	.LFB63
 3650 04b2 28000000 		.4byte	.LFE63
 3651 04b6 24060000 		.4byte	.LLST34
 3652 04ba 13       		.uleb128 0x13
 3653 04bb 57040000 		.4byte	.LASF58
 3654 04bf 01       		.byte	0x1
 3655 04c0 6801     		.2byte	0x168
 3656 04c2 01       		.byte	0x1
 3657 04c3 00000000 		.4byte	.LFB64
 3658 04c7 8A000000 		.4byte	.LFE64
 3659 04cb 4F060000 		.4byte	.LLST35
 3660 04cf F2040000 		.4byte	0x4f2
 3661 04d3 14       		.uleb128 0x14
 3662 04d4 74687200 		.ascii	"thr\000"
 3663 04d8 01       		.byte	0x1
 3664 04d9 6801     		.2byte	0x168
 3665 04db 61000000 		.4byte	0x61
 3666 04df 02       		.byte	0x2
 3667 04e0 91       		.byte	0x91
 3668 04e1 6C       		.sleb128 -20
 3669 04e2 0C       		.uleb128 0xc
 3670 04e3 05010000 		.4byte	.LASF57
 3671 04e7 01       		.byte	0x1
 3672 04e8 7301     		.2byte	0x173
 3673 04ea F2040000 		.4byte	0x4f2
 3674 04ee 02       		.byte	0x2
 3675 04ef 91       		.byte	0x91
 3676 04f0 74       		.sleb128 -12
 3677 04f1 00       		.byte	0x0
 3678 04f2 15       		.uleb128 0x15
 3679 04f3 6F000000 		.4byte	0x6f
 3680 04f7 02050000 		.4byte	0x502
 3681 04fb 16       		.uleb128 0x16
 3682 04fc 76000000 		.4byte	0x76
 3683 0500 03       		.byte	0x3
 3684 0501 00       		.byte	0x0
 3685 0502 17       		.uleb128 0x17
 3686 0503 21060000 		.4byte	.LASF59
ARM GAS  C:\Users\bccho\AppData\Local\Temp\ccHbMFsA.s 			page 74


 3687 0507 01       		.byte	0x1
 3688 0508 7A01     		.2byte	0x17a
 3689 050a 79000000 		.4byte	0x79
 3690 050e 00000000 		.4byte	.LFB65
 3691 0512 30010000 		.4byte	.LFE65
 3692 0516 86060000 		.4byte	.LLST36
 3693 051a 68050000 		.4byte	0x568
 3694 051e 0C       		.uleb128 0xc
 3695 051f 23030000 		.4byte	.LASF60
 3696 0523 01       		.byte	0x1
 3697 0524 7B01     		.2byte	0x17b
 3698 0526 79000000 		.4byte	0x79
 3699 052a 02       		.byte	0x2
 3700 052b 91       		.byte	0x91
 3701 052c 50       		.sleb128 -48
 3702 052d 18       		.uleb128 0x18
 3703 052e 6900     		.ascii	"i\000"
 3704 0530 01       		.byte	0x1
 3705 0531 7C01     		.2byte	0x17c
 3706 0533 61000000 		.4byte	0x61
 3707 0537 02       		.byte	0x2
 3708 0538 91       		.byte	0x91
 3709 0539 5C       		.sleb128 -36
 3710 053a 0C       		.uleb128 0xc
 3711 053b 9A060000 		.4byte	.LASF61
 3712 053f 01       		.byte	0x1
 3713 0540 8101     		.2byte	0x181
 3714 0542 79000000 		.4byte	0x79
 3715 0546 02       		.byte	0x2
 3716 0547 91       		.byte	0x91
 3717 0548 60       		.sleb128 -32
 3718 0549 0C       		.uleb128 0xc
 3719 054a 32070000 		.4byte	.LASF62
 3720 054e 01       		.byte	0x1
 3721 054f 8201     		.2byte	0x182
 3722 0551 79000000 		.4byte	0x79
 3723 0555 02       		.byte	0x2
 3724 0556 91       		.byte	0x91
 3725 0557 68       		.sleb128 -24
 3726 0558 0C       		.uleb128 0xc
 3727 0559 F6020000 		.4byte	.LASF49
 3728 055d 01       		.byte	0x1
 3729 055e 8301     		.2byte	0x183
 3730 0560 79000000 		.4byte	0x79
 3731 0564 02       		.byte	0x2
 3732 0565 91       		.byte	0x91
 3733 0566 70       		.sleb128 -16
 3734 0567 00       		.byte	0x0
 3735 0568 19       		.uleb128 0x19
 3736 0569 73010000 		.4byte	.LASF63
 3737 056d 01       		.byte	0x1
 3738 056e 8901     		.2byte	0x189
 3739 0570 00000000 		.4byte	.LFB66
 3740 0574 54000000 		.4byte	.LFE66
 3741 0578 BD060000 		.4byte	.LLST37
 3742 057c 8E050000 		.4byte	0x58e
 3743 0580 18       		.uleb128 0x18
ARM GAS  C:\Users\bccho\AppData\Local\Temp\ccHbMFsA.s 			page 75


 3744 0581 6900     		.ascii	"i\000"
 3745 0583 01       		.byte	0x1
 3746 0584 8D01     		.2byte	0x18d
 3747 0586 61000000 		.4byte	0x61
 3748 058a 02       		.byte	0x2
 3749 058b 91       		.byte	0x91
 3750 058c 74       		.sleb128 -12
 3751 058d 00       		.byte	0x0
 3752 058e 19       		.uleb128 0x19
 3753 058f 55000000 		.4byte	.LASF64
 3754 0593 01       		.byte	0x1
 3755 0594 9301     		.2byte	0x193
 3756 0596 00000000 		.4byte	.LFB67
 3757 059a 60000000 		.4byte	.LFE67
 3758 059e F4060000 		.4byte	.LLST38
 3759 05a2 B4050000 		.4byte	0x5b4
 3760 05a6 18       		.uleb128 0x18
 3761 05a7 6900     		.ascii	"i\000"
 3762 05a9 01       		.byte	0x1
 3763 05aa 9701     		.2byte	0x197
 3764 05ac 61000000 		.4byte	0x61
 3765 05b0 02       		.byte	0x2
 3766 05b1 91       		.byte	0x91
 3767 05b2 74       		.sleb128 -12
 3768 05b3 00       		.byte	0x0
 3769 05b4 12       		.uleb128 0x12
 3770 05b5 41040000 		.4byte	.LASF66
 3771 05b9 01       		.byte	0x1
 3772 05ba 9D01     		.2byte	0x19d
 3773 05bc 00000000 		.4byte	.LFB68
 3774 05c0 1E000000 		.4byte	.LFE68
 3775 05c4 2B070000 		.4byte	.LLST39
 3776 05c8 15       		.uleb128 0x15
 3777 05c9 6F000000 		.4byte	0x6f
 3778 05cd D8050000 		.4byte	0x5d8
 3779 05d1 16       		.uleb128 0x16
 3780 05d2 76000000 		.4byte	0x76
 3781 05d6 63       		.byte	0x63
 3782 05d7 00       		.byte	0x0
 3783 05d8 0B       		.uleb128 0xb
 3784 05d9 AE050000 		.4byte	.LASF67
 3785 05dd 01       		.byte	0x1
 3786 05de 0C       		.byte	0xc
 3787 05df C8050000 		.4byte	0x5c8
 3788 05e3 05       		.byte	0x5
 3789 05e4 03       		.byte	0x3
 3790 05e5 00000000 		.4byte	strbuffer
 3791 05e9 0B       		.uleb128 0xb
 3792 05ea 38030000 		.4byte	.LASF68
 3793 05ee 01       		.byte	0x1
 3794 05ef 0F       		.byte	0xf
 3795 05f0 FA050000 		.4byte	0x5fa
 3796 05f4 05       		.byte	0x5
 3797 05f5 03       		.byte	0x3
 3798 05f6 00000000 		.4byte	MAX_THROTTLE
 3799 05fa 11       		.uleb128 0x11
 3800 05fb 61000000 		.4byte	0x61
ARM GAS  C:\Users\bccho\AppData\Local\Temp\ccHbMFsA.s 			page 76


 3801 05ff 0B       		.uleb128 0xb
 3802 0600 F3000000 		.4byte	.LASF69
 3803 0604 01       		.byte	0x1
 3804 0605 13       		.byte	0x13
 3805 0606 FA050000 		.4byte	0x5fa
 3806 060a 05       		.byte	0x5
 3807 060b 03       		.byte	0x3
 3808 060c 04000000 		.4byte	TICK_TIMER_PERIOD
 3809 0610 0B       		.uleb128 0xb
 3810 0611 DA040000 		.4byte	.LASF70
 3811 0615 01       		.byte	0x1
 3812 0616 1B       		.byte	0x1b
 3813 0617 FA050000 		.4byte	0x5fa
 3814 061b 05       		.byte	0x5
 3815 061c 03       		.byte	0x3
 3816 061d 08000000 		.4byte	CLK_FREQ
 3817 0621 0B       		.uleb128 0xb
 3818 0622 6F060000 		.4byte	.LASF71
 3819 0626 01       		.byte	0x1
 3820 0627 1C       		.byte	0x1c
 3821 0628 A1040000 		.4byte	0x4a1
 3822 062c 05       		.byte	0x5
 3823 062d 03       		.byte	0x3
 3824 062e 10000000 		.4byte	WHEEL_DIAM
 3825 0632 0B       		.uleb128 0xb
 3826 0633 2A030000 		.4byte	.LASF72
 3827 0637 01       		.byte	0x1
 3828 0638 1F       		.byte	0x1f
 3829 0639 79000000 		.4byte	0x79
 3830 063d 05       		.byte	0x5
 3831 063e 03       		.byte	0x3
 3832 063f 78000000 		.4byte	totalDistance
 3833 0643 0B       		.uleb128 0xb
 3834 0644 9D000000 		.4byte	.LASF73
 3835 0648 01       		.byte	0x1
 3836 0649 22       		.byte	0x22
 3837 064a FA050000 		.4byte	0x5fa
 3838 064e 05       		.byte	0x5
 3839 064f 03       		.byte	0x3
 3840 0650 18000000 		.4byte	PID_TIMER_PERIOD
 3841 0654 0B       		.uleb128 0xb
 3842 0655 AE000000 		.4byte	.LASF74
 3843 0659 01       		.byte	0x1
 3844 065a 23       		.byte	0x23
 3845 065b 79000000 		.4byte	0x79
 3846 065f 05       		.byte	0x5
 3847 0660 03       		.byte	0x3
 3848 0661 80000000 		.4byte	elapsedTime
 3849 0665 15       		.uleb128 0x15
 3850 0666 79000000 		.4byte	0x79
 3851 066a 75060000 		.4byte	0x675
 3852 066e 16       		.uleb128 0x16
 3853 066f 76000000 		.4byte	0x76
 3854 0673 09       		.byte	0x9
 3855 0674 00       		.byte	0x0
 3856 0675 0B       		.uleb128 0xb
 3857 0676 45030000 		.4byte	.LASF75
ARM GAS  C:\Users\bccho\AppData\Local\Temp\ccHbMFsA.s 			page 77


 3858 067a 01       		.byte	0x1
 3859 067b 27       		.byte	0x27
 3860 067c 65060000 		.4byte	0x665
 3861 0680 05       		.byte	0x5
 3862 0681 03       		.byte	0x3
 3863 0682 88000000 		.4byte	bufSpeed
 3864 0686 0B       		.uleb128 0xb
 3865 0687 87000000 		.4byte	.LASF76
 3866 068b 01       		.byte	0x1
 3867 068c 28       		.byte	0x28
 3868 068d 61000000 		.4byte	0x61
 3869 0691 05       		.byte	0x5
 3870 0692 03       		.byte	0x3
 3871 0693 D8000000 		.4byte	bufSpeedPos
 3872 0697 0B       		.uleb128 0xb
 3873 0698 0D020000 		.4byte	.LASF77
 3874 069c 01       		.byte	0x1
 3875 069d 29       		.byte	0x29
 3876 069e 61000000 		.4byte	0x61
 3877 06a2 05       		.byte	0x5
 3878 06a3 03       		.byte	0x3
 3879 06a4 DC000000 		.4byte	bufSpeedLastPos
 3880 06a8 0B       		.uleb128 0xb
 3881 06a9 FF050000 		.4byte	.LASF78
 3882 06ad 01       		.byte	0x1
 3883 06ae 2C       		.byte	0x2c
 3884 06af 79000000 		.4byte	0x79
 3885 06b3 05       		.byte	0x5
 3886 06b4 03       		.byte	0x3
 3887 06b5 E0000000 		.4byte	errorIntegral
 3888 06b9 0B       		.uleb128 0xb
 3889 06ba FF010000 		.4byte	.LASF79
 3890 06be 01       		.byte	0x1
 3891 06bf 2F       		.byte	0x2f
 3892 06c0 61000000 		.4byte	0x61
 3893 06c4 05       		.byte	0x5
 3894 06c5 03       		.byte	0x3
 3895 06c6 E8000000 		.4byte	throttlePIDon
 3896 06ca 0B       		.uleb128 0xb
 3897 06cb DB060000 		.4byte	.LASF80
 3898 06cf 01       		.byte	0x1
 3899 06d0 30       		.byte	0x30
 3900 06d1 61000000 		.4byte	0x61
 3901 06d5 05       		.byte	0x5
 3902 06d6 03       		.byte	0x3
 3903 06d7 EC000000 		.4byte	distanceTimeoutOn
 3904 06db 0B       		.uleb128 0xb
 3905 06dc AA010000 		.4byte	.LASF81
 3906 06e0 01       		.byte	0x1
 3907 06e1 31       		.byte	0x31
 3908 06e2 61000000 		.4byte	0x61
 3909 06e6 05       		.byte	0x5
 3910 06e7 03       		.byte	0x3
 3911 06e8 F0000000 		.4byte	dynamicTargetSpeedUpdateOn
 3912 06ec 0B       		.uleb128 0xb
 3913 06ed 2B050000 		.4byte	.LASF82
 3914 06f1 01       		.byte	0x1
ARM GAS  C:\Users\bccho\AppData\Local\Temp\ccHbMFsA.s 			page 78


 3915 06f2 33       		.byte	0x33
 3916 06f3 79000000 		.4byte	0x79
 3917 06f7 05       		.byte	0x5
 3918 06f8 03       		.byte	0x3
 3919 06f9 00000000 		.4byte	targetSpeed
 3920 06fd 0B       		.uleb128 0xb
 3921 06fe 54010000 		.4byte	.LASF83
 3922 0702 01       		.byte	0x1
 3923 0703 34       		.byte	0x34
 3924 0704 79000000 		.4byte	0x79
 3925 0708 05       		.byte	0x5
 3926 0709 03       		.byte	0x3
 3927 070a 08000000 		.4byte	targetDistance
 3928 070e 0B       		.uleb128 0xb
 3929 070f 8E020000 		.4byte	.LASF84
 3930 0713 01       		.byte	0x1
 3931 0714 35       		.byte	0x35
 3932 0715 79000000 		.4byte	0x79
 3933 0719 05       		.byte	0x5
 3934 071a 03       		.byte	0x3
 3935 071b 10000000 		.4byte	targetTime
 3936 071f 0B       		.uleb128 0xb
 3937 0720 CF040000 		.4byte	.LASF85
 3938 0724 01       		.byte	0x1
 3939 0725 36       		.byte	0x36
 3940 0726 61000000 		.4byte	0x61
 3941 072a 05       		.byte	0x5
 3942 072b 03       		.byte	0x3
 3943 072c 18000000 		.4byte	throttleSS
 3944 0730 0B       		.uleb128 0xb
 3945 0731 22070000 		.4byte	.LASF86
 3946 0735 01       		.byte	0x1
 3947 0736 37       		.byte	0x37
 3948 0737 79000000 		.4byte	0x79
 3949 073b 05       		.byte	0x5
 3950 073c 03       		.byte	0x3
 3951 073d 20000000 		.4byte	coeffP
 3952 0741 0B       		.uleb128 0xb
 3953 0742 C8000000 		.4byte	.LASF87
 3954 0746 01       		.byte	0x1
 3955 0747 38       		.byte	0x38
 3956 0748 79000000 		.4byte	0x79
 3957 074c 05       		.byte	0x5
 3958 074d 03       		.byte	0x3
 3959 074e 28000000 		.4byte	coeffI
 3960 0752 0B       		.uleb128 0xb
 3961 0753 7A060000 		.4byte	.LASF88
 3962 0757 01       		.byte	0x1
 3963 0758 39       		.byte	0x39
 3964 0759 79000000 		.4byte	0x79
 3965 075d 05       		.byte	0x5
 3966 075e 03       		.byte	0x3
 3967 075f 30000000 		.4byte	coeffD
 3968 0763 0B       		.uleb128 0xb
 3969 0764 03040000 		.4byte	.LASF89
 3970 0768 01       		.byte	0x1
 3971 0769 3C       		.byte	0x3c
ARM GAS  C:\Users\bccho\AppData\Local\Temp\ccHbMFsA.s 			page 79


 3972 076a 61000000 		.4byte	0x61
 3973 076e 05       		.byte	0x5
 3974 076f 03       		.byte	0x3
 3975 0770 F4000000 		.4byte	verbosePrintoutOn
 3976 0774 1A       		.uleb128 0x1a
 3977 0775 62060000 		.4byte	.LASF90
 3978 0779 02       		.byte	0x2
 3979 077a CE06     		.2byte	0x6ce
 3980 077c 82070000 		.4byte	0x782
 3981 0780 01       		.byte	0x1
 3982 0781 01       		.byte	0x1
 3983 0782 1B       		.uleb128 0x1b
 3984 0783 61000000 		.4byte	0x61
 3985 0787 1C       		.uleb128 0x1c
 3986 0788 29070000 		.4byte	.LASF42
 3987 078c 01       		.byte	0x1
 3988 078d 10       		.byte	0x10
 3989 078e 61000000 		.4byte	0x61
 3990 0792 01       		.byte	0x1
 3991 0793 05       		.byte	0x5
 3992 0794 03       		.byte	0x3
 3993 0795 00000000 		.4byte	throttle
 3994 0799 15       		.uleb128 0x15
 3995 079a 61000000 		.4byte	0x61
 3996 079e A9070000 		.4byte	0x7a9
 3997 07a2 16       		.uleb128 0x16
 3998 07a3 76000000 		.4byte	0x76
 3999 07a7 02       		.byte	0x2
 4000 07a8 00       		.byte	0x0
 4001 07a9 1C       		.uleb128 0x1c
 4002 07aa 5B050000 		.4byte	.LASF91
 4003 07ae 01       		.byte	0x1
 4004 07af 15       		.byte	0x15
 4005 07b0 99070000 		.4byte	0x799
 4006 07b4 01       		.byte	0x1
 4007 07b5 05       		.byte	0x5
 4008 07b6 03       		.byte	0x3
 4009 07b7 00000000 		.4byte	bufWheelTick
 4010 07bb 1C       		.uleb128 0x1c
 4011 07bc 20010000 		.4byte	.LASF92
 4012 07c0 01       		.byte	0x1
 4013 07c1 16       		.byte	0x16
 4014 07c2 61000000 		.4byte	0x61
 4015 07c6 01       		.byte	0x1
 4016 07c7 05       		.byte	0x5
 4017 07c8 03       		.byte	0x3
 4018 07c9 00000000 		.4byte	bufWheelTickPos
 4019 07cd 1C       		.uleb128 0x1c
 4020 07ce 0D060000 		.4byte	.LASF93
 4021 07d2 01       		.byte	0x1
 4022 07d3 17       		.byte	0x17
 4023 07d4 61000000 		.4byte	0x61
 4024 07d8 01       		.byte	0x1
 4025 07d9 05       		.byte	0x5
 4026 07da 03       		.byte	0x3
 4027 07db 00000000 		.4byte	bufWheelTickCurSize
 4028 07df 1C       		.uleb128 0x1c
ARM GAS  C:\Users\bccho\AppData\Local\Temp\ccHbMFsA.s 			page 80


 4029 07e0 A7060000 		.4byte	.LASF94
 4030 07e4 01       		.byte	0x1
 4031 07e5 18       		.byte	0x18
 4032 07e6 61000000 		.4byte	0x61
 4033 07ea 01       		.byte	0x1
 4034 07eb 05       		.byte	0x5
 4035 07ec 03       		.byte	0x3
 4036 07ed 00000000 		.4byte	oldTickCount
 4037 07f1 00       		.byte	0x0
 4038              		.section	.debug_abbrev
 4039 0000 01       		.uleb128 0x1
 4040 0001 11       		.uleb128 0x11
 4041 0002 01       		.byte	0x1
 4042 0003 25       		.uleb128 0x25
 4043 0004 0E       		.uleb128 0xe
 4044 0005 13       		.uleb128 0x13
 4045 0006 0B       		.uleb128 0xb
 4046 0007 03       		.uleb128 0x3
 4047 0008 0E       		.uleb128 0xe
 4048 0009 1B       		.uleb128 0x1b
 4049 000a 0E       		.uleb128 0xe
 4050 000b 11       		.uleb128 0x11
 4051 000c 01       		.uleb128 0x1
 4052 000d 52       		.uleb128 0x52
 4053 000e 01       		.uleb128 0x1
 4054 000f 55       		.uleb128 0x55
 4055 0010 06       		.uleb128 0x6
 4056 0011 10       		.uleb128 0x10
 4057 0012 06       		.uleb128 0x6
 4058 0013 00       		.byte	0x0
 4059 0014 00       		.byte	0x0
 4060 0015 02       		.uleb128 0x2
 4061 0016 24       		.uleb128 0x24
 4062 0017 00       		.byte	0x0
 4063 0018 0B       		.uleb128 0xb
 4064 0019 0B       		.uleb128 0xb
 4065 001a 3E       		.uleb128 0x3e
 4066 001b 0B       		.uleb128 0xb
 4067 001c 03       		.uleb128 0x3
 4068 001d 0E       		.uleb128 0xe
 4069 001e 00       		.byte	0x0
 4070 001f 00       		.byte	0x0
 4071 0020 03       		.uleb128 0x3
 4072 0021 24       		.uleb128 0x24
 4073 0022 00       		.byte	0x0
 4074 0023 0B       		.uleb128 0xb
 4075 0024 0B       		.uleb128 0xb
 4076 0025 3E       		.uleb128 0x3e
 4077 0026 0B       		.uleb128 0xb
 4078 0027 03       		.uleb128 0x3
 4079 0028 08       		.uleb128 0x8
 4080 0029 00       		.byte	0x0
 4081 002a 00       		.byte	0x0
 4082 002b 04       		.uleb128 0x4
 4083 002c 24       		.uleb128 0x24
 4084 002d 00       		.byte	0x0
 4085 002e 0B       		.uleb128 0xb
ARM GAS  C:\Users\bccho\AppData\Local\Temp\ccHbMFsA.s 			page 81


 4086 002f 0B       		.uleb128 0xb
 4087 0030 3E       		.uleb128 0x3e
 4088 0031 0B       		.uleb128 0xb
 4089 0032 00       		.byte	0x0
 4090 0033 00       		.byte	0x0
 4091 0034 05       		.uleb128 0x5
 4092 0035 2E       		.uleb128 0x2e
 4093 0036 00       		.byte	0x0
 4094 0037 3F       		.uleb128 0x3f
 4095 0038 0C       		.uleb128 0xc
 4096 0039 03       		.uleb128 0x3
 4097 003a 0E       		.uleb128 0xe
 4098 003b 3A       		.uleb128 0x3a
 4099 003c 0B       		.uleb128 0xb
 4100 003d 3B       		.uleb128 0x3b
 4101 003e 0B       		.uleb128 0xb
 4102 003f 11       		.uleb128 0x11
 4103 0040 01       		.uleb128 0x1
 4104 0041 12       		.uleb128 0x12
 4105 0042 01       		.uleb128 0x1
 4106 0043 40       		.uleb128 0x40
 4107 0044 06       		.uleb128 0x6
 4108 0045 00       		.byte	0x0
 4109 0046 00       		.byte	0x0
 4110 0047 06       		.uleb128 0x6
 4111 0048 2E       		.uleb128 0x2e
 4112 0049 00       		.byte	0x0
 4113 004a 3F       		.uleb128 0x3f
 4114 004b 0C       		.uleb128 0xc
 4115 004c 03       		.uleb128 0x3
 4116 004d 0E       		.uleb128 0xe
 4117 004e 3A       		.uleb128 0x3a
 4118 004f 0B       		.uleb128 0xb
 4119 0050 3B       		.uleb128 0x3b
 4120 0051 0B       		.uleb128 0xb
 4121 0052 49       		.uleb128 0x49
 4122 0053 13       		.uleb128 0x13
 4123 0054 11       		.uleb128 0x11
 4124 0055 01       		.uleb128 0x1
 4125 0056 12       		.uleb128 0x12
 4126 0057 01       		.uleb128 0x1
 4127 0058 40       		.uleb128 0x40
 4128 0059 06       		.uleb128 0x6
 4129 005a 00       		.byte	0x0
 4130 005b 00       		.byte	0x0
 4131 005c 07       		.uleb128 0x7
 4132 005d 2E       		.uleb128 0x2e
 4133 005e 01       		.byte	0x1
 4134 005f 3F       		.uleb128 0x3f
 4135 0060 0C       		.uleb128 0xc
 4136 0061 03       		.uleb128 0x3
 4137 0062 0E       		.uleb128 0xe
 4138 0063 3A       		.uleb128 0x3a
 4139 0064 0B       		.uleb128 0xb
 4140 0065 3B       		.uleb128 0x3b
 4141 0066 0B       		.uleb128 0xb
 4142 0067 27       		.uleb128 0x27
ARM GAS  C:\Users\bccho\AppData\Local\Temp\ccHbMFsA.s 			page 82


 4143 0068 0C       		.uleb128 0xc
 4144 0069 11       		.uleb128 0x11
 4145 006a 01       		.uleb128 0x1
 4146 006b 12       		.uleb128 0x12
 4147 006c 01       		.uleb128 0x1
 4148 006d 40       		.uleb128 0x40
 4149 006e 06       		.uleb128 0x6
 4150 006f 01       		.uleb128 0x1
 4151 0070 13       		.uleb128 0x13
 4152 0071 00       		.byte	0x0
 4153 0072 00       		.byte	0x0
 4154 0073 08       		.uleb128 0x8
 4155 0074 05       		.uleb128 0x5
 4156 0075 00       		.byte	0x0
 4157 0076 03       		.uleb128 0x3
 4158 0077 08       		.uleb128 0x8
 4159 0078 3A       		.uleb128 0x3a
 4160 0079 0B       		.uleb128 0xb
 4161 007a 3B       		.uleb128 0x3b
 4162 007b 0B       		.uleb128 0xb
 4163 007c 49       		.uleb128 0x49
 4164 007d 13       		.uleb128 0x13
 4165 007e 02       		.uleb128 0x2
 4166 007f 0A       		.uleb128 0xa
 4167 0080 00       		.byte	0x0
 4168 0081 00       		.byte	0x0
 4169 0082 09       		.uleb128 0x9
 4170 0083 05       		.uleb128 0x5
 4171 0084 00       		.byte	0x0
 4172 0085 03       		.uleb128 0x3
 4173 0086 0E       		.uleb128 0xe
 4174 0087 3A       		.uleb128 0x3a
 4175 0088 0B       		.uleb128 0xb
 4176 0089 3B       		.uleb128 0x3b
 4177 008a 0B       		.uleb128 0xb
 4178 008b 49       		.uleb128 0x49
 4179 008c 13       		.uleb128 0x13
 4180 008d 02       		.uleb128 0x2
 4181 008e 0A       		.uleb128 0xa
 4182 008f 00       		.byte	0x0
 4183 0090 00       		.byte	0x0
 4184 0091 0A       		.uleb128 0xa
 4185 0092 2E       		.uleb128 0x2e
 4186 0093 01       		.byte	0x1
 4187 0094 3F       		.uleb128 0x3f
 4188 0095 0C       		.uleb128 0xc
 4189 0096 03       		.uleb128 0x3
 4190 0097 0E       		.uleb128 0xe
 4191 0098 3A       		.uleb128 0x3a
 4192 0099 0B       		.uleb128 0xb
 4193 009a 3B       		.uleb128 0x3b
 4194 009b 0B       		.uleb128 0xb
 4195 009c 11       		.uleb128 0x11
 4196 009d 01       		.uleb128 0x1
 4197 009e 12       		.uleb128 0x12
 4198 009f 01       		.uleb128 0x1
 4199 00a0 40       		.uleb128 0x40
ARM GAS  C:\Users\bccho\AppData\Local\Temp\ccHbMFsA.s 			page 83


 4200 00a1 06       		.uleb128 0x6
 4201 00a2 01       		.uleb128 0x1
 4202 00a3 13       		.uleb128 0x13
 4203 00a4 00       		.byte	0x0
 4204 00a5 00       		.byte	0x0
 4205 00a6 0B       		.uleb128 0xb
 4206 00a7 34       		.uleb128 0x34
 4207 00a8 00       		.byte	0x0
 4208 00a9 03       		.uleb128 0x3
 4209 00aa 0E       		.uleb128 0xe
 4210 00ab 3A       		.uleb128 0x3a
 4211 00ac 0B       		.uleb128 0xb
 4212 00ad 3B       		.uleb128 0x3b
 4213 00ae 0B       		.uleb128 0xb
 4214 00af 49       		.uleb128 0x49
 4215 00b0 13       		.uleb128 0x13
 4216 00b1 02       		.uleb128 0x2
 4217 00b2 0A       		.uleb128 0xa
 4218 00b3 00       		.byte	0x0
 4219 00b4 00       		.byte	0x0
 4220 00b5 0C       		.uleb128 0xc
 4221 00b6 34       		.uleb128 0x34
 4222 00b7 00       		.byte	0x0
 4223 00b8 03       		.uleb128 0x3
 4224 00b9 0E       		.uleb128 0xe
 4225 00ba 3A       		.uleb128 0x3a
 4226 00bb 0B       		.uleb128 0xb
 4227 00bc 3B       		.uleb128 0x3b
 4228 00bd 05       		.uleb128 0x5
 4229 00be 49       		.uleb128 0x49
 4230 00bf 13       		.uleb128 0x13
 4231 00c0 02       		.uleb128 0x2
 4232 00c1 0A       		.uleb128 0xa
 4233 00c2 00       		.byte	0x0
 4234 00c3 00       		.byte	0x0
 4235 00c4 0D       		.uleb128 0xd
 4236 00c5 2E       		.uleb128 0x2e
 4237 00c6 00       		.byte	0x0
 4238 00c7 3F       		.uleb128 0x3f
 4239 00c8 0C       		.uleb128 0xc
 4240 00c9 03       		.uleb128 0x3
 4241 00ca 0E       		.uleb128 0xe
 4242 00cb 3A       		.uleb128 0x3a
 4243 00cc 0B       		.uleb128 0xb
 4244 00cd 3B       		.uleb128 0x3b
 4245 00ce 05       		.uleb128 0x5
 4246 00cf 11       		.uleb128 0x11
 4247 00d0 01       		.uleb128 0x1
 4248 00d1 12       		.uleb128 0x12
 4249 00d2 01       		.uleb128 0x1
 4250 00d3 40       		.uleb128 0x40
 4251 00d4 06       		.uleb128 0x6
 4252 00d5 00       		.byte	0x0
 4253 00d6 00       		.byte	0x0
 4254 00d7 0E       		.uleb128 0xe
 4255 00d8 2E       		.uleb128 0x2e
 4256 00d9 01       		.byte	0x1
ARM GAS  C:\Users\bccho\AppData\Local\Temp\ccHbMFsA.s 			page 84


 4257 00da 03       		.uleb128 0x3
 4258 00db 0E       		.uleb128 0xe
 4259 00dc 3A       		.uleb128 0x3a
 4260 00dd 0B       		.uleb128 0xb
 4261 00de 3B       		.uleb128 0x3b
 4262 00df 05       		.uleb128 0x5
 4263 00e0 27       		.uleb128 0x27
 4264 00e1 0C       		.uleb128 0xc
 4265 00e2 49       		.uleb128 0x49
 4266 00e3 13       		.uleb128 0x13
 4267 00e4 11       		.uleb128 0x11
 4268 00e5 01       		.uleb128 0x1
 4269 00e6 12       		.uleb128 0x12
 4270 00e7 01       		.uleb128 0x1
 4271 00e8 40       		.uleb128 0x40
 4272 00e9 06       		.uleb128 0x6
 4273 00ea 01       		.uleb128 0x1
 4274 00eb 13       		.uleb128 0x13
 4275 00ec 00       		.byte	0x0
 4276 00ed 00       		.byte	0x0
 4277 00ee 0F       		.uleb128 0xf
 4278 00ef 05       		.uleb128 0x5
 4279 00f0 00       		.byte	0x0
 4280 00f1 03       		.uleb128 0x3
 4281 00f2 0E       		.uleb128 0xe
 4282 00f3 3A       		.uleb128 0x3a
 4283 00f4 0B       		.uleb128 0xb
 4284 00f5 3B       		.uleb128 0x3b
 4285 00f6 05       		.uleb128 0x5
 4286 00f7 49       		.uleb128 0x49
 4287 00f8 13       		.uleb128 0x13
 4288 00f9 02       		.uleb128 0x2
 4289 00fa 0A       		.uleb128 0xa
 4290 00fb 00       		.byte	0x0
 4291 00fc 00       		.byte	0x0
 4292 00fd 10       		.uleb128 0x10
 4293 00fe 0B       		.uleb128 0xb
 4294 00ff 01       		.byte	0x1
 4295 0100 11       		.uleb128 0x11
 4296 0101 01       		.uleb128 0x1
 4297 0102 12       		.uleb128 0x12
 4298 0103 01       		.uleb128 0x1
 4299 0104 00       		.byte	0x0
 4300 0105 00       		.byte	0x0
 4301 0106 11       		.uleb128 0x11
 4302 0107 26       		.uleb128 0x26
 4303 0108 00       		.byte	0x0
 4304 0109 49       		.uleb128 0x49
 4305 010a 13       		.uleb128 0x13
 4306 010b 00       		.byte	0x0
 4307 010c 00       		.byte	0x0
 4308 010d 12       		.uleb128 0x12
 4309 010e 2E       		.uleb128 0x2e
 4310 010f 00       		.byte	0x0
 4311 0110 03       		.uleb128 0x3
 4312 0111 0E       		.uleb128 0xe
 4313 0112 3A       		.uleb128 0x3a
ARM GAS  C:\Users\bccho\AppData\Local\Temp\ccHbMFsA.s 			page 85


 4314 0113 0B       		.uleb128 0xb
 4315 0114 3B       		.uleb128 0x3b
 4316 0115 05       		.uleb128 0x5
 4317 0116 11       		.uleb128 0x11
 4318 0117 01       		.uleb128 0x1
 4319 0118 12       		.uleb128 0x12
 4320 0119 01       		.uleb128 0x1
 4321 011a 40       		.uleb128 0x40
 4322 011b 06       		.uleb128 0x6
 4323 011c 00       		.byte	0x0
 4324 011d 00       		.byte	0x0
 4325 011e 13       		.uleb128 0x13
 4326 011f 2E       		.uleb128 0x2e
 4327 0120 01       		.byte	0x1
 4328 0121 03       		.uleb128 0x3
 4329 0122 0E       		.uleb128 0xe
 4330 0123 3A       		.uleb128 0x3a
 4331 0124 0B       		.uleb128 0xb
 4332 0125 3B       		.uleb128 0x3b
 4333 0126 05       		.uleb128 0x5
 4334 0127 27       		.uleb128 0x27
 4335 0128 0C       		.uleb128 0xc
 4336 0129 11       		.uleb128 0x11
 4337 012a 01       		.uleb128 0x1
 4338 012b 12       		.uleb128 0x12
 4339 012c 01       		.uleb128 0x1
 4340 012d 40       		.uleb128 0x40
 4341 012e 06       		.uleb128 0x6
 4342 012f 01       		.uleb128 0x1
 4343 0130 13       		.uleb128 0x13
 4344 0131 00       		.byte	0x0
 4345 0132 00       		.byte	0x0
 4346 0133 14       		.uleb128 0x14
 4347 0134 05       		.uleb128 0x5
 4348 0135 00       		.byte	0x0
 4349 0136 03       		.uleb128 0x3
 4350 0137 08       		.uleb128 0x8
 4351 0138 3A       		.uleb128 0x3a
 4352 0139 0B       		.uleb128 0xb
 4353 013a 3B       		.uleb128 0x3b
 4354 013b 05       		.uleb128 0x5
 4355 013c 49       		.uleb128 0x49
 4356 013d 13       		.uleb128 0x13
 4357 013e 02       		.uleb128 0x2
 4358 013f 0A       		.uleb128 0xa
 4359 0140 00       		.byte	0x0
 4360 0141 00       		.byte	0x0
 4361 0142 15       		.uleb128 0x15
 4362 0143 01       		.uleb128 0x1
 4363 0144 01       		.byte	0x1
 4364 0145 49       		.uleb128 0x49
 4365 0146 13       		.uleb128 0x13
 4366 0147 01       		.uleb128 0x1
 4367 0148 13       		.uleb128 0x13
 4368 0149 00       		.byte	0x0
 4369 014a 00       		.byte	0x0
 4370 014b 16       		.uleb128 0x16
ARM GAS  C:\Users\bccho\AppData\Local\Temp\ccHbMFsA.s 			page 86


 4371 014c 21       		.uleb128 0x21
 4372 014d 00       		.byte	0x0
 4373 014e 49       		.uleb128 0x49
 4374 014f 13       		.uleb128 0x13
 4375 0150 2F       		.uleb128 0x2f
 4376 0151 0B       		.uleb128 0xb
 4377 0152 00       		.byte	0x0
 4378 0153 00       		.byte	0x0
 4379 0154 17       		.uleb128 0x17
 4380 0155 2E       		.uleb128 0x2e
 4381 0156 01       		.byte	0x1
 4382 0157 03       		.uleb128 0x3
 4383 0158 0E       		.uleb128 0xe
 4384 0159 3A       		.uleb128 0x3a
 4385 015a 0B       		.uleb128 0xb
 4386 015b 3B       		.uleb128 0x3b
 4387 015c 05       		.uleb128 0x5
 4388 015d 49       		.uleb128 0x49
 4389 015e 13       		.uleb128 0x13
 4390 015f 11       		.uleb128 0x11
 4391 0160 01       		.uleb128 0x1
 4392 0161 12       		.uleb128 0x12
 4393 0162 01       		.uleb128 0x1
 4394 0163 40       		.uleb128 0x40
 4395 0164 06       		.uleb128 0x6
 4396 0165 01       		.uleb128 0x1
 4397 0166 13       		.uleb128 0x13
 4398 0167 00       		.byte	0x0
 4399 0168 00       		.byte	0x0
 4400 0169 18       		.uleb128 0x18
 4401 016a 34       		.uleb128 0x34
 4402 016b 00       		.byte	0x0
 4403 016c 03       		.uleb128 0x3
 4404 016d 08       		.uleb128 0x8
 4405 016e 3A       		.uleb128 0x3a
 4406 016f 0B       		.uleb128 0xb
 4407 0170 3B       		.uleb128 0x3b
 4408 0171 05       		.uleb128 0x5
 4409 0172 49       		.uleb128 0x49
 4410 0173 13       		.uleb128 0x13
 4411 0174 02       		.uleb128 0x2
 4412 0175 0A       		.uleb128 0xa
 4413 0176 00       		.byte	0x0
 4414 0177 00       		.byte	0x0
 4415 0178 19       		.uleb128 0x19
 4416 0179 2E       		.uleb128 0x2e
 4417 017a 01       		.byte	0x1
 4418 017b 03       		.uleb128 0x3
 4419 017c 0E       		.uleb128 0xe
 4420 017d 3A       		.uleb128 0x3a
 4421 017e 0B       		.uleb128 0xb
 4422 017f 3B       		.uleb128 0x3b
 4423 0180 05       		.uleb128 0x5
 4424 0181 11       		.uleb128 0x11
 4425 0182 01       		.uleb128 0x1
 4426 0183 12       		.uleb128 0x12
 4427 0184 01       		.uleb128 0x1
ARM GAS  C:\Users\bccho\AppData\Local\Temp\ccHbMFsA.s 			page 87


 4428 0185 40       		.uleb128 0x40
 4429 0186 06       		.uleb128 0x6
 4430 0187 01       		.uleb128 0x1
 4431 0188 13       		.uleb128 0x13
 4432 0189 00       		.byte	0x0
 4433 018a 00       		.byte	0x0
 4434 018b 1A       		.uleb128 0x1a
 4435 018c 34       		.uleb128 0x34
 4436 018d 00       		.byte	0x0
 4437 018e 03       		.uleb128 0x3
 4438 018f 0E       		.uleb128 0xe
 4439 0190 3A       		.uleb128 0x3a
 4440 0191 0B       		.uleb128 0xb
 4441 0192 3B       		.uleb128 0x3b
 4442 0193 05       		.uleb128 0x5
 4443 0194 49       		.uleb128 0x49
 4444 0195 13       		.uleb128 0x13
 4445 0196 3F       		.uleb128 0x3f
 4446 0197 0C       		.uleb128 0xc
 4447 0198 3C       		.uleb128 0x3c
 4448 0199 0C       		.uleb128 0xc
 4449 019a 00       		.byte	0x0
 4450 019b 00       		.byte	0x0
 4451 019c 1B       		.uleb128 0x1b
 4452 019d 35       		.uleb128 0x35
 4453 019e 00       		.byte	0x0
 4454 019f 49       		.uleb128 0x49
 4455 01a0 13       		.uleb128 0x13
 4456 01a1 00       		.byte	0x0
 4457 01a2 00       		.byte	0x0
 4458 01a3 1C       		.uleb128 0x1c
 4459 01a4 34       		.uleb128 0x34
 4460 01a5 00       		.byte	0x0
 4461 01a6 03       		.uleb128 0x3
 4462 01a7 0E       		.uleb128 0xe
 4463 01a8 3A       		.uleb128 0x3a
 4464 01a9 0B       		.uleb128 0xb
 4465 01aa 3B       		.uleb128 0x3b
 4466 01ab 0B       		.uleb128 0xb
 4467 01ac 49       		.uleb128 0x49
 4468 01ad 13       		.uleb128 0x13
 4469 01ae 3F       		.uleb128 0x3f
 4470 01af 0C       		.uleb128 0xc
 4471 01b0 02       		.uleb128 0x2
 4472 01b1 0A       		.uleb128 0xa
 4473 01b2 00       		.byte	0x0
 4474 01b3 00       		.byte	0x0
 4475 01b4 00       		.byte	0x0
 4476              		.section	.debug_pubnames,"",%progbits
 4477 0000 89040000 		.4byte	0x489
 4478 0004 0200     		.2byte	0x2
 4479 0006 00000000 		.4byte	.Ldebug_info0
 4480 000a F2070000 		.4byte	0x7f2
 4481 000e 8E000000 		.4byte	0x8e
 4482 0012 53706565 		.ascii	"SpeedControl_init\000"
 4482      64436F6E 
 4482      74726F6C 
ARM GAS  C:\Users\bccho\AppData\Local\Temp\ccHbMFsA.s 			page 88


 4482      5F696E69 
 4482      7400
 4483 0024 A2000000 		.4byte	0xa2
 4484 0028 53706565 		.ascii	"SpeedControl_enable\000"
 4484      64436F6E 
 4484      74726F6C 
 4484      5F656E61 
 4484      626C6500 
 4485 003c B6000000 		.4byte	0xb6
 4486 0040 53706565 		.ascii	"SpeedControl_disable\000"
 4486      64436F6E 
 4486      74726F6C 
 4486      5F646973 
 4486      61626C65 
 4487 0055 CA000000 		.4byte	0xca
 4488 0059 53706565 		.ascii	"SpeedControl_enableDistanceControl\000"
 4488      64436F6E 
 4488      74726F6C 
 4488      5F656E61 
 4488      626C6544 
 4489 007c DE000000 		.4byte	0xde
 4490 0080 53706565 		.ascii	"SpeedControl_disableDistanceControl\000"
 4490      64436F6E 
 4490      74726F6C 
 4490      5F646973 
 4490      61626C65 
 4491 00a4 F2000000 		.4byte	0xf2
 4492 00a8 53706565 		.ascii	"SpeedControl_enableDynamicTargetUpdate\000"
 4492      64436F6E 
 4492      74726F6C 
 4492      5F656E61 
 4492      626C6544 
 4493 00cf 06010000 		.4byte	0x106
 4494 00d3 53706565 		.ascii	"SpeedControl_disableDynamicTargetUpdate\000"
 4494      64436F6E 
 4494      74726F6C 
 4494      5F646973 
 4494      61626C65 
 4495 00fb 1A010000 		.4byte	0x11a
 4496 00ff 53706565 		.ascii	"SpeedControl_isEnabled\000"
 4496      64436F6E 
 4496      74726F6C 
 4496      5F697345 
 4496      6E61626C 
 4497 0116 32010000 		.4byte	0x132
 4498 011a 53706565 		.ascii	"SpeedControl_isDistanceControlEnabled\000"
 4498      64436F6E 
 4498      74726F6C 
 4498      5F697344 
 4498      69737461 
 4499 0140 4A010000 		.4byte	0x14a
 4500 0144 53706565 		.ascii	"SpeedControl_isDynamicTargetUpdateEnabled\000"
 4500      64436F6E 
 4500      74726F6C 
 4500      5F697344 
 4500      796E616D 
 4501 016e 62010000 		.4byte	0x162
ARM GAS  C:\Users\bccho\AppData\Local\Temp\ccHbMFsA.s 			page 89


 4502 0172 53706565 		.ascii	"SpeedControl_enableVerbosePrintout\000"
 4502      64436F6E 
 4502      74726F6C 
 4502      5F656E61 
 4502      626C6556 
 4503 0195 76010000 		.4byte	0x176
 4504 0199 53706565 		.ascii	"SpeedControl_disableVerbosePrintout\000"
 4504      64436F6E 
 4504      74726F6C 
 4504      5F646973 
 4504      61626C65 
 4505 01bd 8A010000 		.4byte	0x18a
 4506 01c1 53706565 		.ascii	"SpeedControl_isVerbosePrintoutEnabled\000"
 4506      64436F6E 
 4506      74726F6C 
 4506      5F697356 
 4506      6572626F 
 4507 01e7 A2010000 		.4byte	0x1a2
 4508 01eb 53706565 		.ascii	"SpeedControl_setTargetSpeed\000"
 4508      64436F6E 
 4508      74726F6C 
 4508      5F736574 
 4508      54617267 
 4509 0207 C9010000 		.4byte	0x1c9
 4510 020b 53706565 		.ascii	"SpeedControl_setTargetDistance\000"
 4510      64436F6E 
 4510      74726F6C 
 4510      5F736574 
 4510      54617267 
 4511 022a F1010000 		.4byte	0x1f1
 4512 022e 53706565 		.ascii	"SpeedControl_setSteadyStateThrottle\000"
 4512      64436F6E 
 4512      74726F6C 
 4512      5F736574 
 4512      53746561 
 4513 0252 19020000 		.4byte	0x219
 4514 0256 53706565 		.ascii	"SpeedControl_setP\000"
 4514      64436F6E 
 4514      74726F6C 
 4514      5F736574 
 4514      5000
 4515 0268 3F020000 		.4byte	0x23f
 4516 026c 53706565 		.ascii	"SpeedControl_setI\000"
 4516      64436F6E 
 4516      74726F6C 
 4516      5F736574 
 4516      4900
 4517 027e 65020000 		.4byte	0x265
 4518 0282 53706565 		.ascii	"SpeedControl_setD\000"
 4518      64436F6E 
 4518      74726F6C 
 4518      5F736574 
 4518      4400
 4519 0294 8B020000 		.4byte	0x28b
 4520 0298 53706565 		.ascii	"SpeedControl_getTargetSpeed\000"
 4520      64436F6E 
 4520      74726F6C 
ARM GAS  C:\Users\bccho\AppData\Local\Temp\ccHbMFsA.s 			page 90


 4520      5F676574 
 4520      54617267 
 4521 02b4 A3020000 		.4byte	0x2a3
 4522 02b8 53706565 		.ascii	"SpeedControl_getTargetDistance\000"
 4522      64436F6E 
 4522      74726F6C 
 4522      5F676574 
 4522      54617267 
 4523 02d7 BB020000 		.4byte	0x2bb
 4524 02db 53706565 		.ascii	"SpeedControl_getP\000"
 4524      64436F6E 
 4524      74726F6C 
 4524      5F676574 
 4524      5000
 4525 02ed D3020000 		.4byte	0x2d3
 4526 02f1 53706565 		.ascii	"SpeedControl_getI\000"
 4526      64436F6E 
 4526      74726F6C 
 4526      5F676574 
 4526      4900
 4527 0303 EB020000 		.4byte	0x2eb
 4528 0307 53706565 		.ascii	"SpeedControl_getD\000"
 4528      64436F6E 
 4528      74726F6C 
 4528      5F676574 
 4528      4400
 4529 0319 03030000 		.4byte	0x303
 4530 031d 53706565 		.ascii	"SpeedControl_getSpeed\000"
 4530      64436F6E 
 4530      74726F6C 
 4530      5F676574 
 4530      53706565 
 4531 0333 1B030000 		.4byte	0x31b
 4532 0337 53706565 		.ascii	"SpeedControl_getDistance\000"
 4532      64436F6E 
 4532      74726F6C 
 4532      5F676574 
 4532      44697374 
 4533 0350 33030000 		.4byte	0x333
 4534 0354 53706565 		.ascii	"SpeedControl_getSteadyStateThrottle\000"
 4534      64436F6E 
 4534      74726F6C 
 4534      5F676574 
 4534      53746561 
 4535 0378 4B030000 		.4byte	0x34b
 4536 037c 53706565 		.ascii	"SpeedControl_setThrottle\000"
 4536      64436F6E 
 4536      74726F6C 
 4536      5F736574 
 4536      5468726F 
 4537 0395 73030000 		.4byte	0x373
 4538 0399 53706565 		.ascii	"SpeedControl_getThrottle\000"
 4538      64436F6E 
 4538      74726F6C 
 4538      5F676574 
 4538      5468726F 
 4539 03b2 8B030000 		.4byte	0x38b
ARM GAS  C:\Users\bccho\AppData\Local\Temp\ccHbMFsA.s 			page 91


 4540 03b6 53706565 		.ascii	"SpeedControl_kill\000"
 4540      64436F6E 
 4540      74726F6C 
 4540      5F6B696C 
 4540      6C00
 4541 03c8 9F030000 		.4byte	0x39f
 4542 03cc 53706565 		.ascii	"SpeedControl_handleWheelTick\000"
 4542      64436F6E 
 4542      74726F6C 
 4542      5F68616E 
 4542      646C6557 
 4543 03e9 D5030000 		.4byte	0x3d5
 4544 03ed 53706565 		.ascii	"SpeedControl_handleWheelTickTimeout\000"
 4544      64436F6E 
 4544      74726F6C 
 4544      5F68616E 
 4544      646C6557 
 4545 0411 EA030000 		.4byte	0x3ea
 4546 0415 53706565 		.ascii	"SpeedControl_handleTimer\000"
 4546      64436F6E 
 4546      74726F6C 
 4546      5F68616E 
 4546      646C6554 
 4547 042e 87070000 		.4byte	0x787
 4548 0432 7468726F 		.ascii	"throttle\000"
 4548      74746C65 
 4548      00
 4549 043b A9070000 		.4byte	0x7a9
 4550 043f 62756657 		.ascii	"bufWheelTick\000"
 4550      6865656C 
 4550      5469636B 
 4550      00
 4551 044c BB070000 		.4byte	0x7bb
 4552 0450 62756657 		.ascii	"bufWheelTickPos\000"
 4552      6865656C 
 4552      5469636B 
 4552      506F7300 
 4553 0460 CD070000 		.4byte	0x7cd
 4554 0464 62756657 		.ascii	"bufWheelTickCurSize\000"
 4554      6865656C 
 4554      5469636B 
 4554      43757253 
 4554      697A6500 
 4555 0478 DF070000 		.4byte	0x7df
 4556 047c 6F6C6454 		.ascii	"oldTickCount\000"
 4556      69636B43 
 4556      6F756E74 
 4556      00
 4557 0489 00000000 		.4byte	0x0
 4558              		.section	.debug_aranges,"",%progbits
 4559 0000 54010000 		.4byte	0x154
 4560 0004 0200     		.2byte	0x2
 4561 0006 00000000 		.4byte	.Ldebug_info0
 4562 000a 04       		.byte	0x4
 4563 000b 00       		.byte	0x0
 4564 000c 0000     		.2byte	0x0
 4565 000e 0000     		.2byte	0x0
ARM GAS  C:\Users\bccho\AppData\Local\Temp\ccHbMFsA.s 			page 92


 4566 0010 00000000 		.4byte	.LFB29
 4567 0014 16000000 		.4byte	.LFE29-.LFB29
 4568 0018 00000000 		.4byte	.LFB30
 4569 001c 44000000 		.4byte	.LFE30-.LFB30
 4570 0020 00000000 		.4byte	.LFB31
 4571 0024 1C000000 		.4byte	.LFE31-.LFB31
 4572 0028 00000000 		.4byte	.LFB32
 4573 002c 18000000 		.4byte	.LFE32-.LFB32
 4574 0030 00000000 		.4byte	.LFB33
 4575 0034 26000000 		.4byte	.LFE33-.LFB33
 4576 0038 00000000 		.4byte	.LFB34
 4577 003c 3E000000 		.4byte	.LFE34-.LFB34
 4578 0040 00000000 		.4byte	.LFB35
 4579 0044 18000000 		.4byte	.LFE35-.LFB35
 4580 0048 00000000 		.4byte	.LFB36
 4581 004c 16000000 		.4byte	.LFE36-.LFB36
 4582 0050 00000000 		.4byte	.LFB37
 4583 0054 16000000 		.4byte	.LFE37-.LFB37
 4584 0058 00000000 		.4byte	.LFB38
 4585 005c 16000000 		.4byte	.LFE38-.LFB38
 4586 0060 00000000 		.4byte	.LFB39
 4587 0064 18000000 		.4byte	.LFE39-.LFB39
 4588 0068 00000000 		.4byte	.LFB40
 4589 006c 18000000 		.4byte	.LFE40-.LFB40
 4590 0070 00000000 		.4byte	.LFB41
 4591 0074 16000000 		.4byte	.LFE41-.LFB41
 4592 0078 00000000 		.4byte	.LFB42
 4593 007c 6E000000 		.4byte	.LFE42-.LFB42
 4594 0080 00000000 		.4byte	.LFB43
 4595 0084 6E000000 		.4byte	.LFE43-.LFB43
 4596 0088 00000000 		.4byte	.LFB44
 4597 008c 1E000000 		.4byte	.LFE44-.LFB44
 4598 0090 00000000 		.4byte	.LFB45
 4599 0094 24000000 		.4byte	.LFE45-.LFB45
 4600 0098 00000000 		.4byte	.LFB46
 4601 009c 24000000 		.4byte	.LFE46-.LFB46
 4602 00a0 00000000 		.4byte	.LFB47
 4603 00a4 24000000 		.4byte	.LFE47-.LFB47
 4604 00a8 00000000 		.4byte	.LFB48
 4605 00ac 1A000000 		.4byte	.LFE48-.LFB48
 4606 00b0 00000000 		.4byte	.LFB49
 4607 00b4 1A000000 		.4byte	.LFE49-.LFB49
 4608 00b8 00000000 		.4byte	.LFB50
 4609 00bc 1A000000 		.4byte	.LFE50-.LFB50
 4610 00c0 00000000 		.4byte	.LFB51
 4611 00c4 1A000000 		.4byte	.LFE51-.LFB51
 4612 00c8 00000000 		.4byte	.LFB52
 4613 00cc 1A000000 		.4byte	.LFE52-.LFB52
 4614 00d0 00000000 		.4byte	.LFB53
 4615 00d4 12000000 		.4byte	.LFE53-.LFB53
 4616 00d8 00000000 		.4byte	.LFB54
 4617 00dc 1A000000 		.4byte	.LFE54-.LFB54
 4618 00e0 00000000 		.4byte	.LFB55
 4619 00e4 16000000 		.4byte	.LFE55-.LFB55
 4620 00e8 00000000 		.4byte	.LFB56
 4621 00ec 32000000 		.4byte	.LFE56-.LFB56
 4622 00f0 00000000 		.4byte	.LFB57
ARM GAS  C:\Users\bccho\AppData\Local\Temp\ccHbMFsA.s 			page 93


 4623 00f4 16000000 		.4byte	.LFE57-.LFB57
 4624 00f8 00000000 		.4byte	.LFB58
 4625 00fc 0A000000 		.4byte	.LFE58-.LFB58
 4626 0100 00000000 		.4byte	.LFB59
 4627 0104 48010000 		.4byte	.LFE59-.LFB59
 4628 0108 00000000 		.4byte	.LFB60
 4629 010c 1A000000 		.4byte	.LFE60-.LFB60
 4630 0110 00000000 		.4byte	.LFB61
 4631 0114 88000000 		.4byte	.LFE61-.LFB61
 4632 0118 00000000 		.4byte	.LFB62
 4633 011c 3C040000 		.4byte	.LFE62-.LFB62
 4634 0120 00000000 		.4byte	.LFB63
 4635 0124 28000000 		.4byte	.LFE63-.LFB63
 4636 0128 00000000 		.4byte	.LFB64
 4637 012c 8A000000 		.4byte	.LFE64-.LFB64
 4638 0130 00000000 		.4byte	.LFB65
 4639 0134 30010000 		.4byte	.LFE65-.LFB65
 4640 0138 00000000 		.4byte	.LFB66
 4641 013c 54000000 		.4byte	.LFE66-.LFB66
 4642 0140 00000000 		.4byte	.LFB67
 4643 0144 60000000 		.4byte	.LFE67-.LFB67
 4644 0148 00000000 		.4byte	.LFB68
 4645 014c 1E000000 		.4byte	.LFE68-.LFB68
 4646 0150 00000000 		.4byte	0x0
 4647 0154 00000000 		.4byte	0x0
 4648              		.section	.debug_ranges,"",%progbits
 4649              	.Ldebug_ranges0:
 4650 0000 00000000 		.4byte	.Ltext0
 4651 0004 00000000 		.4byte	.Letext0
 4652 0008 00000000 		.4byte	.LFB29
 4653 000c 16000000 		.4byte	.LFE29
 4654 0010 00000000 		.4byte	.LFB30
 4655 0014 44000000 		.4byte	.LFE30
 4656 0018 00000000 		.4byte	.LFB31
 4657 001c 1C000000 		.4byte	.LFE31
 4658 0020 00000000 		.4byte	.LFB32
 4659 0024 18000000 		.4byte	.LFE32
 4660 0028 00000000 		.4byte	.LFB33
 4661 002c 26000000 		.4byte	.LFE33
 4662 0030 00000000 		.4byte	.LFB34
 4663 0034 3E000000 		.4byte	.LFE34
 4664 0038 00000000 		.4byte	.LFB35
 4665 003c 18000000 		.4byte	.LFE35
 4666 0040 00000000 		.4byte	.LFB36
 4667 0044 16000000 		.4byte	.LFE36
 4668 0048 00000000 		.4byte	.LFB37
 4669 004c 16000000 		.4byte	.LFE37
 4670 0050 00000000 		.4byte	.LFB38
 4671 0054 16000000 		.4byte	.LFE38
 4672 0058 00000000 		.4byte	.LFB39
 4673 005c 18000000 		.4byte	.LFE39
 4674 0060 00000000 		.4byte	.LFB40
 4675 0064 18000000 		.4byte	.LFE40
 4676 0068 00000000 		.4byte	.LFB41
 4677 006c 16000000 		.4byte	.LFE41
 4678 0070 00000000 		.4byte	.LFB42
 4679 0074 6E000000 		.4byte	.LFE42
ARM GAS  C:\Users\bccho\AppData\Local\Temp\ccHbMFsA.s 			page 94


 4680 0078 00000000 		.4byte	.LFB43
 4681 007c 6E000000 		.4byte	.LFE43
 4682 0080 00000000 		.4byte	.LFB44
 4683 0084 1E000000 		.4byte	.LFE44
 4684 0088 00000000 		.4byte	.LFB45
 4685 008c 24000000 		.4byte	.LFE45
 4686 0090 00000000 		.4byte	.LFB46
 4687 0094 24000000 		.4byte	.LFE46
 4688 0098 00000000 		.4byte	.LFB47
 4689 009c 24000000 		.4byte	.LFE47
 4690 00a0 00000000 		.4byte	.LFB48
 4691 00a4 1A000000 		.4byte	.LFE48
 4692 00a8 00000000 		.4byte	.LFB49
 4693 00ac 1A000000 		.4byte	.LFE49
 4694 00b0 00000000 		.4byte	.LFB50
 4695 00b4 1A000000 		.4byte	.LFE50
 4696 00b8 00000000 		.4byte	.LFB51
 4697 00bc 1A000000 		.4byte	.LFE51
 4698 00c0 00000000 		.4byte	.LFB52
 4699 00c4 1A000000 		.4byte	.LFE52
 4700 00c8 00000000 		.4byte	.LFB53
 4701 00cc 12000000 		.4byte	.LFE53
 4702 00d0 00000000 		.4byte	.LFB54
 4703 00d4 1A000000 		.4byte	.LFE54
 4704 00d8 00000000 		.4byte	.LFB55
 4705 00dc 16000000 		.4byte	.LFE55
 4706 00e0 00000000 		.4byte	.LFB56
 4707 00e4 32000000 		.4byte	.LFE56
 4708 00e8 00000000 		.4byte	.LFB57
 4709 00ec 16000000 		.4byte	.LFE57
 4710 00f0 00000000 		.4byte	.LFB58
 4711 00f4 0A000000 		.4byte	.LFE58
 4712 00f8 00000000 		.4byte	.LFB59
 4713 00fc 48010000 		.4byte	.LFE59
 4714 0100 00000000 		.4byte	.LFB60
 4715 0104 1A000000 		.4byte	.LFE60
 4716 0108 00000000 		.4byte	.LFB61
 4717 010c 88000000 		.4byte	.LFE61
 4718 0110 00000000 		.4byte	.LFB62
 4719 0114 3C040000 		.4byte	.LFE62
 4720 0118 00000000 		.4byte	.LFB63
 4721 011c 28000000 		.4byte	.LFE63
 4722 0120 00000000 		.4byte	.LFB64
 4723 0124 8A000000 		.4byte	.LFE64
 4724 0128 00000000 		.4byte	.LFB65
 4725 012c 30010000 		.4byte	.LFE65
 4726 0130 00000000 		.4byte	.LFB66
 4727 0134 54000000 		.4byte	.LFE66
 4728 0138 00000000 		.4byte	.LFB67
 4729 013c 60000000 		.4byte	.LFE67
 4730 0140 00000000 		.4byte	.LFB68
 4731 0144 1E000000 		.4byte	.LFE68
 4732 0148 00000000 		.4byte	0x0
 4733 014c 00000000 		.4byte	0x0
 4734              		.section	.debug_str,"MS",%progbits,1
 4735              	.LASF12:
 4736 0000 6C6F6E67 		.ascii	"long double\000"
ARM GAS  C:\Users\bccho\AppData\Local\Temp\ccHbMFsA.s 			page 95


 4736      20646F75 
 4736      626C6500 
 4737              	.LASF17:
 4738 000c 53706565 		.ascii	"SpeedControl_disableDistanceControl\000"
 4738      64436F6E 
 4738      74726F6C 
 4738      5F646973 
 4738      61626C65 
 4739              	.LASF11:
 4740 0030 666C6F61 		.ascii	"float\000"
 4740      7400
 4741              	.LASF34:
 4742 0036 53706565 		.ascii	"SpeedControl_getTargetDistance\000"
 4742      64436F6E 
 4742      74726F6C 
 4742      5F676574 
 4742      54617267 
 4743              	.LASF64:
 4744 0055 72657365 		.ascii	"resetDerivativeTracking\000"
 4744      74446572 
 4744      69766174 
 4744      69766554 
 4744      7261636B 
 4745              	.LASF15:
 4746 006d 53706565 		.ascii	"SpeedControl_disable\000"
 4746      64436F6E 
 4746      74726F6C 
 4746      5F646973 
 4746      61626C65 
 4747              	.LASF28:
 4748 0082 64697374 		.ascii	"dist\000"
 4748      00
 4749              	.LASF76:
 4750 0087 62756653 		.ascii	"bufSpeedPos\000"
 4750      70656564 
 4750      506F7300 
 4751              	.LASF2:
 4752 0093 73686F72 		.ascii	"short int\000"
 4752      7420696E 
 4752      7400
 4753              	.LASF73:
 4754 009d 5049445F 		.ascii	"PID_TIMER_PERIOD\000"
 4754      54494D45 
 4754      525F5045 
 4754      52494F44 
 4754      00
 4755              	.LASF74:
 4756 00ae 656C6170 		.ascii	"elapsedTime\000"
 4756      73656454 
 4756      696D6500 
 4757              	.LASF6:
 4758 00ba 6C6F6E67 		.ascii	"long long int\000"
 4758      206C6F6E 
 4758      6720696E 
 4758      7400
 4759              	.LASF87:
 4760 00c8 636F6566 		.ascii	"coeffI\000"
ARM GAS  C:\Users\bccho\AppData\Local\Temp\ccHbMFsA.s 			page 96


 4760      664900
 4761              	.LASF47:
 4762 00cf 53706565 		.ascii	"SpeedControl_handleWheelTickTimeout\000"
 4762      64436F6E 
 4762      74726F6C 
 4762      5F68616E 
 4762      646C6557 
 4763              	.LASF69:
 4764 00f3 5449434B 		.ascii	"TICK_TIMER_PERIOD\000"
 4764      5F54494D 
 4764      45525F50 
 4764      4552494F 
 4764      4400
 4765              	.LASF57:
 4766 0105 6C636462 		.ascii	"lcdbuffer\000"
 4766      75666665 
 4766      7200
 4767              	.LASF96:
 4768 010f 2E5C7370 		.ascii	".\\speedcontrol.c\000"
 4768      65656463 
 4768      6F6E7472 
 4768      6F6C2E63 
 4768      00
 4769              	.LASF92:
 4770 0120 62756657 		.ascii	"bufWheelTickPos\000"
 4770      6865656C 
 4770      5469636B 
 4770      506F7300 
 4771              	.LASF40:
 4772 0130 53706565 		.ascii	"SpeedControl_getSteadyStateThrottle\000"
 4772      64436F6E 
 4772      74726F6C 
 4772      5F676574 
 4772      53746561 
 4773              	.LASF83:
 4774 0154 74617267 		.ascii	"targetDistance\000"
 4774      65744469 
 4774      7374616E 
 4774      636500
 4775              	.LASF55:
 4776 0163 6572726F 		.ascii	"errorDerivative\000"
 4776      72446572 
 4776      69766174 
 4776      69766500 
 4777              	.LASF63:
 4778 0173 72657365 		.ascii	"resetSpeedTracking\000"
 4778      74537065 
 4778      65645472 
 4778      61636B69 
 4778      6E6700
 4779              	.LASF37:
 4780 0186 53706565 		.ascii	"SpeedControl_getD\000"
 4780      64436F6E 
 4780      74726F6C 
 4780      5F676574 
 4780      4400
 4781              	.LASF36:
ARM GAS  C:\Users\bccho\AppData\Local\Temp\ccHbMFsA.s 			page 97


 4782 0198 53706565 		.ascii	"SpeedControl_getI\000"
 4782      64436F6E 
 4782      74726F6C 
 4782      5F676574 
 4782      4900
 4783              	.LASF81:
 4784 01aa 64796E61 		.ascii	"dynamicTargetSpeedUpdateOn\000"
 4784      6D696354 
 4784      61726765 
 4784      74537065 
 4784      65645570 
 4785              	.LASF19:
 4786 01c5 53706565 		.ascii	"SpeedControl_disableDynamicTargetUpdate\000"
 4786      64436F6E 
 4786      74726F6C 
 4786      5F646973 
 4786      61626C65 
 4787              	.LASF35:
 4788 01ed 53706565 		.ascii	"SpeedControl_getP\000"
 4788      64436F6E 
 4788      74726F6C 
 4788      5F676574 
 4788      5000
 4789              	.LASF79:
 4790 01ff 7468726F 		.ascii	"throttlePIDon\000"
 4790      74746C65 
 4790      5049446F 
 4790      6E00
 4791              	.LASF77:
 4792 020d 62756653 		.ascii	"bufSpeedLastPos\000"
 4792      70656564 
 4792      4C617374 
 4792      506F7300 
 4793              	.LASF32:
 4794 021d 53706565 		.ascii	"SpeedControl_setD\000"
 4794      64436F6E 
 4794      74726F6C 
 4794      5F736574 
 4794      4400
 4795              	.LASF26:
 4796 022f 53706565 		.ascii	"SpeedControl_setTargetSpeed\000"
 4796      64436F6E 
 4796      74726F6C 
 4796      5F736574 
 4796      54617267 
 4797              	.LASF4:
 4798 024b 6C6F6E67 		.ascii	"long int\000"
 4798      20696E74 
 4798      00
 4799              	.LASF31:
 4800 0254 53706565 		.ascii	"SpeedControl_setI\000"
 4800      64436F6E 
 4800      74726F6C 
 4800      5F736574 
 4800      4900
 4801              	.LASF51:
 4802 0266 64697374 		.ascii	"distanceLeft\000"
ARM GAS  C:\Users\bccho\AppData\Local\Temp\ccHbMFsA.s 			page 98


 4802      616E6365 
 4802      4C656674 
 4802      00
 4803              	.LASF52:
 4804 0273 74696D65 		.ascii	"timeLeft\000"
 4804      4C656674 
 4804      00
 4805              	.LASF30:
 4806 027c 53706565 		.ascii	"SpeedControl_setP\000"
 4806      64436F6E 
 4806      74726F6C 
 4806      5F736574 
 4806      5000
 4807              	.LASF84:
 4808 028e 74617267 		.ascii	"targetTime\000"
 4808      65745469 
 4808      6D6500
 4809              	.LASF99:
 4810 0299 636F6E74 		.ascii	"controlThrottle\000"
 4810      726F6C54 
 4810      68726F74 
 4810      746C6500 
 4811              	.LASF50:
 4812 02a9 64796E61 		.ascii	"dynamicTargetSpeed\000"
 4812      6D696354 
 4812      61726765 
 4812      74537065 
 4812      656400
 4813              	.LASF65:
 4814 02bc 6B696C6C 		.ascii	"killAll\000"
 4814      416C6C00 
 4815              	.LASF1:
 4816 02c4 756E7369 		.ascii	"unsigned char\000"
 4816      676E6564 
 4816      20636861 
 4816      7200
 4817              	.LASF29:
 4818 02d2 53706565 		.ascii	"SpeedControl_setSteadyStateThrottle\000"
 4818      64436F6E 
 4818      74726F6C 
 4818      5F736574 
 4818      53746561 
 4819              	.LASF49:
 4820 02f6 73706565 		.ascii	"speed\000"
 4820      6400
 4821              	.LASF18:
 4822 02fc 53706565 		.ascii	"SpeedControl_enableDynamicTargetUpdate\000"
 4822      64436F6E 
 4822      74726F6C 
 4822      5F656E61 
 4822      626C6544 
 4823              	.LASF60:
 4824 0323 63756D53 		.ascii	"cumSum\000"
 4824      756D00
 4825              	.LASF72:
 4826 032a 746F7461 		.ascii	"totalDistance\000"
 4826      6C446973 
ARM GAS  C:\Users\bccho\AppData\Local\Temp\ccHbMFsA.s 			page 99


 4826      74616E63 
 4826      6500
 4827              	.LASF68:
 4828 0338 4D41585F 		.ascii	"MAX_THROTTLE\000"
 4828      5448524F 
 4828      54544C45 
 4828      00
 4829              	.LASF75:
 4830 0345 62756653 		.ascii	"bufSpeed\000"
 4830      70656564 
 4830      00
 4831              	.LASF25:
 4832 034e 53706565 		.ascii	"SpeedControl_isVerbosePrintoutEnabled\000"
 4832      64436F6E 
 4832      74726F6C 
 4832      5F697356 
 4832      6572626F 
 4833              	.LASF20:
 4834 0374 53706565 		.ascii	"SpeedControl_isEnabled\000"
 4834      64436F6E 
 4834      74726F6C 
 4834      5F697345 
 4834      6E61626C 
 4835              	.LASF0:
 4836 038b 7369676E 		.ascii	"signed char\000"
 4836      65642063 
 4836      68617200 
 4837              	.LASF7:
 4838 0397 6C6F6E67 		.ascii	"long long unsigned int\000"
 4838      206C6F6E 
 4838      6720756E 
 4838      7369676E 
 4838      65642069 
 4839              	.LASF97:
 4840 03ae 433A5C55 		.ascii	"C:\\Users\\Public\\Documents\\Carlab\\BC and TJ\\Pr"
 4840      73657273 
 4840      5C507562 
 4840      6C69635C 
 4840      446F6375 
 4841 03db 6F6A6563 		.ascii	"oject 4\\Navigation01\\Navigation01.cydsn\000"
 4841      7420345C 
 4841      4E617669 
 4841      67617469 
 4841      6F6E3031 
 4842              	.LASF89:
 4843 0403 76657262 		.ascii	"verbosePrintoutOn\000"
 4843      6F736550 
 4843      72696E74 
 4843      6F75744F 
 4843      6E00
 4844              	.LASF8:
 4845 0415 756E7369 		.ascii	"unsigned int\000"
 4845      676E6564 
 4845      20696E74 
 4845      00
 4846              	.LASF27:
 4847 0422 53706565 		.ascii	"SpeedControl_setTargetDistance\000"
ARM GAS  C:\Users\bccho\AppData\Local\Temp\ccHbMFsA.s 			page 100


 4847      64436F6E 
 4847      74726F6C 
 4847      5F736574 
 4847      54617267 
 4848              	.LASF66:
 4849 0441 72657365 		.ascii	"resetIntegralTracking\000"
 4849      74496E74 
 4849      65677261 
 4849      6C547261 
 4849      636B696E 
 4850              	.LASF58:
 4851 0457 73657454 		.ascii	"setThrottle\000"
 4851      68726F74 
 4851      746C6500 
 4852              	.LASF22:
 4853 0463 53706565 		.ascii	"SpeedControl_isDynamicTargetUpdateEnabled\000"
 4853      64436F6E 
 4853      74726F6C 
 4853      5F697344 
 4853      796E616D 
 4854              	.LASF39:
 4855 048d 53706565 		.ascii	"SpeedControl_getDistance\000"
 4855      64436F6E 
 4855      74726F6C 
 4855      5F676574 
 4855      44697374 
 4856              	.LASF38:
 4857 04a6 53706565 		.ascii	"SpeedControl_getSpeed\000"
 4857      64436F6E 
 4857      74726F6C 
 4857      5F676574 
 4857      53706565 
 4858              	.LASF3:
 4859 04bc 73686F72 		.ascii	"short unsigned int\000"
 4859      7420756E 
 4859      7369676E 
 4859      65642069 
 4859      6E7400
 4860              	.LASF85:
 4861 04cf 7468726F 		.ascii	"throttleSS\000"
 4861      74746C65 
 4861      535300
 4862              	.LASF70:
 4863 04da 434C4B5F 		.ascii	"CLK_FREQ\000"
 4863      46524551 
 4863      00
 4864              	.LASF9:
 4865 04e3 63686172 		.ascii	"char\000"
 4865      00
 4866              	.LASF14:
 4867 04e8 53706565 		.ascii	"SpeedControl_enable\000"
 4867      64436F6E 
 4867      74726F6C 
 4867      5F656E61 
 4867      626C6500 
 4868              	.LASF16:
 4869 04fc 53706565 		.ascii	"SpeedControl_enableDistanceControl\000"
ARM GAS  C:\Users\bccho\AppData\Local\Temp\ccHbMFsA.s 			page 101


 4869      64436F6E 
 4869      74726F6C 
 4869      5F656E61 
 4869      626C6544 
 4870              	.LASF56:
 4871 051f 6E657754 		.ascii	"newThrottle\000"
 4871      68726F74 
 4871      746C6500 
 4872              	.LASF82:
 4873 052b 74617267 		.ascii	"targetSpeed\000"
 4873      65745370 
 4873      65656400 
 4874              	.LASF24:
 4875 0537 53706565 		.ascii	"SpeedControl_disableVerbosePrintout\000"
 4875      64436F6E 
 4875      74726F6C 
 4875      5F646973 
 4875      61626C65 
 4876              	.LASF91:
 4877 055b 62756657 		.ascii	"bufWheelTick\000"
 4877      6865656C 
 4877      5469636B 
 4877      00
 4878              	.LASF21:
 4879 0568 53706565 		.ascii	"SpeedControl_isDistanceControlEnabled\000"
 4879      64436F6E 
 4879      74726F6C 
 4879      5F697344 
 4879      69737461 
 4880              	.LASF48:
 4881 058e 53706565 		.ascii	"SpeedControl_handleTimer\000"
 4881      64436F6E 
 4881      74726F6C 
 4881      5F68616E 
 4881      646C6554 
 4882              	.LASF10:
 4883 05a7 646F7562 		.ascii	"double\000"
 4883      6C6500
 4884              	.LASF67:
 4885 05ae 73747262 		.ascii	"strbuffer\000"
 4885      75666665 
 4885      7200
 4886              	.LASF41:
 4887 05b8 53706565 		.ascii	"SpeedControl_setThrottle\000"
 4887      64436F6E 
 4887      74726F6C 
 4887      5F736574 
 4887      5468726F 
 4888              	.LASF5:
 4889 05d1 6C6F6E67 		.ascii	"long unsigned int\000"
 4889      20756E73 
 4889      69676E65 
 4889      6420696E 
 4889      7400
 4890              	.LASF44:
 4891 05e3 53706565 		.ascii	"SpeedControl_kill\000"
 4891      64436F6E 
ARM GAS  C:\Users\bccho\AppData\Local\Temp\ccHbMFsA.s 			page 102


 4891      74726F6C 
 4891      5F6B696C 
 4891      6C00
 4892              	.LASF53:
 4893 05f5 4D41585F 		.ascii	"MAX_SPEED\000"
 4893      53504545 
 4893      4400
 4894              	.LASF78:
 4895 05ff 6572726F 		.ascii	"errorIntegral\000"
 4895      72496E74 
 4895      65677261 
 4895      6C00
 4896              	.LASF93:
 4897 060d 62756657 		.ascii	"bufWheelTickCurSize\000"
 4897      6865656C 
 4897      5469636B 
 4897      43757253 
 4897      697A6500 
 4898              	.LASF59:
 4899 0621 67657453 		.ascii	"getSpeed\000"
 4899      70656564 
 4899      00
 4900              	.LASF54:
 4901 062a 6572726F 		.ascii	"error\000"
 4901      7200
 4902              	.LASF45:
 4903 0630 7469636B 		.ascii	"tickCount\000"
 4903      436F756E 
 4903      7400
 4904              	.LASF95:
 4905 063a 474E5520 		.ascii	"GNU C 4.4.1\000"
 4905      4320342E 
 4905      342E3100 
 4906              	.LASF33:
 4907 0646 53706565 		.ascii	"SpeedControl_getTargetSpeed\000"
 4907      64436F6E 
 4907      74726F6C 
 4907      5F676574 
 4907      54617267 
 4908              	.LASF90:
 4909 0662 49544D5F 		.ascii	"ITM_RxBuffer\000"
 4909      52784275 
 4909      66666572 
 4909      00
 4910              	.LASF71:
 4911 066f 57484545 		.ascii	"WHEEL_DIAM\000"
 4911      4C5F4449 
 4911      414D00
 4912              	.LASF88:
 4913 067a 636F6566 		.ascii	"coeffD\000"
 4913      664400
 4914              	.LASF43:
 4915 0681 53706565 		.ascii	"SpeedControl_getThrottle\000"
 4915      64436F6E 
 4915      74726F6C 
 4915      5F676574 
 4915      5468726F 
ARM GAS  C:\Users\bccho\AppData\Local\Temp\ccHbMFsA.s 			page 103


 4916              	.LASF61:
 4917 069a 61766572 		.ascii	"averageCount\000"
 4917      61676543 
 4917      6F756E74 
 4917      00
 4918              	.LASF94:
 4919 06a7 6F6C6454 		.ascii	"oldTickCount\000"
 4919      69636B43 
 4919      6F756E74 
 4919      00
 4920              	.LASF98:
 4921 06b4 53706565 		.ascii	"SpeedControl_handleWheelTick\000"
 4921      64436F6E 
 4921      74726F6C 
 4921      5F68616E 
 4921      646C6557 
 4922              	.LASF46:
 4923 06d1 7469636B 		.ascii	"tickDelta\000"
 4923      44656C74 
 4923      6100
 4924              	.LASF80:
 4925 06db 64697374 		.ascii	"distanceTimeoutOn\000"
 4925      616E6365 
 4925      54696D65 
 4925      6F75744F 
 4925      6E00
 4926              	.LASF23:
 4927 06ed 53706565 		.ascii	"SpeedControl_enableVerbosePrintout\000"
 4927      64436F6E 
 4927      74726F6C 
 4927      5F656E61 
 4927      626C6556 
 4928              	.LASF13:
 4929 0710 53706565 		.ascii	"SpeedControl_init\000"
 4929      64436F6E 
 4929      74726F6C 
 4929      5F696E69 
 4929      7400
 4930              	.LASF86:
 4931 0722 636F6566 		.ascii	"coeffP\000"
 4931      665000
 4932              	.LASF42:
 4933 0729 7468726F 		.ascii	"throttle\000"
 4933      74746C65 
 4933      00
 4934              	.LASF62:
 4935 0732 7469636B 		.ascii	"ticksPerSec\000"
 4935      73506572 
 4935      53656300 
 4936              		.ident	"GCC: (Sourcery G++ Lite 2010q1-188) 4.4.1"
