ARM GAS  C:\Users\bccho\AppData\Local\Temp\cculH1na.s 			page 1


   1              		.syntax unified
   2              		.cpu cortex-m3
   3              		.fpu softvfp
   4              		.eabi_attribute 20, 1
   5              		.eabi_attribute 21, 1
   6              		.eabi_attribute 23, 3
   7              		.eabi_attribute 24, 1
   8              		.eabi_attribute 25, 1
   9              		.eabi_attribute 26, 1
  10              		.eabi_attribute 30, 6
  11              		.eabi_attribute 18, 4
  12              		.thumb
  13              		.file	"Timer_Row.c"
  20 0000 8C010000 		.text
  20      02006200 
  20      00000201 
  20      FB0E0D00 
  20      01010101 
  21              	.Ltext0:
  22              		.cfi_sections	.debug_frame
  23              		.global	Timer_Row_initVar
  24              		.bss
  25              		.type	Timer_Row_initVar, %object
  26              		.size	Timer_Row_initVar, 1
  27              	Timer_Row_initVar:
  28 0000 00       		.space	1
  29              		.section	.text.Timer_Row_Init,"ax",%progbits
  30              		.align	2
  31              		.global	Timer_Row_Init
  32              		.thumb
  33              		.thumb_func
  34              		.type	Timer_Row_Init, %function
  35              	Timer_Row_Init:
  36              	.LFB0:
  37              		.file 1 ".\\Generated_Source\\PSoC5\\Timer_Row.c"
   1:.\Generated_Source\PSoC5/Timer_Row.c **** /*******************************************************************************
   2:.\Generated_Source\PSoC5/Timer_Row.c **** * File Name: Timer_Row.c
   3:.\Generated_Source\PSoC5/Timer_Row.c **** * Version 2.30
   4:.\Generated_Source\PSoC5/Timer_Row.c **** *
   5:.\Generated_Source\PSoC5/Timer_Row.c **** * Description:
   6:.\Generated_Source\PSoC5/Timer_Row.c **** *  The Timer component consists of a 8, 16, 24 or 32-bit timer with
   7:.\Generated_Source\PSoC5/Timer_Row.c **** *  a selectable period between 2 and 2^Width - 1.  The timer may free run
   8:.\Generated_Source\PSoC5/Timer_Row.c **** *  or be used as a capture timer as well.  The capture can be initiated
   9:.\Generated_Source\PSoC5/Timer_Row.c **** *  by a positive or negative edge signal as well as via software.
  10:.\Generated_Source\PSoC5/Timer_Row.c **** *  A trigger input can be programmed to enable the timer on rising edge
  11:.\Generated_Source\PSoC5/Timer_Row.c **** *  falling edge, either edge or continous run.
  12:.\Generated_Source\PSoC5/Timer_Row.c **** *  Interrupts may be generated due to a terminal count condition
  13:.\Generated_Source\PSoC5/Timer_Row.c **** *  or a capture event.
  14:.\Generated_Source\PSoC5/Timer_Row.c **** *
  15:.\Generated_Source\PSoC5/Timer_Row.c **** * Note:
  16:.\Generated_Source\PSoC5/Timer_Row.c **** *
ARM GAS  C:\Users\bccho\AppData\Local\Temp\cculH1na.s 			page 2


  17:.\Generated_Source\PSoC5/Timer_Row.c **** ********************************************************************************
  18:.\Generated_Source\PSoC5/Timer_Row.c **** * Copyright 2008-2012, Cypress Semiconductor Corporation.  All rights reserved.
  19:.\Generated_Source\PSoC5/Timer_Row.c **** * You may use this file only in accordance with the license, terms, conditions,
  20:.\Generated_Source\PSoC5/Timer_Row.c **** * disclaimers, and limitations in the end user license agreement accompanying
  21:.\Generated_Source\PSoC5/Timer_Row.c **** * the software package with which this file was provided.
  22:.\Generated_Source\PSoC5/Timer_Row.c **** ********************************************************************************/
  23:.\Generated_Source\PSoC5/Timer_Row.c **** 
  24:.\Generated_Source\PSoC5/Timer_Row.c **** #include "Timer_Row.h"
  25:.\Generated_Source\PSoC5/Timer_Row.c **** 
  26:.\Generated_Source\PSoC5/Timer_Row.c **** uint8 Timer_Row_initVar = 0u;
  27:.\Generated_Source\PSoC5/Timer_Row.c **** 
  28:.\Generated_Source\PSoC5/Timer_Row.c **** 
  29:.\Generated_Source\PSoC5/Timer_Row.c **** /*******************************************************************************
  30:.\Generated_Source\PSoC5/Timer_Row.c **** * Function Name: Timer_Row_Init
  31:.\Generated_Source\PSoC5/Timer_Row.c **** ********************************************************************************
  32:.\Generated_Source\PSoC5/Timer_Row.c **** *
  33:.\Generated_Source\PSoC5/Timer_Row.c **** * Summary:
  34:.\Generated_Source\PSoC5/Timer_Row.c **** *  Initialize to the schematic state
  35:.\Generated_Source\PSoC5/Timer_Row.c **** *
  36:.\Generated_Source\PSoC5/Timer_Row.c **** * Parameters:
  37:.\Generated_Source\PSoC5/Timer_Row.c **** *  void
  38:.\Generated_Source\PSoC5/Timer_Row.c **** *
  39:.\Generated_Source\PSoC5/Timer_Row.c **** * Return:
  40:.\Generated_Source\PSoC5/Timer_Row.c **** *  void
  41:.\Generated_Source\PSoC5/Timer_Row.c **** *
  42:.\Generated_Source\PSoC5/Timer_Row.c **** *******************************************************************************/
  43:.\Generated_Source\PSoC5/Timer_Row.c **** void Timer_Row_Init(void) 
  44:.\Generated_Source\PSoC5/Timer_Row.c **** {
  38              		.loc 1 44 0
  39              		.cfi_startproc
  40              		@ args = 0, pretend = 0, frame = 8
  41              		@ frame_needed = 1, uses_anonymous_args = 0
  42 0000 80B5     		push	{r7, lr}
  43              	.LCFI0:
  44              		.cfi_def_cfa_offset 8
  45 0002 82B0     		sub	sp, sp, #8
  46              	.LCFI1:
  47              		.cfi_def_cfa_offset 16
  48 0004 00AF     		add	r7, sp, #0
  49              		.cfi_offset 14, -4
  50              		.cfi_offset 7, -8
  51              	.LCFI2:
  52              		.cfi_def_cfa_register 7
  45:.\Generated_Source\PSoC5/Timer_Row.c ****     #if(!Timer_Row_UsingFixedFunction)
  46:.\Generated_Source\PSoC5/Timer_Row.c ****             /* Interrupt State Backup for Critical Region*/
  47:.\Generated_Source\PSoC5/Timer_Row.c ****             uint8 Timer_Row_interruptState;
  48:.\Generated_Source\PSoC5/Timer_Row.c ****     #endif /* Interrupt state back up for Fixed Function only */
  49:.\Generated_Source\PSoC5/Timer_Row.c **** 
  50:.\Generated_Source\PSoC5/Timer_Row.c ****     #if (Timer_Row_UsingFixedFunction)
  51:.\Generated_Source\PSoC5/Timer_Row.c ****         /* Clear all bits but the enable bit (if it's already set) for Timer operation */
  52:.\Generated_Source\PSoC5/Timer_Row.c ****         Timer_Row_CONTROL &= Timer_Row_CTRL_ENABLE;
  53:.\Generated_Source\PSoC5/Timer_Row.c **** 
  54:.\Generated_Source\PSoC5/Timer_Row.c ****         /* Clear the mode bits for continuous run mode */
  55:.\Generated_Source\PSoC5/Timer_Row.c ****         #if (CY_PSOC5A)
  56:.\Generated_Source\PSoC5/Timer_Row.c ****             Timer_Row_CONTROL2 &= ~Timer_Row_CTRL_MODE_MASK;
  57:.\Generated_Source\PSoC5/Timer_Row.c ****         #endif /* Clear bits in CONTROL2 only in PSOC5A */
  58:.\Generated_Source\PSoC5/Timer_Row.c **** 
ARM GAS  C:\Users\bccho\AppData\Local\Temp\cculH1na.s 			page 3


  59:.\Generated_Source\PSoC5/Timer_Row.c ****         #if (CY_PSOC3 || CY_PSOC5LP)
  60:.\Generated_Source\PSoC5/Timer_Row.c ****             Timer_Row_CONTROL3 &= ~Timer_Row_CTRL_MODE_MASK;
  61:.\Generated_Source\PSoC5/Timer_Row.c ****         #endif /* CONTROL3 register exists only in PSoC3 OR PSoC5LP */
  62:.\Generated_Source\PSoC5/Timer_Row.c **** 
  63:.\Generated_Source\PSoC5/Timer_Row.c ****         /* Check if One Shot mode is enabled i.e. RunMode !=0*/
  64:.\Generated_Source\PSoC5/Timer_Row.c ****         #if (Timer_Row_RunModeUsed != 0x0u)
  65:.\Generated_Source\PSoC5/Timer_Row.c ****             /* Set 3rd bit of Control register to enable one shot mode */
  66:.\Generated_Source\PSoC5/Timer_Row.c ****             Timer_Row_CONTROL |= 0x04u;
  67:.\Generated_Source\PSoC5/Timer_Row.c ****         #endif /* One Shot enabled only when RunModeUsed is not Continuous*/
  68:.\Generated_Source\PSoC5/Timer_Row.c **** 
  69:.\Generated_Source\PSoC5/Timer_Row.c ****         #if (Timer_Row_RunModeUsed == 2)
  70:.\Generated_Source\PSoC5/Timer_Row.c ****             #if (CY_PSOC5A)
  71:.\Generated_Source\PSoC5/Timer_Row.c ****                 /* Set last 2 bits of control2 register if one shot(halt on
  72:.\Generated_Source\PSoC5/Timer_Row.c ****                 interrupt) is enabled*/
  73:.\Generated_Source\PSoC5/Timer_Row.c ****                 Timer_Row_CONTROL2 |= 0x03u;
  74:.\Generated_Source\PSoC5/Timer_Row.c ****             #endif /* Set One-Shot Halt on Interrupt bit in CONTROL2 for PSoC5A */
  75:.\Generated_Source\PSoC5/Timer_Row.c **** 
  76:.\Generated_Source\PSoC5/Timer_Row.c ****             #if (CY_PSOC3 || CY_PSOC5LP)
  77:.\Generated_Source\PSoC5/Timer_Row.c ****                 /* Set last 2 bits of control3 register if one shot(halt on
  78:.\Generated_Source\PSoC5/Timer_Row.c ****                 interrupt) is enabled*/
  79:.\Generated_Source\PSoC5/Timer_Row.c ****                 Timer_Row_CONTROL3 |= 0x03u;
  80:.\Generated_Source\PSoC5/Timer_Row.c ****             #endif /* Set One-Shot Halt on Interrupt bit in CONTROL3 for PSoC3 or PSoC5LP */
  81:.\Generated_Source\PSoC5/Timer_Row.c **** 
  82:.\Generated_Source\PSoC5/Timer_Row.c ****         #endif /* Remove section if One Shot Halt on Interrupt is not enabled */
  83:.\Generated_Source\PSoC5/Timer_Row.c **** 
  84:.\Generated_Source\PSoC5/Timer_Row.c ****         #if (Timer_Row_UsingHWEnable != 0)
  85:.\Generated_Source\PSoC5/Timer_Row.c ****             #if (CY_PSOC5A)
  86:.\Generated_Source\PSoC5/Timer_Row.c ****                 /* Set the default Run Mode of the Timer to Continuous */
  87:.\Generated_Source\PSoC5/Timer_Row.c ****                 Timer_Row_CONTROL2 |= Timer_Row_CTRL_MODE_PULSEWIDTH;
  88:.\Generated_Source\PSoC5/Timer_Row.c ****             #endif /* Set Continuous Run Mode in CONTROL2 for PSoC5A */
  89:.\Generated_Source\PSoC5/Timer_Row.c **** 
  90:.\Generated_Source\PSoC5/Timer_Row.c ****             #if (CY_PSOC3 || CY_PSOC5LP)
  91:.\Generated_Source\PSoC5/Timer_Row.c ****                 /* Clear and Set ROD and COD bits of CFG2 register */
  92:.\Generated_Source\PSoC5/Timer_Row.c ****                 Timer_Row_CONTROL3 &= ~Timer_Row_CTRL_RCOD_MASK;
  93:.\Generated_Source\PSoC5/Timer_Row.c ****                 Timer_Row_CONTROL3 |= Timer_Row_CTRL_RCOD;
  94:.\Generated_Source\PSoC5/Timer_Row.c **** 
  95:.\Generated_Source\PSoC5/Timer_Row.c ****                 /* Clear and Enable the HW enable bit in CFG2 register */
  96:.\Generated_Source\PSoC5/Timer_Row.c ****                 Timer_Row_CONTROL3 &= ~Timer_Row_CTRL_ENBL_MASK;
  97:.\Generated_Source\PSoC5/Timer_Row.c ****                 Timer_Row_CONTROL3 |= Timer_Row_CTRL_ENBL;
  98:.\Generated_Source\PSoC5/Timer_Row.c **** 
  99:.\Generated_Source\PSoC5/Timer_Row.c ****                 /* Set the default Run Mode of the Timer to Continuous */
 100:.\Generated_Source\PSoC5/Timer_Row.c ****                 Timer_Row_CONTROL3 |= Timer_Row_CTRL_MODE_CONTINUOUS;
 101:.\Generated_Source\PSoC5/Timer_Row.c ****             #endif /* Set Continuous Run Mode in CONTROL3 for PSoC3ES3 or PSoC5A */
 102:.\Generated_Source\PSoC5/Timer_Row.c **** 
 103:.\Generated_Source\PSoC5/Timer_Row.c ****         #endif /* Configure Run Mode with hardware enable */
 104:.\Generated_Source\PSoC5/Timer_Row.c **** 
 105:.\Generated_Source\PSoC5/Timer_Row.c ****         /* Clear and Set SYNCTC and SYNCCMP bits of RT1 register */
 106:.\Generated_Source\PSoC5/Timer_Row.c ****         Timer_Row_RT1 &= ~Timer_Row_RT1_MASK;
 107:.\Generated_Source\PSoC5/Timer_Row.c ****         Timer_Row_RT1 |= Timer_Row_SYNC;
 108:.\Generated_Source\PSoC5/Timer_Row.c **** 
 109:.\Generated_Source\PSoC5/Timer_Row.c ****         /*Enable DSI Sync all all inputs of the Timer*/
 110:.\Generated_Source\PSoC5/Timer_Row.c ****         Timer_Row_RT1 &= ~(Timer_Row_SYNCDSI_MASK);
 111:.\Generated_Source\PSoC5/Timer_Row.c ****         Timer_Row_RT1 |= Timer_Row_SYNCDSI_EN;
 112:.\Generated_Source\PSoC5/Timer_Row.c **** 
 113:.\Generated_Source\PSoC5/Timer_Row.c ****         /* Set the IRQ to use the status register interrupts */
 114:.\Generated_Source\PSoC5/Timer_Row.c ****         Timer_Row_CONTROL2 |= Timer_Row_CTRL2_IRQ_SEL;
 115:.\Generated_Source\PSoC5/Timer_Row.c ****     #endif /* Configuring registers of fixed function implementation */
ARM GAS  C:\Users\bccho\AppData\Local\Temp\cculH1na.s 			page 4


 116:.\Generated_Source\PSoC5/Timer_Row.c **** 
 117:.\Generated_Source\PSoC5/Timer_Row.c ****     /* Set Initial values from Configuration */
 118:.\Generated_Source\PSoC5/Timer_Row.c ****     Timer_Row_WritePeriod(Timer_Row_INIT_PERIOD);
  53              		.loc 1 118 0
  54 0006 4FF6FF70 		movw	r0, #65535
  55 000a FFF7FEFF 		bl	Timer_Row_WritePeriod
 119:.\Generated_Source\PSoC5/Timer_Row.c ****     Timer_Row_WriteCounter(Timer_Row_INIT_PERIOD);
  56              		.loc 1 119 0
  57 000e 4FF6FF70 		movw	r0, #65535
  58 0012 FFF7FEFF 		bl	Timer_Row_WriteCounter
 120:.\Generated_Source\PSoC5/Timer_Row.c **** 
 121:.\Generated_Source\PSoC5/Timer_Row.c ****     #if (Timer_Row_UsingHWCaptureCounter)/* Capture counter is enabled */
 122:.\Generated_Source\PSoC5/Timer_Row.c ****         Timer_Row_CAPTURE_COUNT_CTRL |= Timer_Row_CNTR_ENABLE;
 123:.\Generated_Source\PSoC5/Timer_Row.c ****         Timer_Row_SetCaptureCount(Timer_Row_INIT_CAPTURE_COUNT);
 124:.\Generated_Source\PSoC5/Timer_Row.c ****     #endif /* Configure capture counter value */
 125:.\Generated_Source\PSoC5/Timer_Row.c **** 
 126:.\Generated_Source\PSoC5/Timer_Row.c ****     #if (!Timer_Row_UsingFixedFunction)
 127:.\Generated_Source\PSoC5/Timer_Row.c ****         #if (Timer_Row_SoftwareCaptureMode)
 128:.\Generated_Source\PSoC5/Timer_Row.c ****             Timer_Row_SetCaptureMode(Timer_Row_INIT_CAPTURE_MODE);
 129:.\Generated_Source\PSoC5/Timer_Row.c ****         #endif /* Set Capture Mode for UDB implementation if capture mode is software controlled */
 130:.\Generated_Source\PSoC5/Timer_Row.c **** 
 131:.\Generated_Source\PSoC5/Timer_Row.c ****         #if (Timer_Row_SoftwareTriggerMode)
 132:.\Generated_Source\PSoC5/Timer_Row.c ****             if (!(Timer_Row_CONTROL & Timer_Row__B_TIMER__TM_SOFTWARE))
 133:.\Generated_Source\PSoC5/Timer_Row.c ****             {
 134:.\Generated_Source\PSoC5/Timer_Row.c ****                 Timer_Row_SetTriggerMode(Timer_Row_INIT_TRIGGER_MODE);
 135:.\Generated_Source\PSoC5/Timer_Row.c ****             }
 136:.\Generated_Source\PSoC5/Timer_Row.c ****         #endif /* Set trigger mode for UDB Implementation if trigger mode is software controlled */
 137:.\Generated_Source\PSoC5/Timer_Row.c **** 
 138:.\Generated_Source\PSoC5/Timer_Row.c ****         /* CyEnterCriticalRegion and CyExitCriticalRegion are used to mark following region critica
 139:.\Generated_Source\PSoC5/Timer_Row.c ****         /* Enter Critical Region*/
 140:.\Generated_Source\PSoC5/Timer_Row.c ****         Timer_Row_interruptState = CyEnterCriticalSection();
  59              		.loc 1 140 0
  60 0016 FFF7FEFF 		bl	CyEnterCriticalSection
  61 001a 0346     		mov	r3, r0
  62 001c FB71     		strb	r3, [r7, #7]
 141:.\Generated_Source\PSoC5/Timer_Row.c **** 
 142:.\Generated_Source\PSoC5/Timer_Row.c ****         /* Use the interrupt output of the status register for IRQ output */
 143:.\Generated_Source\PSoC5/Timer_Row.c ****         Timer_Row_STATUS_AUX_CTRL |= Timer_Row_STATUS_ACTL_INT_EN_MASK;
  63              		.loc 1 143 0
  64 001e 46F29243 		movw	r3, #:lower16:1073767570
  65 0022 C4F20003 		movt	r3, #:upper16:1073767570
  66 0026 46F29242 		movw	r2, #:lower16:1073767570
  67 002a C4F20002 		movt	r2, #:upper16:1073767570
  68 002e 1278     		ldrb	r2, [r2, #0]
  69 0030 D2B2     		uxtb	r2, r2
  70 0032 42F01002 		orr	r2, r2, #16
  71 0036 D2B2     		uxtb	r2, r2
  72 0038 1A70     		strb	r2, [r3, #0]
 144:.\Generated_Source\PSoC5/Timer_Row.c **** 
 145:.\Generated_Source\PSoC5/Timer_Row.c ****         /* Exit Critical Region*/
 146:.\Generated_Source\PSoC5/Timer_Row.c ****         CyExitCriticalSection(Timer_Row_interruptState);
  73              		.loc 1 146 0
  74 003a FB79     		ldrb	r3, [r7, #7]	@ zero_extendqisi2
  75 003c 1846     		mov	r0, r3
  76 003e FFF7FEFF 		bl	CyExitCriticalSection
 147:.\Generated_Source\PSoC5/Timer_Row.c **** 
 148:.\Generated_Source\PSoC5/Timer_Row.c ****         #if (Timer_Row_EnableTriggerMode)
ARM GAS  C:\Users\bccho\AppData\Local\Temp\cculH1na.s 			page 5


 149:.\Generated_Source\PSoC5/Timer_Row.c ****             Timer_Row_EnableTrigger();
 150:.\Generated_Source\PSoC5/Timer_Row.c ****         #endif /* Set Trigger enable bit for UDB implementation in the control register*/
 151:.\Generated_Source\PSoC5/Timer_Row.c **** 
 152:.\Generated_Source\PSoC5/Timer_Row.c ****         #if (Timer_Row_InterruptOnCaptureCount)
 153:.\Generated_Source\PSoC5/Timer_Row.c ****              #if (!Timer_Row_ControlRegRemoved)
 154:.\Generated_Source\PSoC5/Timer_Row.c ****                 Timer_Row_SetInterruptCount(Timer_Row_INIT_INT_CAPTURE_COUNT);
 155:.\Generated_Source\PSoC5/Timer_Row.c ****             #endif /* Set interrupt count in control register if control register is not removed */
 156:.\Generated_Source\PSoC5/Timer_Row.c ****         #endif /*Set interrupt count in UDB implementation if interrupt count feature is checked.*/
 157:.\Generated_Source\PSoC5/Timer_Row.c **** 
 158:.\Generated_Source\PSoC5/Timer_Row.c ****         Timer_Row_ClearFIFO();
  77              		.loc 1 158 0
  78 0042 FFF7FEFF 		bl	Timer_Row_ClearFIFO
 159:.\Generated_Source\PSoC5/Timer_Row.c ****     #endif /* Configure additional features of UDB implementation */
 160:.\Generated_Source\PSoC5/Timer_Row.c **** 
 161:.\Generated_Source\PSoC5/Timer_Row.c ****     Timer_Row_SetInterruptMode(Timer_Row_INIT_INTERRUPT_MODE);
  79              		.loc 1 161 0
  80 0046 4FF00000 		mov	r0, #0
  81 004a FFF7FEFF 		bl	Timer_Row_SetInterruptMode
 162:.\Generated_Source\PSoC5/Timer_Row.c **** }
  82              		.loc 1 162 0
  83 004e 07F10807 		add	r7, r7, #8
  84 0052 BD46     		mov	sp, r7
  85 0054 80BD     		pop	{r7, pc}
  86              		.cfi_endproc
  87              	.LFE0:
  88              		.size	Timer_Row_Init, .-Timer_Row_Init
  89 0056 00BF     		.section	.text.Timer_Row_Enable,"ax",%progbits
  90              		.align	2
  91              		.global	Timer_Row_Enable
  92              		.thumb
  93              		.thumb_func
  94              		.type	Timer_Row_Enable, %function
  95              	Timer_Row_Enable:
  96              	.LFB1:
 163:.\Generated_Source\PSoC5/Timer_Row.c **** 
 164:.\Generated_Source\PSoC5/Timer_Row.c **** 
 165:.\Generated_Source\PSoC5/Timer_Row.c **** /*******************************************************************************
 166:.\Generated_Source\PSoC5/Timer_Row.c **** * Function Name: Timer_Row_Enable
 167:.\Generated_Source\PSoC5/Timer_Row.c **** ********************************************************************************
 168:.\Generated_Source\PSoC5/Timer_Row.c **** *
 169:.\Generated_Source\PSoC5/Timer_Row.c **** * Summary:
 170:.\Generated_Source\PSoC5/Timer_Row.c **** *  Enable the Timer
 171:.\Generated_Source\PSoC5/Timer_Row.c **** *
 172:.\Generated_Source\PSoC5/Timer_Row.c **** * Parameters:
 173:.\Generated_Source\PSoC5/Timer_Row.c **** *  void
 174:.\Generated_Source\PSoC5/Timer_Row.c **** *
 175:.\Generated_Source\PSoC5/Timer_Row.c **** * Return:
 176:.\Generated_Source\PSoC5/Timer_Row.c **** *  void
 177:.\Generated_Source\PSoC5/Timer_Row.c **** *
 178:.\Generated_Source\PSoC5/Timer_Row.c **** *******************************************************************************/
 179:.\Generated_Source\PSoC5/Timer_Row.c **** void Timer_Row_Enable(void) 
 180:.\Generated_Source\PSoC5/Timer_Row.c **** {
  97              		.loc 1 180 0
  98              		.cfi_startproc
  99              		@ args = 0, pretend = 0, frame = 0
 100              		@ frame_needed = 1, uses_anonymous_args = 0
 101              		@ link register save eliminated.
ARM GAS  C:\Users\bccho\AppData\Local\Temp\cculH1na.s 			page 6


 102 0000 80B4     		push	{r7}
 103              	.LCFI3:
 104              		.cfi_def_cfa_offset 4
 105 0002 00AF     		add	r7, sp, #0
 106              		.cfi_offset 7, -4
 107              	.LCFI4:
 108              		.cfi_def_cfa_register 7
 181:.\Generated_Source\PSoC5/Timer_Row.c ****     /* Globally Enable the Fixed Function Block chosen */
 182:.\Generated_Source\PSoC5/Timer_Row.c ****     #if (Timer_Row_UsingFixedFunction)
 183:.\Generated_Source\PSoC5/Timer_Row.c ****         Timer_Row_GLOBAL_ENABLE |= Timer_Row_BLOCK_EN_MASK;
 184:.\Generated_Source\PSoC5/Timer_Row.c ****         Timer_Row_GLOBAL_STBY_ENABLE |= Timer_Row_BLOCK_STBY_EN_MASK;
 185:.\Generated_Source\PSoC5/Timer_Row.c ****     #endif /* Set Enable bit for enabling Fixed function timer*/
 186:.\Generated_Source\PSoC5/Timer_Row.c **** 
 187:.\Generated_Source\PSoC5/Timer_Row.c ****     /* Remove assignment if control register is removed */
 188:.\Generated_Source\PSoC5/Timer_Row.c ****     #if (!Timer_Row_ControlRegRemoved || Timer_Row_UsingFixedFunction)
 189:.\Generated_Source\PSoC5/Timer_Row.c ****         Timer_Row_CONTROL |= Timer_Row_CTRL_ENABLE;
 109              		.loc 1 189 0
 110 0004 46F27643 		movw	r3, #:lower16:1073767542
 111 0008 C4F20003 		movt	r3, #:upper16:1073767542
 112 000c 46F27642 		movw	r2, #:lower16:1073767542
 113 0010 C4F20002 		movt	r2, #:upper16:1073767542
 114 0014 1278     		ldrb	r2, [r2, #0]
 115 0016 D2B2     		uxtb	r2, r2
 116 0018 6FEA4262 		mvn	r2, r2, lsl #25
 117 001c 6FEA5262 		mvn	r2, r2, lsr #25
 118 0020 D2B2     		uxtb	r2, r2
 119 0022 1A70     		strb	r2, [r3, #0]
 190:.\Generated_Source\PSoC5/Timer_Row.c ****     #endif /* Remove assignment if control register is removed */
 191:.\Generated_Source\PSoC5/Timer_Row.c **** }
 120              		.loc 1 191 0
 121 0024 BD46     		mov	sp, r7
 122 0026 80BC     		pop	{r7}
 123 0028 7047     		bx	lr
 124              		.cfi_endproc
 125              	.LFE1:
 126              		.size	Timer_Row_Enable, .-Timer_Row_Enable
 127 002a 00BF     		.section	.text.Timer_Row_Start,"ax",%progbits
 128              		.align	2
 129              		.global	Timer_Row_Start
 130              		.thumb
 131              		.thumb_func
 132              		.type	Timer_Row_Start, %function
 133              	Timer_Row_Start:
 134              	.LFB2:
 192:.\Generated_Source\PSoC5/Timer_Row.c **** 
 193:.\Generated_Source\PSoC5/Timer_Row.c **** 
 194:.\Generated_Source\PSoC5/Timer_Row.c **** /*******************************************************************************
 195:.\Generated_Source\PSoC5/Timer_Row.c **** * Function Name: Timer_Row_Start
 196:.\Generated_Source\PSoC5/Timer_Row.c **** ********************************************************************************
 197:.\Generated_Source\PSoC5/Timer_Row.c **** *
 198:.\Generated_Source\PSoC5/Timer_Row.c **** * Summary:
 199:.\Generated_Source\PSoC5/Timer_Row.c **** *  The start function initializes the timer with the default values, the
 200:.\Generated_Source\PSoC5/Timer_Row.c **** *  enables the timerto begin counting.  It does not enable interrupts,
 201:.\Generated_Source\PSoC5/Timer_Row.c **** *  the EnableInt command should be called if interrupt generation is required.
 202:.\Generated_Source\PSoC5/Timer_Row.c **** *
 203:.\Generated_Source\PSoC5/Timer_Row.c **** * Parameters:
 204:.\Generated_Source\PSoC5/Timer_Row.c **** *  void
ARM GAS  C:\Users\bccho\AppData\Local\Temp\cculH1na.s 			page 7


 205:.\Generated_Source\PSoC5/Timer_Row.c **** *
 206:.\Generated_Source\PSoC5/Timer_Row.c **** * Return:
 207:.\Generated_Source\PSoC5/Timer_Row.c **** *  void
 208:.\Generated_Source\PSoC5/Timer_Row.c **** *
 209:.\Generated_Source\PSoC5/Timer_Row.c **** * Global variables:
 210:.\Generated_Source\PSoC5/Timer_Row.c **** *  Timer_Row_initVar: Is modified when this function is called for the
 211:.\Generated_Source\PSoC5/Timer_Row.c **** *   first time. Is used to ensure that initialization happens only once.
 212:.\Generated_Source\PSoC5/Timer_Row.c **** *
 213:.\Generated_Source\PSoC5/Timer_Row.c **** *******************************************************************************/
 214:.\Generated_Source\PSoC5/Timer_Row.c **** void Timer_Row_Start(void) 
 215:.\Generated_Source\PSoC5/Timer_Row.c **** {
 135              		.loc 1 215 0
 136              		.cfi_startproc
 137              		@ args = 0, pretend = 0, frame = 0
 138              		@ frame_needed = 1, uses_anonymous_args = 0
 139 0000 80B5     		push	{r7, lr}
 140              	.LCFI5:
 141              		.cfi_def_cfa_offset 8
 142 0002 00AF     		add	r7, sp, #0
 143              		.cfi_offset 14, -4
 144              		.cfi_offset 7, -8
 145              	.LCFI6:
 146              		.cfi_def_cfa_register 7
 216:.\Generated_Source\PSoC5/Timer_Row.c ****     if(Timer_Row_initVar == 0u)
 147              		.loc 1 216 0
 148 0004 40F20003 		movw	r3, #:lower16:Timer_Row_initVar
 149 0008 C0F20003 		movt	r3, #:upper16:Timer_Row_initVar
 150 000c 1B78     		ldrb	r3, [r3, #0]	@ zero_extendqisi2
 151 000e 002B     		cmp	r3, #0
 152 0010 08D1     		bne	.L6
 217:.\Generated_Source\PSoC5/Timer_Row.c ****     {
 218:.\Generated_Source\PSoC5/Timer_Row.c ****         Timer_Row_Init();
 153              		.loc 1 218 0
 154 0012 FFF7FEFF 		bl	Timer_Row_Init
 219:.\Generated_Source\PSoC5/Timer_Row.c **** 
 220:.\Generated_Source\PSoC5/Timer_Row.c ****         Timer_Row_initVar = 1u;   /* Clear this bit for Initialization */
 155              		.loc 1 220 0
 156 0016 40F20003 		movw	r3, #:lower16:Timer_Row_initVar
 157 001a C0F20003 		movt	r3, #:upper16:Timer_Row_initVar
 158 001e 4FF00102 		mov	r2, #1
 159 0022 1A70     		strb	r2, [r3, #0]
 160              	.L6:
 221:.\Generated_Source\PSoC5/Timer_Row.c ****     }
 222:.\Generated_Source\PSoC5/Timer_Row.c **** 
 223:.\Generated_Source\PSoC5/Timer_Row.c ****     /* Enable the Timer */
 224:.\Generated_Source\PSoC5/Timer_Row.c ****     Timer_Row_Enable();
 161              		.loc 1 224 0
 162 0024 FFF7FEFF 		bl	Timer_Row_Enable
 225:.\Generated_Source\PSoC5/Timer_Row.c **** }
 163              		.loc 1 225 0
 164 0028 80BD     		pop	{r7, pc}
 165              		.cfi_endproc
 166              	.LFE2:
 167              		.size	Timer_Row_Start, .-Timer_Row_Start
 168 002a 00BF     		.section	.text.Timer_Row_Stop,"ax",%progbits
 169              		.align	2
 170              		.global	Timer_Row_Stop
ARM GAS  C:\Users\bccho\AppData\Local\Temp\cculH1na.s 			page 8


 171              		.thumb
 172              		.thumb_func
 173              		.type	Timer_Row_Stop, %function
 174              	Timer_Row_Stop:
 175              	.LFB3:
 226:.\Generated_Source\PSoC5/Timer_Row.c **** 
 227:.\Generated_Source\PSoC5/Timer_Row.c **** 
 228:.\Generated_Source\PSoC5/Timer_Row.c **** /*******************************************************************************
 229:.\Generated_Source\PSoC5/Timer_Row.c **** * Function Name: Timer_Row_Stop
 230:.\Generated_Source\PSoC5/Timer_Row.c **** ********************************************************************************
 231:.\Generated_Source\PSoC5/Timer_Row.c **** *
 232:.\Generated_Source\PSoC5/Timer_Row.c **** * Summary:
 233:.\Generated_Source\PSoC5/Timer_Row.c **** *  The stop function halts the timer, but does not change any modes or disable
 234:.\Generated_Source\PSoC5/Timer_Row.c **** *  interrupts.
 235:.\Generated_Source\PSoC5/Timer_Row.c **** *
 236:.\Generated_Source\PSoC5/Timer_Row.c **** * Parameters:
 237:.\Generated_Source\PSoC5/Timer_Row.c **** *  void
 238:.\Generated_Source\PSoC5/Timer_Row.c **** *
 239:.\Generated_Source\PSoC5/Timer_Row.c **** * Return:
 240:.\Generated_Source\PSoC5/Timer_Row.c **** *  void
 241:.\Generated_Source\PSoC5/Timer_Row.c **** *
 242:.\Generated_Source\PSoC5/Timer_Row.c **** * Side Effects: If the Enable mode is set to Hardware only then this function
 243:.\Generated_Source\PSoC5/Timer_Row.c **** *               has no effect on the operation of the timer.
 244:.\Generated_Source\PSoC5/Timer_Row.c **** *
 245:.\Generated_Source\PSoC5/Timer_Row.c **** *******************************************************************************/
 246:.\Generated_Source\PSoC5/Timer_Row.c **** void Timer_Row_Stop(void) 
 247:.\Generated_Source\PSoC5/Timer_Row.c **** {
 176              		.loc 1 247 0
 177              		.cfi_startproc
 178              		@ args = 0, pretend = 0, frame = 0
 179              		@ frame_needed = 1, uses_anonymous_args = 0
 180              		@ link register save eliminated.
 181 0000 80B4     		push	{r7}
 182              	.LCFI7:
 183              		.cfi_def_cfa_offset 4
 184 0002 00AF     		add	r7, sp, #0
 185              		.cfi_offset 7, -4
 186              	.LCFI8:
 187              		.cfi_def_cfa_register 7
 248:.\Generated_Source\PSoC5/Timer_Row.c ****     /* Disable Timer */
 249:.\Generated_Source\PSoC5/Timer_Row.c ****     #if(!Timer_Row_ControlRegRemoved || Timer_Row_UsingFixedFunction)
 250:.\Generated_Source\PSoC5/Timer_Row.c ****         Timer_Row_CONTROL &= ~Timer_Row_CTRL_ENABLE;
 188              		.loc 1 250 0
 189 0004 46F27643 		movw	r3, #:lower16:1073767542
 190 0008 C4F20003 		movt	r3, #:upper16:1073767542
 191 000c 46F27642 		movw	r2, #:lower16:1073767542
 192 0010 C4F20002 		movt	r2, #:upper16:1073767542
 193 0014 1278     		ldrb	r2, [r2, #0]
 194 0016 D2B2     		uxtb	r2, r2
 195 0018 02F07F02 		and	r2, r2, #127
 196 001c 1A70     		strb	r2, [r3, #0]
 251:.\Generated_Source\PSoC5/Timer_Row.c ****     #endif /* Remove assignment if control register is removed */
 252:.\Generated_Source\PSoC5/Timer_Row.c **** 
 253:.\Generated_Source\PSoC5/Timer_Row.c ****     /* Globally disable the Fixed Function Block chosen */
 254:.\Generated_Source\PSoC5/Timer_Row.c ****     #if (Timer_Row_UsingFixedFunction)
 255:.\Generated_Source\PSoC5/Timer_Row.c ****         Timer_Row_GLOBAL_ENABLE &= ~Timer_Row_BLOCK_EN_MASK;
 256:.\Generated_Source\PSoC5/Timer_Row.c ****         Timer_Row_GLOBAL_STBY_ENABLE &= ~Timer_Row_BLOCK_STBY_EN_MASK;
ARM GAS  C:\Users\bccho\AppData\Local\Temp\cculH1na.s 			page 9


 257:.\Generated_Source\PSoC5/Timer_Row.c ****     #endif /* Disable global enable for the Timer Fixed function block to stop the Timer*/
 258:.\Generated_Source\PSoC5/Timer_Row.c **** }
 197              		.loc 1 258 0
 198 001e BD46     		mov	sp, r7
 199 0020 80BC     		pop	{r7}
 200 0022 7047     		bx	lr
 201              		.cfi_endproc
 202              	.LFE3:
 203              		.size	Timer_Row_Stop, .-Timer_Row_Stop
 204              		.section	.text.Timer_Row_SetInterruptMode,"ax",%progbits
 205              		.align	2
 206              		.global	Timer_Row_SetInterruptMode
 207              		.thumb
 208              		.thumb_func
 209              		.type	Timer_Row_SetInterruptMode, %function
 210              	Timer_Row_SetInterruptMode:
 211              	.LFB4:
 259:.\Generated_Source\PSoC5/Timer_Row.c **** 
 260:.\Generated_Source\PSoC5/Timer_Row.c **** 
 261:.\Generated_Source\PSoC5/Timer_Row.c **** /*******************************************************************************
 262:.\Generated_Source\PSoC5/Timer_Row.c **** * Function Name: Timer_Row_SetInterruptMode
 263:.\Generated_Source\PSoC5/Timer_Row.c **** ********************************************************************************
 264:.\Generated_Source\PSoC5/Timer_Row.c **** *
 265:.\Generated_Source\PSoC5/Timer_Row.c **** * Summary:
 266:.\Generated_Source\PSoC5/Timer_Row.c **** *  This function selects which of the interrupt inputs may cause an interrupt.
 267:.\Generated_Source\PSoC5/Timer_Row.c **** *  The twosources are caputure and terminal.  One, both or neither may
 268:.\Generated_Source\PSoC5/Timer_Row.c **** *  be selected.
 269:.\Generated_Source\PSoC5/Timer_Row.c **** *
 270:.\Generated_Source\PSoC5/Timer_Row.c **** * Parameters:
 271:.\Generated_Source\PSoC5/Timer_Row.c **** *  interruptMode:   This parameter is used to enable interrups on either/or
 272:.\Generated_Source\PSoC5/Timer_Row.c **** *                   terminal count or capture.
 273:.\Generated_Source\PSoC5/Timer_Row.c **** *
 274:.\Generated_Source\PSoC5/Timer_Row.c **** * Return:
 275:.\Generated_Source\PSoC5/Timer_Row.c **** *  void
 276:.\Generated_Source\PSoC5/Timer_Row.c **** *
 277:.\Generated_Source\PSoC5/Timer_Row.c **** *******************************************************************************/
 278:.\Generated_Source\PSoC5/Timer_Row.c **** void Timer_Row_SetInterruptMode(uint8 interruptMode) 
 279:.\Generated_Source\PSoC5/Timer_Row.c **** {
 212              		.loc 1 279 0
 213              		.cfi_startproc
 214              		@ args = 0, pretend = 0, frame = 8
 215              		@ frame_needed = 1, uses_anonymous_args = 0
 216              		@ link register save eliminated.
 217 0000 80B4     		push	{r7}
 218              	.LCFI9:
 219              		.cfi_def_cfa_offset 4
 220 0002 83B0     		sub	sp, sp, #12
 221              	.LCFI10:
 222              		.cfi_def_cfa_offset 16
 223 0004 00AF     		add	r7, sp, #0
 224              		.cfi_offset 7, -4
 225              	.LCFI11:
 226              		.cfi_def_cfa_register 7
 227 0006 0346     		mov	r3, r0
 228 0008 FB71     		strb	r3, [r7, #7]
 280:.\Generated_Source\PSoC5/Timer_Row.c ****     Timer_Row_STATUS_MASK = interruptMode;
 229              		.loc 1 280 0
ARM GAS  C:\Users\bccho\AppData\Local\Temp\cculH1na.s 			page 10


 230 000a 46F28243 		movw	r3, #:lower16:1073767554
 231 000e C4F20003 		movt	r3, #:upper16:1073767554
 232 0012 FA79     		ldrb	r2, [r7, #7]
 233 0014 1A70     		strb	r2, [r3, #0]
 281:.\Generated_Source\PSoC5/Timer_Row.c **** }
 234              		.loc 1 281 0
 235 0016 07F10C07 		add	r7, r7, #12
 236 001a BD46     		mov	sp, r7
 237 001c 80BC     		pop	{r7}
 238 001e 7047     		bx	lr
 239              		.cfi_endproc
 240              	.LFE4:
 241              		.size	Timer_Row_SetInterruptMode, .-Timer_Row_SetInterruptMode
 242              		.section	.text.Timer_Row_SoftwareCapture,"ax",%progbits
 243              		.align	2
 244              		.global	Timer_Row_SoftwareCapture
 245              		.thumb
 246              		.thumb_func
 247              		.type	Timer_Row_SoftwareCapture, %function
 248              	Timer_Row_SoftwareCapture:
 249              	.LFB5:
 282:.\Generated_Source\PSoC5/Timer_Row.c **** 
 283:.\Generated_Source\PSoC5/Timer_Row.c **** 
 284:.\Generated_Source\PSoC5/Timer_Row.c **** /*******************************************************************************
 285:.\Generated_Source\PSoC5/Timer_Row.c **** * Function Name: Timer_Row_SoftwareCapture
 286:.\Generated_Source\PSoC5/Timer_Row.c **** ********************************************************************************
 287:.\Generated_Source\PSoC5/Timer_Row.c **** *
 288:.\Generated_Source\PSoC5/Timer_Row.c **** * Summary:
 289:.\Generated_Source\PSoC5/Timer_Row.c **** *  This function forces a capture independent of the capture signal.
 290:.\Generated_Source\PSoC5/Timer_Row.c **** *
 291:.\Generated_Source\PSoC5/Timer_Row.c **** * Parameters:
 292:.\Generated_Source\PSoC5/Timer_Row.c **** *  void
 293:.\Generated_Source\PSoC5/Timer_Row.c **** *
 294:.\Generated_Source\PSoC5/Timer_Row.c **** * Return:
 295:.\Generated_Source\PSoC5/Timer_Row.c **** *  void
 296:.\Generated_Source\PSoC5/Timer_Row.c **** *
 297:.\Generated_Source\PSoC5/Timer_Row.c **** * Side Effects:
 298:.\Generated_Source\PSoC5/Timer_Row.c **** *  An existing hardware capture could be overwritten.
 299:.\Generated_Source\PSoC5/Timer_Row.c **** *
 300:.\Generated_Source\PSoC5/Timer_Row.c **** *******************************************************************************/
 301:.\Generated_Source\PSoC5/Timer_Row.c **** void Timer_Row_SoftwareCapture(void) 
 302:.\Generated_Source\PSoC5/Timer_Row.c **** {
 250              		.loc 1 302 0
 251              		.cfi_startproc
 252              		@ args = 0, pretend = 0, frame = 0
 253              		@ frame_needed = 1, uses_anonymous_args = 0
 254              		@ link register save eliminated.
 255 0000 80B4     		push	{r7}
 256              	.LCFI12:
 257              		.cfi_def_cfa_offset 4
 258 0002 00AF     		add	r7, sp, #0
 259              		.cfi_offset 7, -4
 260              	.LCFI13:
 261              		.cfi_def_cfa_register 7
 303:.\Generated_Source\PSoC5/Timer_Row.c ****     /* Generate a software capture by reading the counter register */
 304:.\Generated_Source\PSoC5/Timer_Row.c ****     CY_GET_REG8(Timer_Row_COUNTER_LSB_PTR);
 262              		.loc 1 304 0
ARM GAS  C:\Users\bccho\AppData\Local\Temp\cculH1na.s 			page 11


 263 0004 46F20443 		movw	r3, #:lower16:1073767428
 264 0008 C4F20003 		movt	r3, #:upper16:1073767428
 265 000c 1B78     		ldrb	r3, [r3, #0]
 305:.\Generated_Source\PSoC5/Timer_Row.c ****     /* Capture Data is now in the FIFO */
 306:.\Generated_Source\PSoC5/Timer_Row.c **** }
 266              		.loc 1 306 0
 267 000e BD46     		mov	sp, r7
 268 0010 80BC     		pop	{r7}
 269 0012 7047     		bx	lr
 270              		.cfi_endproc
 271              	.LFE5:
 272              		.size	Timer_Row_SoftwareCapture, .-Timer_Row_SoftwareCapture
 273              		.section	.text.Timer_Row_ReadStatusRegister,"ax",%progbits
 274              		.align	2
 275              		.global	Timer_Row_ReadStatusRegister
 276              		.thumb
 277              		.thumb_func
 278              		.type	Timer_Row_ReadStatusRegister, %function
 279              	Timer_Row_ReadStatusRegister:
 280              	.LFB6:
 307:.\Generated_Source\PSoC5/Timer_Row.c **** 
 308:.\Generated_Source\PSoC5/Timer_Row.c **** 
 309:.\Generated_Source\PSoC5/Timer_Row.c **** /*******************************************************************************
 310:.\Generated_Source\PSoC5/Timer_Row.c **** * Function Name: Timer_Row_ReadStatusRegister
 311:.\Generated_Source\PSoC5/Timer_Row.c **** ********************************************************************************
 312:.\Generated_Source\PSoC5/Timer_Row.c **** *
 313:.\Generated_Source\PSoC5/Timer_Row.c **** * Summary:
 314:.\Generated_Source\PSoC5/Timer_Row.c **** *  Reads the status register and returns it's state. This function should use
 315:.\Generated_Source\PSoC5/Timer_Row.c **** *  defined types for the bit-field information as the bits in this register may
 316:.\Generated_Source\PSoC5/Timer_Row.c **** *  be permuteable.
 317:.\Generated_Source\PSoC5/Timer_Row.c **** *
 318:.\Generated_Source\PSoC5/Timer_Row.c **** * Parameters:
 319:.\Generated_Source\PSoC5/Timer_Row.c **** *  void
 320:.\Generated_Source\PSoC5/Timer_Row.c **** *
 321:.\Generated_Source\PSoC5/Timer_Row.c **** * Return:
 322:.\Generated_Source\PSoC5/Timer_Row.c **** *  The contents of the status register
 323:.\Generated_Source\PSoC5/Timer_Row.c **** *
 324:.\Generated_Source\PSoC5/Timer_Row.c **** * Side Effects:
 325:.\Generated_Source\PSoC5/Timer_Row.c **** *  Status register bits may be clear on read.
 326:.\Generated_Source\PSoC5/Timer_Row.c **** *
 327:.\Generated_Source\PSoC5/Timer_Row.c **** *******************************************************************************/
 328:.\Generated_Source\PSoC5/Timer_Row.c **** uint8   Timer_Row_ReadStatusRegister(void) 
 329:.\Generated_Source\PSoC5/Timer_Row.c **** {
 281              		.loc 1 329 0
 282              		.cfi_startproc
 283              		@ args = 0, pretend = 0, frame = 0
 284              		@ frame_needed = 1, uses_anonymous_args = 0
 285              		@ link register save eliminated.
 286 0000 80B4     		push	{r7}
 287              	.LCFI14:
 288              		.cfi_def_cfa_offset 4
 289 0002 00AF     		add	r7, sp, #0
 290              		.cfi_offset 7, -4
 291              	.LCFI15:
 292              		.cfi_def_cfa_register 7
 330:.\Generated_Source\PSoC5/Timer_Row.c ****     return Timer_Row_STATUS;
 293              		.loc 1 330 0
ARM GAS  C:\Users\bccho\AppData\Local\Temp\cculH1na.s 			page 12


 294 0004 46F26243 		movw	r3, #:lower16:1073767522
 295 0008 C4F20003 		movt	r3, #:upper16:1073767522
 296 000c 1B78     		ldrb	r3, [r3, #0]
 297 000e DBB2     		uxtb	r3, r3
 331:.\Generated_Source\PSoC5/Timer_Row.c **** }
 298              		.loc 1 331 0
 299 0010 1846     		mov	r0, r3
 300 0012 BD46     		mov	sp, r7
 301 0014 80BC     		pop	{r7}
 302 0016 7047     		bx	lr
 303              		.cfi_endproc
 304              	.LFE6:
 305              		.size	Timer_Row_ReadStatusRegister, .-Timer_Row_ReadStatusRegister
 306              		.section	.text.Timer_Row_ReadControlRegister,"ax",%progbits
 307              		.align	2
 308              		.global	Timer_Row_ReadControlRegister
 309              		.thumb
 310              		.thumb_func
 311              		.type	Timer_Row_ReadControlRegister, %function
 312              	Timer_Row_ReadControlRegister:
 313              	.LFB7:
 332:.\Generated_Source\PSoC5/Timer_Row.c **** 
 333:.\Generated_Source\PSoC5/Timer_Row.c **** 
 334:.\Generated_Source\PSoC5/Timer_Row.c **** #if (!Timer_Row_ControlRegRemoved) /* Remove API if control register is removed */
 335:.\Generated_Source\PSoC5/Timer_Row.c **** 
 336:.\Generated_Source\PSoC5/Timer_Row.c **** 
 337:.\Generated_Source\PSoC5/Timer_Row.c **** /*******************************************************************************
 338:.\Generated_Source\PSoC5/Timer_Row.c **** * Function Name: Timer_Row_ReadControlRegister
 339:.\Generated_Source\PSoC5/Timer_Row.c **** ********************************************************************************
 340:.\Generated_Source\PSoC5/Timer_Row.c **** *
 341:.\Generated_Source\PSoC5/Timer_Row.c **** * Summary:
 342:.\Generated_Source\PSoC5/Timer_Row.c **** *  Reads the control register and returns it's value.
 343:.\Generated_Source\PSoC5/Timer_Row.c **** *
 344:.\Generated_Source\PSoC5/Timer_Row.c **** * Parameters:
 345:.\Generated_Source\PSoC5/Timer_Row.c **** *  void
 346:.\Generated_Source\PSoC5/Timer_Row.c **** *
 347:.\Generated_Source\PSoC5/Timer_Row.c **** * Return:
 348:.\Generated_Source\PSoC5/Timer_Row.c **** *  The contents of the control register
 349:.\Generated_Source\PSoC5/Timer_Row.c **** *
 350:.\Generated_Source\PSoC5/Timer_Row.c **** *******************************************************************************/
 351:.\Generated_Source\PSoC5/Timer_Row.c **** uint8 Timer_Row_ReadControlRegister(void) 
 352:.\Generated_Source\PSoC5/Timer_Row.c **** {
 314              		.loc 1 352 0
 315              		.cfi_startproc
 316              		@ args = 0, pretend = 0, frame = 0
 317              		@ frame_needed = 1, uses_anonymous_args = 0
 318              		@ link register save eliminated.
 319 0000 80B4     		push	{r7}
 320              	.LCFI16:
 321              		.cfi_def_cfa_offset 4
 322 0002 00AF     		add	r7, sp, #0
 323              		.cfi_offset 7, -4
 324              	.LCFI17:
 325              		.cfi_def_cfa_register 7
 353:.\Generated_Source\PSoC5/Timer_Row.c ****     return Timer_Row_CONTROL;
 326              		.loc 1 353 0
 327 0004 46F27643 		movw	r3, #:lower16:1073767542
ARM GAS  C:\Users\bccho\AppData\Local\Temp\cculH1na.s 			page 13


 328 0008 C4F20003 		movt	r3, #:upper16:1073767542
 329 000c 1B78     		ldrb	r3, [r3, #0]
 330 000e DBB2     		uxtb	r3, r3
 354:.\Generated_Source\PSoC5/Timer_Row.c **** }
 331              		.loc 1 354 0
 332 0010 1846     		mov	r0, r3
 333 0012 BD46     		mov	sp, r7
 334 0014 80BC     		pop	{r7}
 335 0016 7047     		bx	lr
 336              		.cfi_endproc
 337              	.LFE7:
 338              		.size	Timer_Row_ReadControlRegister, .-Timer_Row_ReadControlRegister
 339              		.section	.text.Timer_Row_WriteControlRegister,"ax",%progbits
 340              		.align	2
 341              		.global	Timer_Row_WriteControlRegister
 342              		.thumb
 343              		.thumb_func
 344              		.type	Timer_Row_WriteControlRegister, %function
 345              	Timer_Row_WriteControlRegister:
 346              	.LFB8:
 355:.\Generated_Source\PSoC5/Timer_Row.c **** 
 356:.\Generated_Source\PSoC5/Timer_Row.c **** 
 357:.\Generated_Source\PSoC5/Timer_Row.c **** /*******************************************************************************
 358:.\Generated_Source\PSoC5/Timer_Row.c **** * Function Name: Timer_Row_WriteControlRegister
 359:.\Generated_Source\PSoC5/Timer_Row.c **** ********************************************************************************
 360:.\Generated_Source\PSoC5/Timer_Row.c **** *
 361:.\Generated_Source\PSoC5/Timer_Row.c **** * Summary:
 362:.\Generated_Source\PSoC5/Timer_Row.c **** *  Sets the bit-field of the control register.
 363:.\Generated_Source\PSoC5/Timer_Row.c **** *
 364:.\Generated_Source\PSoC5/Timer_Row.c **** * Parameters:
 365:.\Generated_Source\PSoC5/Timer_Row.c **** *  control: The contents of the control register
 366:.\Generated_Source\PSoC5/Timer_Row.c **** *
 367:.\Generated_Source\PSoC5/Timer_Row.c **** * Return:
 368:.\Generated_Source\PSoC5/Timer_Row.c **** *
 369:.\Generated_Source\PSoC5/Timer_Row.c **** *******************************************************************************/
 370:.\Generated_Source\PSoC5/Timer_Row.c **** void Timer_Row_WriteControlRegister(uint8 control) 
 371:.\Generated_Source\PSoC5/Timer_Row.c **** {
 347              		.loc 1 371 0
 348              		.cfi_startproc
 349              		@ args = 0, pretend = 0, frame = 8
 350              		@ frame_needed = 1, uses_anonymous_args = 0
 351              		@ link register save eliminated.
 352 0000 80B4     		push	{r7}
 353              	.LCFI18:
 354              		.cfi_def_cfa_offset 4
 355 0002 83B0     		sub	sp, sp, #12
 356              	.LCFI19:
 357              		.cfi_def_cfa_offset 16
 358 0004 00AF     		add	r7, sp, #0
 359              		.cfi_offset 7, -4
 360              	.LCFI20:
 361              		.cfi_def_cfa_register 7
 362 0006 0346     		mov	r3, r0
 363 0008 FB71     		strb	r3, [r7, #7]
 372:.\Generated_Source\PSoC5/Timer_Row.c ****     Timer_Row_CONTROL = control;
 364              		.loc 1 372 0
 365 000a 46F27643 		movw	r3, #:lower16:1073767542
ARM GAS  C:\Users\bccho\AppData\Local\Temp\cculH1na.s 			page 14


 366 000e C4F20003 		movt	r3, #:upper16:1073767542
 367 0012 FA79     		ldrb	r2, [r7, #7]
 368 0014 1A70     		strb	r2, [r3, #0]
 373:.\Generated_Source\PSoC5/Timer_Row.c **** }
 369              		.loc 1 373 0
 370 0016 07F10C07 		add	r7, r7, #12
 371 001a BD46     		mov	sp, r7
 372 001c 80BC     		pop	{r7}
 373 001e 7047     		bx	lr
 374              		.cfi_endproc
 375              	.LFE8:
 376              		.size	Timer_Row_WriteControlRegister, .-Timer_Row_WriteControlRegister
 377              		.section	.text.Timer_Row_ReadPeriod,"ax",%progbits
 378              		.align	2
 379              		.global	Timer_Row_ReadPeriod
 380              		.thumb
 381              		.thumb_func
 382              		.type	Timer_Row_ReadPeriod, %function
 383              	Timer_Row_ReadPeriod:
 384              	.LFB9:
 374:.\Generated_Source\PSoC5/Timer_Row.c **** #endif /* Remove API if control register is removed */
 375:.\Generated_Source\PSoC5/Timer_Row.c **** 
 376:.\Generated_Source\PSoC5/Timer_Row.c **** 
 377:.\Generated_Source\PSoC5/Timer_Row.c **** /*******************************************************************************
 378:.\Generated_Source\PSoC5/Timer_Row.c **** * Function Name: Timer_Row_ReadPeriod
 379:.\Generated_Source\PSoC5/Timer_Row.c **** ********************************************************************************
 380:.\Generated_Source\PSoC5/Timer_Row.c **** *
 381:.\Generated_Source\PSoC5/Timer_Row.c **** * Summary:
 382:.\Generated_Source\PSoC5/Timer_Row.c **** *  This function returns the current value of the Period.
 383:.\Generated_Source\PSoC5/Timer_Row.c **** *
 384:.\Generated_Source\PSoC5/Timer_Row.c **** * Parameters:
 385:.\Generated_Source\PSoC5/Timer_Row.c **** *  void
 386:.\Generated_Source\PSoC5/Timer_Row.c **** *
 387:.\Generated_Source\PSoC5/Timer_Row.c **** * Return:
 388:.\Generated_Source\PSoC5/Timer_Row.c **** *  The present value of the counter.
 389:.\Generated_Source\PSoC5/Timer_Row.c **** *
 390:.\Generated_Source\PSoC5/Timer_Row.c **** *******************************************************************************/
 391:.\Generated_Source\PSoC5/Timer_Row.c **** uint16 Timer_Row_ReadPeriod(void) 
 392:.\Generated_Source\PSoC5/Timer_Row.c **** {
 385              		.loc 1 392 0
 386              		.cfi_startproc
 387              		@ args = 0, pretend = 0, frame = 0
 388              		@ frame_needed = 1, uses_anonymous_args = 0
 389              		@ link register save eliminated.
 390 0000 80B4     		push	{r7}
 391              	.LCFI21:
 392              		.cfi_def_cfa_offset 4
 393 0002 00AF     		add	r7, sp, #0
 394              		.cfi_offset 7, -4
 395              	.LCFI22:
 396              		.cfi_def_cfa_register 7
 393:.\Generated_Source\PSoC5/Timer_Row.c ****    return ( CY_GET_REG16(Timer_Row_PERIOD_LSB_PTR) );
 397              		.loc 1 393 0
 398 0004 46F22443 		movw	r3, #:lower16:1073767460
 399 0008 C4F20003 		movt	r3, #:upper16:1073767460
 400 000c 1B88     		ldrh	r3, [r3, #0]	@ movhi
 401 000e 9BB2     		uxth	r3, r3
ARM GAS  C:\Users\bccho\AppData\Local\Temp\cculH1na.s 			page 15


 394:.\Generated_Source\PSoC5/Timer_Row.c **** }
 402              		.loc 1 394 0
 403 0010 1846     		mov	r0, r3
 404 0012 BD46     		mov	sp, r7
 405 0014 80BC     		pop	{r7}
 406 0016 7047     		bx	lr
 407              		.cfi_endproc
 408              	.LFE9:
 409              		.size	Timer_Row_ReadPeriod, .-Timer_Row_ReadPeriod
 410              		.section	.text.Timer_Row_WritePeriod,"ax",%progbits
 411              		.align	2
 412              		.global	Timer_Row_WritePeriod
 413              		.thumb
 414              		.thumb_func
 415              		.type	Timer_Row_WritePeriod, %function
 416              	Timer_Row_WritePeriod:
 417              	.LFB10:
 395:.\Generated_Source\PSoC5/Timer_Row.c **** 
 396:.\Generated_Source\PSoC5/Timer_Row.c **** 
 397:.\Generated_Source\PSoC5/Timer_Row.c **** /*******************************************************************************
 398:.\Generated_Source\PSoC5/Timer_Row.c **** * Function Name: Timer_Row_WritePeriod
 399:.\Generated_Source\PSoC5/Timer_Row.c **** ********************************************************************************
 400:.\Generated_Source\PSoC5/Timer_Row.c **** *
 401:.\Generated_Source\PSoC5/Timer_Row.c **** * Summary:
 402:.\Generated_Source\PSoC5/Timer_Row.c **** *  This function is used to change the period of the counter.  The new period
 403:.\Generated_Source\PSoC5/Timer_Row.c **** *  will be loaded the next time terminal count is detected.
 404:.\Generated_Source\PSoC5/Timer_Row.c **** *
 405:.\Generated_Source\PSoC5/Timer_Row.c **** * Parameters:
 406:.\Generated_Source\PSoC5/Timer_Row.c **** *  period: This value may be between 1 and (2^Resolution)-1.  A value of 0 will
 407:.\Generated_Source\PSoC5/Timer_Row.c **** *          result in the counter remaining at zero.
 408:.\Generated_Source\PSoC5/Timer_Row.c **** *
 409:.\Generated_Source\PSoC5/Timer_Row.c **** * Return:
 410:.\Generated_Source\PSoC5/Timer_Row.c **** *  void
 411:.\Generated_Source\PSoC5/Timer_Row.c **** *
 412:.\Generated_Source\PSoC5/Timer_Row.c **** *******************************************************************************/
 413:.\Generated_Source\PSoC5/Timer_Row.c **** void Timer_Row_WritePeriod(uint16 period) 
 414:.\Generated_Source\PSoC5/Timer_Row.c **** {
 418              		.loc 1 414 0
 419              		.cfi_startproc
 420              		@ args = 0, pretend = 0, frame = 8
 421              		@ frame_needed = 1, uses_anonymous_args = 0
 422              		@ link register save eliminated.
 423 0000 80B4     		push	{r7}
 424              	.LCFI23:
 425              		.cfi_def_cfa_offset 4
 426 0002 83B0     		sub	sp, sp, #12
 427              	.LCFI24:
 428              		.cfi_def_cfa_offset 16
 429 0004 00AF     		add	r7, sp, #0
 430              		.cfi_offset 7, -4
 431              	.LCFI25:
 432              		.cfi_def_cfa_register 7
 433 0006 0346     		mov	r3, r0
 434 0008 FB80     		strh	r3, [r7, #6]	@ movhi
 415:.\Generated_Source\PSoC5/Timer_Row.c ****     #if(Timer_Row_UsingFixedFunction)
 416:.\Generated_Source\PSoC5/Timer_Row.c ****         uint16 period_temp = (uint16)period;
 417:.\Generated_Source\PSoC5/Timer_Row.c ****         CY_SET_REG16(Timer_Row_PERIOD_LSB_PTR, period_temp);
ARM GAS  C:\Users\bccho\AppData\Local\Temp\cculH1na.s 			page 16


 418:.\Generated_Source\PSoC5/Timer_Row.c ****     #else
 419:.\Generated_Source\PSoC5/Timer_Row.c ****         CY_SET_REG16(Timer_Row_PERIOD_LSB_PTR, period);
 435              		.loc 1 419 0
 436 000a 46F22443 		movw	r3, #:lower16:1073767460
 437 000e C4F20003 		movt	r3, #:upper16:1073767460
 438 0012 FA88     		ldrh	r2, [r7, #6]	@ movhi
 439 0014 1A80     		strh	r2, [r3, #0]	@ movhi
 420:.\Generated_Source\PSoC5/Timer_Row.c ****     #endif /*Write Period value with appropriate resolution suffix depending on UDB or fixed functi
 421:.\Generated_Source\PSoC5/Timer_Row.c **** }
 440              		.loc 1 421 0
 441 0016 07F10C07 		add	r7, r7, #12
 442 001a BD46     		mov	sp, r7
 443 001c 80BC     		pop	{r7}
 444 001e 7047     		bx	lr
 445              		.cfi_endproc
 446              	.LFE10:
 447              		.size	Timer_Row_WritePeriod, .-Timer_Row_WritePeriod
 448              		.section	.text.Timer_Row_ReadCapture,"ax",%progbits
 449              		.align	2
 450              		.global	Timer_Row_ReadCapture
 451              		.thumb
 452              		.thumb_func
 453              		.type	Timer_Row_ReadCapture, %function
 454              	Timer_Row_ReadCapture:
 455              	.LFB11:
 422:.\Generated_Source\PSoC5/Timer_Row.c **** 
 423:.\Generated_Source\PSoC5/Timer_Row.c **** 
 424:.\Generated_Source\PSoC5/Timer_Row.c **** /*******************************************************************************
 425:.\Generated_Source\PSoC5/Timer_Row.c **** * Function Name: Timer_Row_ReadCapture
 426:.\Generated_Source\PSoC5/Timer_Row.c **** ********************************************************************************
 427:.\Generated_Source\PSoC5/Timer_Row.c **** *
 428:.\Generated_Source\PSoC5/Timer_Row.c **** * Summary:
 429:.\Generated_Source\PSoC5/Timer_Row.c **** *  This function returns the last value captured.
 430:.\Generated_Source\PSoC5/Timer_Row.c **** *
 431:.\Generated_Source\PSoC5/Timer_Row.c **** * Parameters:
 432:.\Generated_Source\PSoC5/Timer_Row.c **** *  void
 433:.\Generated_Source\PSoC5/Timer_Row.c **** *
 434:.\Generated_Source\PSoC5/Timer_Row.c **** * Return:
 435:.\Generated_Source\PSoC5/Timer_Row.c **** *  Present Capture value.
 436:.\Generated_Source\PSoC5/Timer_Row.c **** *
 437:.\Generated_Source\PSoC5/Timer_Row.c **** *******************************************************************************/
 438:.\Generated_Source\PSoC5/Timer_Row.c **** uint16 Timer_Row_ReadCapture(void) 
 439:.\Generated_Source\PSoC5/Timer_Row.c **** {
 456              		.loc 1 439 0
 457              		.cfi_startproc
 458              		@ args = 0, pretend = 0, frame = 0
 459              		@ frame_needed = 1, uses_anonymous_args = 0
 460              		@ link register save eliminated.
 461 0000 80B4     		push	{r7}
 462              	.LCFI26:
 463              		.cfi_def_cfa_offset 4
 464 0002 00AF     		add	r7, sp, #0
 465              		.cfi_offset 7, -4
 466              	.LCFI27:
 467              		.cfi_def_cfa_register 7
 440:.\Generated_Source\PSoC5/Timer_Row.c ****    return ( CY_GET_REG16(Timer_Row_CAPTURE_LSB_PTR) );
 468              		.loc 1 440 0
ARM GAS  C:\Users\bccho\AppData\Local\Temp\cculH1na.s 			page 17


 469 0004 46F24443 		movw	r3, #:lower16:1073767492
 470 0008 C4F20003 		movt	r3, #:upper16:1073767492
 471 000c 1B88     		ldrh	r3, [r3, #0]	@ movhi
 472 000e 9BB2     		uxth	r3, r3
 441:.\Generated_Source\PSoC5/Timer_Row.c **** }
 473              		.loc 1 441 0
 474 0010 1846     		mov	r0, r3
 475 0012 BD46     		mov	sp, r7
 476 0014 80BC     		pop	{r7}
 477 0016 7047     		bx	lr
 478              		.cfi_endproc
 479              	.LFE11:
 480              		.size	Timer_Row_ReadCapture, .-Timer_Row_ReadCapture
 481              		.section	.text.Timer_Row_WriteCounter,"ax",%progbits
 482              		.align	2
 483              		.global	Timer_Row_WriteCounter
 484              		.thumb
 485              		.thumb_func
 486              		.type	Timer_Row_WriteCounter, %function
 487              	Timer_Row_WriteCounter:
 488              	.LFB12:
 442:.\Generated_Source\PSoC5/Timer_Row.c **** 
 443:.\Generated_Source\PSoC5/Timer_Row.c **** 
 444:.\Generated_Source\PSoC5/Timer_Row.c **** /*******************************************************************************
 445:.\Generated_Source\PSoC5/Timer_Row.c **** * Function Name: Timer_Row_WriteCounter
 446:.\Generated_Source\PSoC5/Timer_Row.c **** ********************************************************************************
 447:.\Generated_Source\PSoC5/Timer_Row.c **** *
 448:.\Generated_Source\PSoC5/Timer_Row.c **** * Summary:
 449:.\Generated_Source\PSoC5/Timer_Row.c **** *  This funtion is used to set the counter to a specific value
 450:.\Generated_Source\PSoC5/Timer_Row.c **** *
 451:.\Generated_Source\PSoC5/Timer_Row.c **** * Parameters:
 452:.\Generated_Source\PSoC5/Timer_Row.c **** *  counter:  New counter value.
 453:.\Generated_Source\PSoC5/Timer_Row.c **** *
 454:.\Generated_Source\PSoC5/Timer_Row.c **** * Return:
 455:.\Generated_Source\PSoC5/Timer_Row.c **** *  void
 456:.\Generated_Source\PSoC5/Timer_Row.c **** *
 457:.\Generated_Source\PSoC5/Timer_Row.c **** *******************************************************************************/
 458:.\Generated_Source\PSoC5/Timer_Row.c **** void Timer_Row_WriteCounter(uint16 counter) \
 459:.\Generated_Source\PSoC5/Timer_Row.c ****                                    
 460:.\Generated_Source\PSoC5/Timer_Row.c **** {
 489              		.loc 1 460 0
 490              		.cfi_startproc
 491              		@ args = 0, pretend = 0, frame = 8
 492              		@ frame_needed = 1, uses_anonymous_args = 0
 493              		@ link register save eliminated.
 494 0000 80B4     		push	{r7}
 495              	.LCFI28:
 496              		.cfi_def_cfa_offset 4
 497 0002 83B0     		sub	sp, sp, #12
 498              	.LCFI29:
 499              		.cfi_def_cfa_offset 16
 500 0004 00AF     		add	r7, sp, #0
 501              		.cfi_offset 7, -4
 502              	.LCFI30:
 503              		.cfi_def_cfa_register 7
 504 0006 0346     		mov	r3, r0
 505 0008 FB80     		strh	r3, [r7, #6]	@ movhi
ARM GAS  C:\Users\bccho\AppData\Local\Temp\cculH1na.s 			page 18


 461:.\Generated_Source\PSoC5/Timer_Row.c ****    #if(Timer_Row_UsingFixedFunction)
 462:.\Generated_Source\PSoC5/Timer_Row.c ****         counter = counter;
 463:.\Generated_Source\PSoC5/Timer_Row.c ****         /* This functionality is removed until a FixedFunction HW update to
 464:.\Generated_Source\PSoC5/Timer_Row.c ****          * allow this register to be written
 465:.\Generated_Source\PSoC5/Timer_Row.c ****          */
 466:.\Generated_Source\PSoC5/Timer_Row.c ****         /* uint16 counter_temp = (uint16)counter;
 467:.\Generated_Source\PSoC5/Timer_Row.c ****          * CY_SET_REG16(Timer_Row_COUNTER_LSB_PTR, counter_temp);
 468:.\Generated_Source\PSoC5/Timer_Row.c ****          */
 469:.\Generated_Source\PSoC5/Timer_Row.c ****     #else
 470:.\Generated_Source\PSoC5/Timer_Row.c ****         CY_SET_REG16(Timer_Row_COUNTER_LSB_PTR, counter);
 506              		.loc 1 470 0
 507 000a 46F20443 		movw	r3, #:lower16:1073767428
 508 000e C4F20003 		movt	r3, #:upper16:1073767428
 509 0012 FA88     		ldrh	r2, [r7, #6]	@ movhi
 510 0014 1A80     		strh	r2, [r3, #0]	@ movhi
 471:.\Generated_Source\PSoC5/Timer_Row.c ****     #endif /* Set Write Counter only for the UDB implementation (Write Counter not available in fix
 472:.\Generated_Source\PSoC5/Timer_Row.c **** }
 511              		.loc 1 472 0
 512 0016 07F10C07 		add	r7, r7, #12
 513 001a BD46     		mov	sp, r7
 514 001c 80BC     		pop	{r7}
 515 001e 7047     		bx	lr
 516              		.cfi_endproc
 517              	.LFE12:
 518              		.size	Timer_Row_WriteCounter, .-Timer_Row_WriteCounter
 519              		.section	.text.Timer_Row_ReadCounter,"ax",%progbits
 520              		.align	2
 521              		.global	Timer_Row_ReadCounter
 522              		.thumb
 523              		.thumb_func
 524              		.type	Timer_Row_ReadCounter, %function
 525              	Timer_Row_ReadCounter:
 526              	.LFB13:
 473:.\Generated_Source\PSoC5/Timer_Row.c **** 
 474:.\Generated_Source\PSoC5/Timer_Row.c **** 
 475:.\Generated_Source\PSoC5/Timer_Row.c **** /*******************************************************************************
 476:.\Generated_Source\PSoC5/Timer_Row.c **** * Function Name: Timer_Row_ReadCounter
 477:.\Generated_Source\PSoC5/Timer_Row.c **** ********************************************************************************
 478:.\Generated_Source\PSoC5/Timer_Row.c **** *
 479:.\Generated_Source\PSoC5/Timer_Row.c **** * Summary:
 480:.\Generated_Source\PSoC5/Timer_Row.c **** *  This function returns the current counter value.
 481:.\Generated_Source\PSoC5/Timer_Row.c **** *
 482:.\Generated_Source\PSoC5/Timer_Row.c **** * Parameters:
 483:.\Generated_Source\PSoC5/Timer_Row.c **** *  void
 484:.\Generated_Source\PSoC5/Timer_Row.c **** *
 485:.\Generated_Source\PSoC5/Timer_Row.c **** * Return:
 486:.\Generated_Source\PSoC5/Timer_Row.c **** *  Present compare value.
 487:.\Generated_Source\PSoC5/Timer_Row.c **** *
 488:.\Generated_Source\PSoC5/Timer_Row.c **** *******************************************************************************/
 489:.\Generated_Source\PSoC5/Timer_Row.c **** uint16 Timer_Row_ReadCounter(void) 
 490:.\Generated_Source\PSoC5/Timer_Row.c **** {
 527              		.loc 1 490 0
 528              		.cfi_startproc
 529              		@ args = 0, pretend = 0, frame = 0
 530              		@ frame_needed = 1, uses_anonymous_args = 0
 531              		@ link register save eliminated.
 532 0000 80B4     		push	{r7}
ARM GAS  C:\Users\bccho\AppData\Local\Temp\cculH1na.s 			page 19


 533              	.LCFI31:
 534              		.cfi_def_cfa_offset 4
 535 0002 00AF     		add	r7, sp, #0
 536              		.cfi_offset 7, -4
 537              	.LCFI32:
 538              		.cfi_def_cfa_register 7
 491:.\Generated_Source\PSoC5/Timer_Row.c **** 
 492:.\Generated_Source\PSoC5/Timer_Row.c ****     /* Force capture by reading Accumulator */
 493:.\Generated_Source\PSoC5/Timer_Row.c ****     /* Must first do a software capture to be able to read the counter */
 494:.\Generated_Source\PSoC5/Timer_Row.c ****     /* It is up to the user code to make sure there isn't already captured data in the FIFO */
 495:.\Generated_Source\PSoC5/Timer_Row.c ****     CY_GET_REG8(Timer_Row_COUNTER_LSB_PTR);
 539              		.loc 1 495 0
 540 0004 46F20443 		movw	r3, #:lower16:1073767428
 541 0008 C4F20003 		movt	r3, #:upper16:1073767428
 542 000c 1B78     		ldrb	r3, [r3, #0]
 496:.\Generated_Source\PSoC5/Timer_Row.c **** 
 497:.\Generated_Source\PSoC5/Timer_Row.c ****     /* Read the data from the FIFO (or capture register for Fixed Function)*/
 498:.\Generated_Source\PSoC5/Timer_Row.c ****     return (CY_GET_REG16(Timer_Row_CAPTURE_LSB_PTR));
 543              		.loc 1 498 0
 544 000e 46F24443 		movw	r3, #:lower16:1073767492
 545 0012 C4F20003 		movt	r3, #:upper16:1073767492
 546 0016 1B88     		ldrh	r3, [r3, #0]	@ movhi
 547 0018 9BB2     		uxth	r3, r3
 499:.\Generated_Source\PSoC5/Timer_Row.c **** }
 548              		.loc 1 499 0
 549 001a 1846     		mov	r0, r3
 550 001c BD46     		mov	sp, r7
 551 001e 80BC     		pop	{r7}
 552 0020 7047     		bx	lr
 553              		.cfi_endproc
 554              	.LFE13:
 555              		.size	Timer_Row_ReadCounter, .-Timer_Row_ReadCounter
 556 0022 00BF     		.section	.text.Timer_Row_ClearFIFO,"ax",%progbits
 557              		.align	2
 558              		.global	Timer_Row_ClearFIFO
 559              		.thumb
 560              		.thumb_func
 561              		.type	Timer_Row_ClearFIFO, %function
 562              	Timer_Row_ClearFIFO:
 563              	.LFB14:
 500:.\Generated_Source\PSoC5/Timer_Row.c **** 
 501:.\Generated_Source\PSoC5/Timer_Row.c **** 
 502:.\Generated_Source\PSoC5/Timer_Row.c **** #if(!Timer_Row_UsingFixedFunction) /* UDB Specific Functions */
 503:.\Generated_Source\PSoC5/Timer_Row.c **** 
 504:.\Generated_Source\PSoC5/Timer_Row.c **** /*******************************************************************************
 505:.\Generated_Source\PSoC5/Timer_Row.c ****  * The functions below this point are only available using the UDB
 506:.\Generated_Source\PSoC5/Timer_Row.c ****  * implementation.  If a feature is selected, then the API is enabled.
 507:.\Generated_Source\PSoC5/Timer_Row.c ****  ******************************************************************************/
 508:.\Generated_Source\PSoC5/Timer_Row.c **** 
 509:.\Generated_Source\PSoC5/Timer_Row.c **** 
 510:.\Generated_Source\PSoC5/Timer_Row.c **** #if (Timer_Row_SoftwareCaptureMode)
 511:.\Generated_Source\PSoC5/Timer_Row.c **** 
 512:.\Generated_Source\PSoC5/Timer_Row.c **** 
 513:.\Generated_Source\PSoC5/Timer_Row.c **** /*******************************************************************************
 514:.\Generated_Source\PSoC5/Timer_Row.c **** * Function Name: Timer_Row_SetCaptureMode
 515:.\Generated_Source\PSoC5/Timer_Row.c **** ********************************************************************************
 516:.\Generated_Source\PSoC5/Timer_Row.c **** *
ARM GAS  C:\Users\bccho\AppData\Local\Temp\cculH1na.s 			page 20


 517:.\Generated_Source\PSoC5/Timer_Row.c **** * Summary:
 518:.\Generated_Source\PSoC5/Timer_Row.c **** *  This function sets the capture mode to either rising or falling edge.
 519:.\Generated_Source\PSoC5/Timer_Row.c **** *
 520:.\Generated_Source\PSoC5/Timer_Row.c **** * Parameters:
 521:.\Generated_Source\PSoC5/Timer_Row.c **** *  captureMode: This parameter sets the capture mode of the UDB capture feature
 522:.\Generated_Source\PSoC5/Timer_Row.c **** *  The parameter values are defined using the
 523:.\Generated_Source\PSoC5/Timer_Row.c **** *  #define Timer_Row__B_TIMER__CM_NONE 0
 524:.\Generated_Source\PSoC5/Timer_Row.c **** #define Timer_Row__B_TIMER__CM_RISINGEDGE 1
 525:.\Generated_Source\PSoC5/Timer_Row.c **** #define Timer_Row__B_TIMER__CM_FALLINGEDGE 2
 526:.\Generated_Source\PSoC5/Timer_Row.c **** #define Timer_Row__B_TIMER__CM_EITHEREDGE 3
 527:.\Generated_Source\PSoC5/Timer_Row.c **** #define Timer_Row__B_TIMER__CM_SOFTWARE 4
 528:.\Generated_Source\PSoC5/Timer_Row.c ****  identifiers
 529:.\Generated_Source\PSoC5/Timer_Row.c **** *  The following are the possible values of the parameter
 530:.\Generated_Source\PSoC5/Timer_Row.c **** *  Timer_Row__B_TIMER__CM_NONE        - Set Capture mode to None
 531:.\Generated_Source\PSoC5/Timer_Row.c **** *  Timer_Row__B_TIMER__CM_RISINGEDGE  - Rising edge of Capture input
 532:.\Generated_Source\PSoC5/Timer_Row.c **** *  Timer_Row__B_TIMER__CM_FALLINGEDGE - Falling edge of Capture input
 533:.\Generated_Source\PSoC5/Timer_Row.c **** *  Timer_Row__B_TIMER__CM_EITHEREDGE  - Either edge of Capture input
 534:.\Generated_Source\PSoC5/Timer_Row.c **** *
 535:.\Generated_Source\PSoC5/Timer_Row.c **** * Return:
 536:.\Generated_Source\PSoC5/Timer_Row.c **** *  void
 537:.\Generated_Source\PSoC5/Timer_Row.c **** *
 538:.\Generated_Source\PSoC5/Timer_Row.c **** *******************************************************************************/
 539:.\Generated_Source\PSoC5/Timer_Row.c **** void Timer_Row_SetCaptureMode(uint8 captureMode) 
 540:.\Generated_Source\PSoC5/Timer_Row.c **** {
 541:.\Generated_Source\PSoC5/Timer_Row.c ****     /* This must only set to two bits of the control register associated */
 542:.\Generated_Source\PSoC5/Timer_Row.c ****     captureMode = (captureMode << Timer_Row_CTRL_CAP_MODE_SHIFT);
 543:.\Generated_Source\PSoC5/Timer_Row.c ****     captureMode &= (Timer_Row_CTRL_CAP_MODE_MASK);
 544:.\Generated_Source\PSoC5/Timer_Row.c **** 
 545:.\Generated_Source\PSoC5/Timer_Row.c ****     /* Clear the Current Setting */
 546:.\Generated_Source\PSoC5/Timer_Row.c ****     Timer_Row_CONTROL &= ~Timer_Row_CTRL_CAP_MODE_MASK;
 547:.\Generated_Source\PSoC5/Timer_Row.c **** 
 548:.\Generated_Source\PSoC5/Timer_Row.c ****     /* Write The New Setting */
 549:.\Generated_Source\PSoC5/Timer_Row.c ****     Timer_Row_CONTROL |= captureMode;
 550:.\Generated_Source\PSoC5/Timer_Row.c **** }
 551:.\Generated_Source\PSoC5/Timer_Row.c **** #endif /* Remove API if Capture Mode is not Software Controlled */
 552:.\Generated_Source\PSoC5/Timer_Row.c **** 
 553:.\Generated_Source\PSoC5/Timer_Row.c **** 
 554:.\Generated_Source\PSoC5/Timer_Row.c **** #if (Timer_Row_SoftwareTriggerMode)
 555:.\Generated_Source\PSoC5/Timer_Row.c **** 
 556:.\Generated_Source\PSoC5/Timer_Row.c **** 
 557:.\Generated_Source\PSoC5/Timer_Row.c **** /*******************************************************************************
 558:.\Generated_Source\PSoC5/Timer_Row.c **** * Function Name: Timer_Row_SetTriggerMode
 559:.\Generated_Source\PSoC5/Timer_Row.c **** ********************************************************************************
 560:.\Generated_Source\PSoC5/Timer_Row.c **** *
 561:.\Generated_Source\PSoC5/Timer_Row.c **** * Summary:
 562:.\Generated_Source\PSoC5/Timer_Row.c **** *  This function sets the trigger input mode
 563:.\Generated_Source\PSoC5/Timer_Row.c **** *
 564:.\Generated_Source\PSoC5/Timer_Row.c **** * Parameters:
 565:.\Generated_Source\PSoC5/Timer_Row.c **** *  triggerMode: Pass one of the pre-defined Trigger Modes (except Software)
 566:.\Generated_Source\PSoC5/Timer_Row.c ****     #define Timer_Row__B_TIMER__TM_NONE 0x00u
 567:.\Generated_Source\PSoC5/Timer_Row.c ****     #define Timer_Row__B_TIMER__TM_RISINGEDGE 0x04u
 568:.\Generated_Source\PSoC5/Timer_Row.c ****     #define Timer_Row__B_TIMER__TM_FALLINGEDGE 0x08u
 569:.\Generated_Source\PSoC5/Timer_Row.c ****     #define Timer_Row__B_TIMER__TM_EITHEREDGE 0x0Cu
 570:.\Generated_Source\PSoC5/Timer_Row.c ****     #define Timer_Row__B_TIMER__TM_SOFTWARE 0x10u
 571:.\Generated_Source\PSoC5/Timer_Row.c **** *
 572:.\Generated_Source\PSoC5/Timer_Row.c **** * Return:
 573:.\Generated_Source\PSoC5/Timer_Row.c **** *  void
ARM GAS  C:\Users\bccho\AppData\Local\Temp\cculH1na.s 			page 21


 574:.\Generated_Source\PSoC5/Timer_Row.c **** *
 575:.\Generated_Source\PSoC5/Timer_Row.c **** *******************************************************************************/
 576:.\Generated_Source\PSoC5/Timer_Row.c **** void Timer_Row_SetTriggerMode(uint8 triggerMode) 
 577:.\Generated_Source\PSoC5/Timer_Row.c **** {
 578:.\Generated_Source\PSoC5/Timer_Row.c ****     /* This must only set to two bits of the control register associated */
 579:.\Generated_Source\PSoC5/Timer_Row.c ****     triggerMode &= Timer_Row_CTRL_TRIG_MODE_MASK;
 580:.\Generated_Source\PSoC5/Timer_Row.c **** 
 581:.\Generated_Source\PSoC5/Timer_Row.c ****     /* Clear the Current Setting */
 582:.\Generated_Source\PSoC5/Timer_Row.c ****     Timer_Row_CONTROL &= ~Timer_Row_CTRL_TRIG_MODE_MASK;
 583:.\Generated_Source\PSoC5/Timer_Row.c **** 
 584:.\Generated_Source\PSoC5/Timer_Row.c ****     /* Write The New Setting */
 585:.\Generated_Source\PSoC5/Timer_Row.c ****     Timer_Row_CONTROL |= (triggerMode | Timer_Row__B_TIMER__TM_SOFTWARE);
 586:.\Generated_Source\PSoC5/Timer_Row.c **** 
 587:.\Generated_Source\PSoC5/Timer_Row.c **** }
 588:.\Generated_Source\PSoC5/Timer_Row.c **** #endif /* Remove API if Trigger Mode is not Software Controlled */
 589:.\Generated_Source\PSoC5/Timer_Row.c **** 
 590:.\Generated_Source\PSoC5/Timer_Row.c **** #if (Timer_Row_EnableTriggerMode)
 591:.\Generated_Source\PSoC5/Timer_Row.c **** 
 592:.\Generated_Source\PSoC5/Timer_Row.c **** 
 593:.\Generated_Source\PSoC5/Timer_Row.c **** /*******************************************************************************
 594:.\Generated_Source\PSoC5/Timer_Row.c **** * Function Name: Timer_Row_EnableTrigger
 595:.\Generated_Source\PSoC5/Timer_Row.c **** ********************************************************************************
 596:.\Generated_Source\PSoC5/Timer_Row.c **** *
 597:.\Generated_Source\PSoC5/Timer_Row.c **** * Summary:
 598:.\Generated_Source\PSoC5/Timer_Row.c **** *  Sets the control bit enabling Hardware Trigger mode
 599:.\Generated_Source\PSoC5/Timer_Row.c **** *
 600:.\Generated_Source\PSoC5/Timer_Row.c **** * Parameters:
 601:.\Generated_Source\PSoC5/Timer_Row.c **** *  void
 602:.\Generated_Source\PSoC5/Timer_Row.c **** *
 603:.\Generated_Source\PSoC5/Timer_Row.c **** * Return:
 604:.\Generated_Source\PSoC5/Timer_Row.c **** *  void
 605:.\Generated_Source\PSoC5/Timer_Row.c **** *
 606:.\Generated_Source\PSoC5/Timer_Row.c **** *******************************************************************************/
 607:.\Generated_Source\PSoC5/Timer_Row.c **** void Timer_Row_EnableTrigger(void) 
 608:.\Generated_Source\PSoC5/Timer_Row.c **** {
 609:.\Generated_Source\PSoC5/Timer_Row.c ****     #if (!Timer_Row_ControlRegRemoved)   /* Remove assignment if control register is removed */
 610:.\Generated_Source\PSoC5/Timer_Row.c ****         Timer_Row_CONTROL |= Timer_Row_CTRL_TRIG_EN;
 611:.\Generated_Source\PSoC5/Timer_Row.c ****     #endif /* Remove code section if control register is not used */
 612:.\Generated_Source\PSoC5/Timer_Row.c **** }
 613:.\Generated_Source\PSoC5/Timer_Row.c **** 
 614:.\Generated_Source\PSoC5/Timer_Row.c **** 
 615:.\Generated_Source\PSoC5/Timer_Row.c **** /*******************************************************************************
 616:.\Generated_Source\PSoC5/Timer_Row.c **** * Function Name: Timer_Row_DisableTrigger
 617:.\Generated_Source\PSoC5/Timer_Row.c **** ********************************************************************************
 618:.\Generated_Source\PSoC5/Timer_Row.c **** *
 619:.\Generated_Source\PSoC5/Timer_Row.c **** * Summary:
 620:.\Generated_Source\PSoC5/Timer_Row.c **** *  Clears the control bit enabling Hardware Trigger mode
 621:.\Generated_Source\PSoC5/Timer_Row.c **** *
 622:.\Generated_Source\PSoC5/Timer_Row.c **** * Parameters:
 623:.\Generated_Source\PSoC5/Timer_Row.c **** *  void
 624:.\Generated_Source\PSoC5/Timer_Row.c **** *
 625:.\Generated_Source\PSoC5/Timer_Row.c **** * Return:
 626:.\Generated_Source\PSoC5/Timer_Row.c **** *  void
 627:.\Generated_Source\PSoC5/Timer_Row.c **** *
 628:.\Generated_Source\PSoC5/Timer_Row.c **** *******************************************************************************/
 629:.\Generated_Source\PSoC5/Timer_Row.c **** void Timer_Row_DisableTrigger(void) 
 630:.\Generated_Source\PSoC5/Timer_Row.c **** {
ARM GAS  C:\Users\bccho\AppData\Local\Temp\cculH1na.s 			page 22


 631:.\Generated_Source\PSoC5/Timer_Row.c ****     #if (!Timer_Row_ControlRegRemoved)   /* Remove assignment if control register is removed */
 632:.\Generated_Source\PSoC5/Timer_Row.c ****         Timer_Row_CONTROL &= ~Timer_Row_CTRL_TRIG_EN;
 633:.\Generated_Source\PSoC5/Timer_Row.c ****     #endif /* Remove code section if control register is not used */
 634:.\Generated_Source\PSoC5/Timer_Row.c **** }
 635:.\Generated_Source\PSoC5/Timer_Row.c **** #endif /* Remove API is Trigger Mode is set to None */
 636:.\Generated_Source\PSoC5/Timer_Row.c **** 
 637:.\Generated_Source\PSoC5/Timer_Row.c **** 
 638:.\Generated_Source\PSoC5/Timer_Row.c **** #if(Timer_Row_InterruptOnCaptureCount)
 639:.\Generated_Source\PSoC5/Timer_Row.c **** #if (!Timer_Row_ControlRegRemoved)   /* Remove API if control register is removed */
 640:.\Generated_Source\PSoC5/Timer_Row.c **** 
 641:.\Generated_Source\PSoC5/Timer_Row.c **** 
 642:.\Generated_Source\PSoC5/Timer_Row.c **** /*******************************************************************************
 643:.\Generated_Source\PSoC5/Timer_Row.c **** * Function Name: Timer_Row_SetInterruptCount
 644:.\Generated_Source\PSoC5/Timer_Row.c **** ********************************************************************************
 645:.\Generated_Source\PSoC5/Timer_Row.c **** *
 646:.\Generated_Source\PSoC5/Timer_Row.c **** * Summary:
 647:.\Generated_Source\PSoC5/Timer_Row.c **** *  This function sets the capture count before an interrupt is triggered.
 648:.\Generated_Source\PSoC5/Timer_Row.c **** *
 649:.\Generated_Source\PSoC5/Timer_Row.c **** * Parameters:
 650:.\Generated_Source\PSoC5/Timer_Row.c **** *  interruptCount:  A value between 0 and 3 is valid.  If the value is 0, then
 651:.\Generated_Source\PSoC5/Timer_Row.c **** *                   an interrupt will occur each time a capture occurs.
 652:.\Generated_Source\PSoC5/Timer_Row.c **** *                   A value of 1 to 3 will cause the interrupt
 653:.\Generated_Source\PSoC5/Timer_Row.c **** *                   to delay by the same number of captures.
 654:.\Generated_Source\PSoC5/Timer_Row.c **** *
 655:.\Generated_Source\PSoC5/Timer_Row.c **** * Return:
 656:.\Generated_Source\PSoC5/Timer_Row.c **** *  void
 657:.\Generated_Source\PSoC5/Timer_Row.c **** *
 658:.\Generated_Source\PSoC5/Timer_Row.c **** *******************************************************************************/
 659:.\Generated_Source\PSoC5/Timer_Row.c **** void Timer_Row_SetInterruptCount(uint8 interruptCount) 
 660:.\Generated_Source\PSoC5/Timer_Row.c **** {
 661:.\Generated_Source\PSoC5/Timer_Row.c ****     /* This must only set to two bits of the control register associated */
 662:.\Generated_Source\PSoC5/Timer_Row.c ****     interruptCount &= Timer_Row_CTRL_INTCNT_MASK;
 663:.\Generated_Source\PSoC5/Timer_Row.c **** 
 664:.\Generated_Source\PSoC5/Timer_Row.c ****     /* Clear the Current Setting */
 665:.\Generated_Source\PSoC5/Timer_Row.c ****     Timer_Row_CONTROL &= ~Timer_Row_CTRL_INTCNT_MASK;
 666:.\Generated_Source\PSoC5/Timer_Row.c ****     /* Write The New Setting */
 667:.\Generated_Source\PSoC5/Timer_Row.c ****     Timer_Row_CONTROL |= interruptCount;
 668:.\Generated_Source\PSoC5/Timer_Row.c **** }
 669:.\Generated_Source\PSoC5/Timer_Row.c **** #endif /* Remove API if control register is removed */
 670:.\Generated_Source\PSoC5/Timer_Row.c **** #endif /* Timer_Row_InterruptOnCaptureCount */
 671:.\Generated_Source\PSoC5/Timer_Row.c **** 
 672:.\Generated_Source\PSoC5/Timer_Row.c **** 
 673:.\Generated_Source\PSoC5/Timer_Row.c **** #if (Timer_Row_UsingHWCaptureCounter)
 674:.\Generated_Source\PSoC5/Timer_Row.c **** 
 675:.\Generated_Source\PSoC5/Timer_Row.c **** 
 676:.\Generated_Source\PSoC5/Timer_Row.c **** /*******************************************************************************
 677:.\Generated_Source\PSoC5/Timer_Row.c **** * Function Name: Timer_Row_SetCaptureCount
 678:.\Generated_Source\PSoC5/Timer_Row.c **** ********************************************************************************
 679:.\Generated_Source\PSoC5/Timer_Row.c **** *
 680:.\Generated_Source\PSoC5/Timer_Row.c **** * Summary:
 681:.\Generated_Source\PSoC5/Timer_Row.c **** *  This function sets the capture count
 682:.\Generated_Source\PSoC5/Timer_Row.c **** *
 683:.\Generated_Source\PSoC5/Timer_Row.c **** * Parameters:
 684:.\Generated_Source\PSoC5/Timer_Row.c **** *  captureCount: A value between 2 and 127 inclusive is valid.  A value of 1
 685:.\Generated_Source\PSoC5/Timer_Row.c **** *                to 127 will cause the interrupt to delay by the same number of
 686:.\Generated_Source\PSoC5/Timer_Row.c **** *                captures.
 687:.\Generated_Source\PSoC5/Timer_Row.c **** *
ARM GAS  C:\Users\bccho\AppData\Local\Temp\cculH1na.s 			page 23


 688:.\Generated_Source\PSoC5/Timer_Row.c **** * Return:
 689:.\Generated_Source\PSoC5/Timer_Row.c **** *  void
 690:.\Generated_Source\PSoC5/Timer_Row.c **** *
 691:.\Generated_Source\PSoC5/Timer_Row.c **** *******************************************************************************/
 692:.\Generated_Source\PSoC5/Timer_Row.c **** void Timer_Row_SetCaptureCount(uint8 captureCount) 
 693:.\Generated_Source\PSoC5/Timer_Row.c **** {
 694:.\Generated_Source\PSoC5/Timer_Row.c ****     Timer_Row_CAP_COUNT = captureCount;
 695:.\Generated_Source\PSoC5/Timer_Row.c **** }
 696:.\Generated_Source\PSoC5/Timer_Row.c **** 
 697:.\Generated_Source\PSoC5/Timer_Row.c **** 
 698:.\Generated_Source\PSoC5/Timer_Row.c **** /*******************************************************************************
 699:.\Generated_Source\PSoC5/Timer_Row.c **** * Function Name: Timer_Row_ReadCaptureCount
 700:.\Generated_Source\PSoC5/Timer_Row.c **** ********************************************************************************
 701:.\Generated_Source\PSoC5/Timer_Row.c **** *
 702:.\Generated_Source\PSoC5/Timer_Row.c **** * Summary:
 703:.\Generated_Source\PSoC5/Timer_Row.c **** *  This function reads the capture count setting
 704:.\Generated_Source\PSoC5/Timer_Row.c **** *
 705:.\Generated_Source\PSoC5/Timer_Row.c **** * Parameters:
 706:.\Generated_Source\PSoC5/Timer_Row.c **** *  void
 707:.\Generated_Source\PSoC5/Timer_Row.c **** *
 708:.\Generated_Source\PSoC5/Timer_Row.c **** * Return:
 709:.\Generated_Source\PSoC5/Timer_Row.c **** *  Returns the Capture Count Setting
 710:.\Generated_Source\PSoC5/Timer_Row.c **** *
 711:.\Generated_Source\PSoC5/Timer_Row.c **** *******************************************************************************/
 712:.\Generated_Source\PSoC5/Timer_Row.c **** uint8 Timer_Row_ReadCaptureCount(void) 
 713:.\Generated_Source\PSoC5/Timer_Row.c **** {
 714:.\Generated_Source\PSoC5/Timer_Row.c ****     return Timer_Row_CAP_COUNT ;
 715:.\Generated_Source\PSoC5/Timer_Row.c **** }
 716:.\Generated_Source\PSoC5/Timer_Row.c **** #endif /* Timer_Row_UsingHWCaptureCounter */
 717:.\Generated_Source\PSoC5/Timer_Row.c **** 
 718:.\Generated_Source\PSoC5/Timer_Row.c **** 
 719:.\Generated_Source\PSoC5/Timer_Row.c **** /*******************************************************************************
 720:.\Generated_Source\PSoC5/Timer_Row.c **** * Function Name: Timer_Row_ClearFIFO
 721:.\Generated_Source\PSoC5/Timer_Row.c **** ********************************************************************************
 722:.\Generated_Source\PSoC5/Timer_Row.c **** *
 723:.\Generated_Source\PSoC5/Timer_Row.c **** * Summary:
 724:.\Generated_Source\PSoC5/Timer_Row.c **** *  This function clears all capture data from the capture FIFO
 725:.\Generated_Source\PSoC5/Timer_Row.c **** *
 726:.\Generated_Source\PSoC5/Timer_Row.c **** * Parameters:
 727:.\Generated_Source\PSoC5/Timer_Row.c **** *  void
 728:.\Generated_Source\PSoC5/Timer_Row.c **** *
 729:.\Generated_Source\PSoC5/Timer_Row.c **** * Return:
 730:.\Generated_Source\PSoC5/Timer_Row.c **** *  void
 731:.\Generated_Source\PSoC5/Timer_Row.c **** *
 732:.\Generated_Source\PSoC5/Timer_Row.c **** *******************************************************************************/
 733:.\Generated_Source\PSoC5/Timer_Row.c **** void Timer_Row_ClearFIFO(void) 
 734:.\Generated_Source\PSoC5/Timer_Row.c **** {
 564              		.loc 1 734 0
 565              		.cfi_startproc
 566              		@ args = 0, pretend = 0, frame = 0
 567              		@ frame_needed = 1, uses_anonymous_args = 0
 568 0000 80B5     		push	{r7, lr}
 569              	.LCFI33:
 570              		.cfi_def_cfa_offset 8
 571 0002 00AF     		add	r7, sp, #0
 572              		.cfi_offset 14, -4
 573              		.cfi_offset 7, -8
ARM GAS  C:\Users\bccho\AppData\Local\Temp\cculH1na.s 			page 24


 574              	.LCFI34:
 575              		.cfi_def_cfa_register 7
 735:.\Generated_Source\PSoC5/Timer_Row.c ****     while(Timer_Row_ReadStatusRegister() & Timer_Row_STATUS_FIFONEMP)
 576              		.loc 1 735 0
 577 0004 01E0     		b	.L31
 578              	.L32:
 736:.\Generated_Source\PSoC5/Timer_Row.c ****     {
 737:.\Generated_Source\PSoC5/Timer_Row.c ****         Timer_Row_ReadCapture();
 579              		.loc 1 737 0
 580 0006 FFF7FEFF 		bl	Timer_Row_ReadCapture
 581              	.L31:
 582              		.loc 1 735 0
 583 000a FFF7FEFF 		bl	Timer_Row_ReadStatusRegister
 584 000e 0346     		mov	r3, r0
 585 0010 03F00803 		and	r3, r3, #8
 586 0014 002B     		cmp	r3, #0
 587 0016 F6D1     		bne	.L32
 738:.\Generated_Source\PSoC5/Timer_Row.c ****     }
 739:.\Generated_Source\PSoC5/Timer_Row.c **** }
 588              		.loc 1 739 0
 589 0018 80BD     		pop	{r7, pc}
 590              		.cfi_endproc
 591              	.LFE14:
 592              		.size	Timer_Row_ClearFIFO, .-Timer_Row_ClearFIFO
 593 001a 00BF     		.text
 594              	.Letext0: