ARM GAS  C:\Users\bccho\AppData\Local\Temp\ccPz96Gb.s 			page 1


   1              		.syntax unified
   2              		.cpu cortex-m3
   3              		.fpu softvfp
   4              		.eabi_attribute 20, 1
   5              		.eabi_attribute 21, 1
   6              		.eabi_attribute 23, 3
   7              		.eabi_attribute 24, 1
   8              		.eabi_attribute 25, 1
   9              		.eabi_attribute 26, 1
  10              		.eabi_attribute 30, 6
  11              		.eabi_attribute 18, 4
  12              		.thumb
  13              		.file	"Timer_Line_Begin_PM.c"
  20 0000 DD000000 		.text
  20      02008200 
  20      00000201 
  20      FB0E0D00 
  20      01010101 
  21              	.Ltext0:
  22              		.cfi_sections	.debug_frame
  23              		.bss
  24              		.align	2
  25              	Timer_Line_Begin_backup:
  26 0000 00000000 		.space	6
  26      0000
  27 0006 0000     		.section	.text.Timer_Line_Begin_SaveConfig,"ax",%progbits
  28              		.align	2
  29              		.global	Timer_Line_Begin_SaveConfig
  30              		.thumb
  31              		.thumb_func
  32              		.type	Timer_Line_Begin_SaveConfig, %function
  33              	Timer_Line_Begin_SaveConfig:
  34              	.LFB0:
  35              		.file 1 ".\\Generated_Source\\PSoC5\\Timer_Line_Begin_PM.c"
   1:.\Generated_Source\PSoC5/Timer_Line_Begin_PM.c **** /*******************************************************************************
   2:.\Generated_Source\PSoC5/Timer_Line_Begin_PM.c **** * File Name: Timer_Line_Begin_PM.c
   3:.\Generated_Source\PSoC5/Timer_Line_Begin_PM.c **** * Version 2.30
   4:.\Generated_Source\PSoC5/Timer_Line_Begin_PM.c **** *
   5:.\Generated_Source\PSoC5/Timer_Line_Begin_PM.c **** *  Description:
   6:.\Generated_Source\PSoC5/Timer_Line_Begin_PM.c **** *     This file provides the power management source code to API for the
   7:.\Generated_Source\PSoC5/Timer_Line_Begin_PM.c **** *     Timer.
   8:.\Generated_Source\PSoC5/Timer_Line_Begin_PM.c **** *
   9:.\Generated_Source\PSoC5/Timer_Line_Begin_PM.c **** *   Note:
  10:.\Generated_Source\PSoC5/Timer_Line_Begin_PM.c **** *     None
  11:.\Generated_Source\PSoC5/Timer_Line_Begin_PM.c **** *
  12:.\Generated_Source\PSoC5/Timer_Line_Begin_PM.c **** *******************************************************************************
  13:.\Generated_Source\PSoC5/Timer_Line_Begin_PM.c **** * Copyright 2008-2012, Cypress Semiconductor Corporation.  All rights reserved.
  14:.\Generated_Source\PSoC5/Timer_Line_Begin_PM.c **** * You may use this file only in accordance with the license, terms, conditions,
  15:.\Generated_Source\PSoC5/Timer_Line_Begin_PM.c **** * disclaimers, and limitations in the end user license agreement accompanying
  16:.\Generated_Source\PSoC5/Timer_Line_Begin_PM.c **** * the software package with which this file was provided.
  17:.\Generated_Source\PSoC5/Timer_Line_Begin_PM.c **** ********************************************************************************/
ARM GAS  C:\Users\bccho\AppData\Local\Temp\ccPz96Gb.s 			page 2


  18:.\Generated_Source\PSoC5/Timer_Line_Begin_PM.c **** 
  19:.\Generated_Source\PSoC5/Timer_Line_Begin_PM.c **** #include "Timer_Line_Begin.h"
  20:.\Generated_Source\PSoC5/Timer_Line_Begin_PM.c **** static Timer_Line_Begin_backupStruct Timer_Line_Begin_backup;
  21:.\Generated_Source\PSoC5/Timer_Line_Begin_PM.c **** 
  22:.\Generated_Source\PSoC5/Timer_Line_Begin_PM.c **** 
  23:.\Generated_Source\PSoC5/Timer_Line_Begin_PM.c **** /*******************************************************************************
  24:.\Generated_Source\PSoC5/Timer_Line_Begin_PM.c **** * Function Name: Timer_Line_Begin_SaveConfig
  25:.\Generated_Source\PSoC5/Timer_Line_Begin_PM.c **** ********************************************************************************
  26:.\Generated_Source\PSoC5/Timer_Line_Begin_PM.c **** *
  27:.\Generated_Source\PSoC5/Timer_Line_Begin_PM.c **** * Summary:
  28:.\Generated_Source\PSoC5/Timer_Line_Begin_PM.c **** *     Save the current user configuration
  29:.\Generated_Source\PSoC5/Timer_Line_Begin_PM.c **** *
  30:.\Generated_Source\PSoC5/Timer_Line_Begin_PM.c **** * Parameters:
  31:.\Generated_Source\PSoC5/Timer_Line_Begin_PM.c **** *  void
  32:.\Generated_Source\PSoC5/Timer_Line_Begin_PM.c **** *
  33:.\Generated_Source\PSoC5/Timer_Line_Begin_PM.c **** * Return:
  34:.\Generated_Source\PSoC5/Timer_Line_Begin_PM.c **** *  void
  35:.\Generated_Source\PSoC5/Timer_Line_Begin_PM.c **** *
  36:.\Generated_Source\PSoC5/Timer_Line_Begin_PM.c **** * Global variables:
  37:.\Generated_Source\PSoC5/Timer_Line_Begin_PM.c **** *  Timer_Line_Begin_backup:  Variables of this global structure are modified to
  38:.\Generated_Source\PSoC5/Timer_Line_Begin_PM.c **** *  store the values of non retention configuration registers when Sleep() API is
  39:.\Generated_Source\PSoC5/Timer_Line_Begin_PM.c **** *  called.
  40:.\Generated_Source\PSoC5/Timer_Line_Begin_PM.c **** *
  41:.\Generated_Source\PSoC5/Timer_Line_Begin_PM.c **** *******************************************************************************/
  42:.\Generated_Source\PSoC5/Timer_Line_Begin_PM.c **** void Timer_Line_Begin_SaveConfig(void) 
  43:.\Generated_Source\PSoC5/Timer_Line_Begin_PM.c **** {
  36              		.loc 1 43 0
  37              		.cfi_startproc
  38              		@ args = 0, pretend = 0, frame = 0
  39              		@ frame_needed = 1, uses_anonymous_args = 0
  40 0000 80B5     		push	{r7, lr}
  41              	.LCFI0:
  42              		.cfi_def_cfa_offset 8
  43 0002 00AF     		add	r7, sp, #0
  44              		.cfi_offset 14, -4
  45              		.cfi_offset 7, -8
  46              	.LCFI1:
  47              		.cfi_def_cfa_register 7
  44:.\Generated_Source\PSoC5/Timer_Line_Begin_PM.c ****     #if (!Timer_Line_Begin_UsingFixedFunction)
  45:.\Generated_Source\PSoC5/Timer_Line_Begin_PM.c ****         /* Backup the UDB non-rentention registers for PSoC5A*/
  46:.\Generated_Source\PSoC5/Timer_Line_Begin_PM.c ****         #if (CY_PSOC5A)
  47:.\Generated_Source\PSoC5/Timer_Line_Begin_PM.c ****             Timer_Line_Begin_backup.TimerUdb = Timer_Line_Begin_ReadCounter();
  48:.\Generated_Source\PSoC5/Timer_Line_Begin_PM.c ****             Timer_Line_Begin_backup.TimerPeriod = Timer_Line_Begin_ReadPeriod();
  49:.\Generated_Source\PSoC5/Timer_Line_Begin_PM.c ****             Timer_Line_Begin_backup.InterruptMaskValue = Timer_Line_Begin_STATUS_MASK;
  50:.\Generated_Source\PSoC5/Timer_Line_Begin_PM.c ****             #if (Timer_Line_Begin_UsingHWCaptureCounter)
  51:.\Generated_Source\PSoC5/Timer_Line_Begin_PM.c ****                 Timer_Line_Begin_backup.TimerCaptureCounter = Timer_Line_Begin_ReadCaptureCount();
  52:.\Generated_Source\PSoC5/Timer_Line_Begin_PM.c ****             #endif /* Backup the UDB non-rentention register capture counter for PSoC5A */
  53:.\Generated_Source\PSoC5/Timer_Line_Begin_PM.c ****         #endif /* Backup the UDB non-rentention registers for PSoC5A */
  54:.\Generated_Source\PSoC5/Timer_Line_Begin_PM.c **** 
  55:.\Generated_Source\PSoC5/Timer_Line_Begin_PM.c ****         #if (CY_PSOC3 || CY_PSOC5LP)
  56:.\Generated_Source\PSoC5/Timer_Line_Begin_PM.c ****             Timer_Line_Begin_backup.TimerUdb = Timer_Line_Begin_ReadCounter();
  48              		.loc 1 56 0
  49 0004 FFF7FEFF 		bl	Timer_Line_Begin_ReadCounter
  50 0008 0346     		mov	r3, r0
  51 000a 1A46     		mov	r2, r3
  52 000c 40F20003 		movw	r3, #:lower16:Timer_Line_Begin_backup
  53 0010 C0F20003 		movt	r3, #:upper16:Timer_Line_Begin_backup
ARM GAS  C:\Users\bccho\AppData\Local\Temp\ccPz96Gb.s 			page 3


  54 0014 5A80     		strh	r2, [r3, #2]	@ movhi
  57:.\Generated_Source\PSoC5/Timer_Line_Begin_PM.c ****             Timer_Line_Begin_backup.InterruptMaskValue = Timer_Line_Begin_STATUS_MASK;
  55              		.loc 1 57 0
  56 0016 46F28343 		movw	r3, #:lower16:1073767555
  57 001a C4F20003 		movt	r3, #:upper16:1073767555
  58 001e 1B78     		ldrb	r3, [r3, #0]
  59 0020 DAB2     		uxtb	r2, r3
  60 0022 40F20003 		movw	r3, #:lower16:Timer_Line_Begin_backup
  61 0026 C0F20003 		movt	r3, #:upper16:Timer_Line_Begin_backup
  62 002a 1A71     		strb	r2, [r3, #4]
  58:.\Generated_Source\PSoC5/Timer_Line_Begin_PM.c ****             #if (Timer_Line_Begin_UsingHWCaptureCounter)
  59:.\Generated_Source\PSoC5/Timer_Line_Begin_PM.c ****                 Timer_Line_Begin_backup.TimerCaptureCounter = Timer_Line_Begin_ReadCaptureCount();
  60:.\Generated_Source\PSoC5/Timer_Line_Begin_PM.c ****             #endif /* Back Up capture counter register  */
  61:.\Generated_Source\PSoC5/Timer_Line_Begin_PM.c ****         #endif /* Backup non retention registers, interrupt mask and capture counter for PSoC3 or P
  62:.\Generated_Source\PSoC5/Timer_Line_Begin_PM.c **** 
  63:.\Generated_Source\PSoC5/Timer_Line_Begin_PM.c ****         #if(!Timer_Line_Begin_ControlRegRemoved)
  64:.\Generated_Source\PSoC5/Timer_Line_Begin_PM.c ****             Timer_Line_Begin_backup.TimerControlRegister = Timer_Line_Begin_ReadControlRegister();
  63              		.loc 1 64 0
  64 002c FFF7FEFF 		bl	Timer_Line_Begin_ReadControlRegister
  65 0030 0346     		mov	r3, r0
  66 0032 1A46     		mov	r2, r3
  67 0034 40F20003 		movw	r3, #:lower16:Timer_Line_Begin_backup
  68 0038 C0F20003 		movt	r3, #:upper16:Timer_Line_Begin_backup
  69 003c 5A71     		strb	r2, [r3, #5]
  65:.\Generated_Source\PSoC5/Timer_Line_Begin_PM.c ****         #endif /* Backup the enable state of the Timer component */
  66:.\Generated_Source\PSoC5/Timer_Line_Begin_PM.c ****     #endif /* Backup non retention registers in UDB implementation. All fixed function registers ar
  67:.\Generated_Source\PSoC5/Timer_Line_Begin_PM.c **** }
  70              		.loc 1 67 0
  71 003e 80BD     		pop	{r7, pc}
  72              		.cfi_endproc
  73              	.LFE0:
  74              		.size	Timer_Line_Begin_SaveConfig, .-Timer_Line_Begin_SaveConfig
  75              		.section	.text.Timer_Line_Begin_RestoreConfig,"ax",%progbits
  76              		.align	2
  77              		.global	Timer_Line_Begin_RestoreConfig
  78              		.thumb
  79              		.thumb_func
  80              		.type	Timer_Line_Begin_RestoreConfig, %function
  81              	Timer_Line_Begin_RestoreConfig:
  82              	.LFB1:
  68:.\Generated_Source\PSoC5/Timer_Line_Begin_PM.c **** 
  69:.\Generated_Source\PSoC5/Timer_Line_Begin_PM.c **** 
  70:.\Generated_Source\PSoC5/Timer_Line_Begin_PM.c **** /*******************************************************************************
  71:.\Generated_Source\PSoC5/Timer_Line_Begin_PM.c **** * Function Name: Timer_Line_Begin_RestoreConfig
  72:.\Generated_Source\PSoC5/Timer_Line_Begin_PM.c **** ********************************************************************************
  73:.\Generated_Source\PSoC5/Timer_Line_Begin_PM.c **** *
  74:.\Generated_Source\PSoC5/Timer_Line_Begin_PM.c **** * Summary:
  75:.\Generated_Source\PSoC5/Timer_Line_Begin_PM.c **** *  Restores the current user configuration.
  76:.\Generated_Source\PSoC5/Timer_Line_Begin_PM.c **** *
  77:.\Generated_Source\PSoC5/Timer_Line_Begin_PM.c **** * Parameters:
  78:.\Generated_Source\PSoC5/Timer_Line_Begin_PM.c **** *  void
  79:.\Generated_Source\PSoC5/Timer_Line_Begin_PM.c **** *
  80:.\Generated_Source\PSoC5/Timer_Line_Begin_PM.c **** * Return:
  81:.\Generated_Source\PSoC5/Timer_Line_Begin_PM.c **** *  void
  82:.\Generated_Source\PSoC5/Timer_Line_Begin_PM.c **** *
  83:.\Generated_Source\PSoC5/Timer_Line_Begin_PM.c **** * Global variables:
  84:.\Generated_Source\PSoC5/Timer_Line_Begin_PM.c **** *  Timer_Line_Begin_backup:  Variables of this global structure are used to
ARM GAS  C:\Users\bccho\AppData\Local\Temp\ccPz96Gb.s 			page 4


  85:.\Generated_Source\PSoC5/Timer_Line_Begin_PM.c **** *  restore the values of non retention registers on wakeup from sleep mode.
  86:.\Generated_Source\PSoC5/Timer_Line_Begin_PM.c **** *
  87:.\Generated_Source\PSoC5/Timer_Line_Begin_PM.c **** *******************************************************************************/
  88:.\Generated_Source\PSoC5/Timer_Line_Begin_PM.c **** void Timer_Line_Begin_RestoreConfig(void) 
  89:.\Generated_Source\PSoC5/Timer_Line_Begin_PM.c **** {   
  83              		.loc 1 89 0
  84              		.cfi_startproc
  85              		@ args = 0, pretend = 0, frame = 0
  86              		@ frame_needed = 1, uses_anonymous_args = 0
  87 0000 80B5     		push	{r7, lr}
  88              	.LCFI2:
  89              		.cfi_def_cfa_offset 8
  90 0002 00AF     		add	r7, sp, #0
  91              		.cfi_offset 14, -4
  92              		.cfi_offset 7, -8
  93              	.LCFI3:
  94              		.cfi_def_cfa_register 7
  90:.\Generated_Source\PSoC5/Timer_Line_Begin_PM.c ****     #if (!Timer_Line_Begin_UsingFixedFunction)
  91:.\Generated_Source\PSoC5/Timer_Line_Begin_PM.c ****         /* Restore the UDB non-rentention registers for PSoC5A */
  92:.\Generated_Source\PSoC5/Timer_Line_Begin_PM.c ****         #if (CY_PSOC5A)
  93:.\Generated_Source\PSoC5/Timer_Line_Begin_PM.c ****             /* Interrupt State Backup for Critical Region*/
  94:.\Generated_Source\PSoC5/Timer_Line_Begin_PM.c ****             uint8 Timer_Line_Begin_interruptState;
  95:.\Generated_Source\PSoC5/Timer_Line_Begin_PM.c **** 
  96:.\Generated_Source\PSoC5/Timer_Line_Begin_PM.c ****             Timer_Line_Begin_WriteCounter(Timer_Line_Begin_backup.TimerUdb);
  97:.\Generated_Source\PSoC5/Timer_Line_Begin_PM.c ****             Timer_Line_Begin_WritePeriod(Timer_Line_Begin_backup.TimerPeriod);
  98:.\Generated_Source\PSoC5/Timer_Line_Begin_PM.c ****             /* CyEnterCriticalRegion and CyExitCriticalRegion are used to mark following region cri
  99:.\Generated_Source\PSoC5/Timer_Line_Begin_PM.c ****             /* Enter Critical Region*/
 100:.\Generated_Source\PSoC5/Timer_Line_Begin_PM.c ****             Timer_Line_Begin_interruptState = CyEnterCriticalSection();
 101:.\Generated_Source\PSoC5/Timer_Line_Begin_PM.c ****             /* Use the interrupt output of the status register for IRQ output */
 102:.\Generated_Source\PSoC5/Timer_Line_Begin_PM.c ****             Timer_Line_Begin_STATUS_AUX_CTRL |= Timer_Line_Begin_STATUS_ACTL_INT_EN_MASK;
 103:.\Generated_Source\PSoC5/Timer_Line_Begin_PM.c ****             /* Exit Critical Region*/
 104:.\Generated_Source\PSoC5/Timer_Line_Begin_PM.c ****             CyExitCriticalSection(Timer_Line_Begin_interruptState);
 105:.\Generated_Source\PSoC5/Timer_Line_Begin_PM.c ****             Timer_Line_Begin_STATUS_MASK =Timer_Line_Begin_backup.InterruptMaskValue;
 106:.\Generated_Source\PSoC5/Timer_Line_Begin_PM.c ****             #if (Timer_Line_Begin_UsingHWCaptureCounter)
 107:.\Generated_Source\PSoC5/Timer_Line_Begin_PM.c ****                 Timer_Line_Begin_SetCaptureCount(Timer_Line_Begin_backup.TimerCaptureCounter);
 108:.\Generated_Source\PSoC5/Timer_Line_Begin_PM.c ****             #endif /* Restore the UDB non-rentention register capture counter for PSoC5A */
 109:.\Generated_Source\PSoC5/Timer_Line_Begin_PM.c ****         #endif /* Restore the UDB non-rentention registers for PSoC5A */
 110:.\Generated_Source\PSoC5/Timer_Line_Begin_PM.c **** 
 111:.\Generated_Source\PSoC5/Timer_Line_Begin_PM.c ****         #if (CY_PSOC3 || CY_PSOC5LP)
 112:.\Generated_Source\PSoC5/Timer_Line_Begin_PM.c ****             Timer_Line_Begin_WriteCounter(Timer_Line_Begin_backup.TimerUdb);
  95              		.loc 1 112 0
  96 0004 40F20003 		movw	r3, #:lower16:Timer_Line_Begin_backup
  97 0008 C0F20003 		movt	r3, #:upper16:Timer_Line_Begin_backup
  98 000c 5B88     		ldrh	r3, [r3, #2]
  99 000e 1846     		mov	r0, r3
 100 0010 FFF7FEFF 		bl	Timer_Line_Begin_WriteCounter
 113:.\Generated_Source\PSoC5/Timer_Line_Begin_PM.c ****             Timer_Line_Begin_STATUS_MASK =Timer_Line_Begin_backup.InterruptMaskValue;
 101              		.loc 1 113 0
 102 0014 46F28343 		movw	r3, #:lower16:1073767555
 103 0018 C4F20003 		movt	r3, #:upper16:1073767555
 104 001c 40F20002 		movw	r2, #:lower16:Timer_Line_Begin_backup
 105 0020 C0F20002 		movt	r2, #:upper16:Timer_Line_Begin_backup
 106 0024 1279     		ldrb	r2, [r2, #4]	@ zero_extendqisi2
 107 0026 1A70     		strb	r2, [r3, #0]
 114:.\Generated_Source\PSoC5/Timer_Line_Begin_PM.c ****             #if (Timer_Line_Begin_UsingHWCaptureCounter)
 115:.\Generated_Source\PSoC5/Timer_Line_Begin_PM.c ****                 Timer_Line_Begin_SetCaptureCount(Timer_Line_Begin_backup.TimerCaptureCounter);
 116:.\Generated_Source\PSoC5/Timer_Line_Begin_PM.c ****             #endif /* Restore Capture counter register*/
ARM GAS  C:\Users\bccho\AppData\Local\Temp\ccPz96Gb.s 			page 5


 117:.\Generated_Source\PSoC5/Timer_Line_Begin_PM.c ****         #endif /* Restore up non retention registers, interrupt mask and capture counter for PSoC3 
 118:.\Generated_Source\PSoC5/Timer_Line_Begin_PM.c **** 
 119:.\Generated_Source\PSoC5/Timer_Line_Begin_PM.c ****         #if(!Timer_Line_Begin_ControlRegRemoved)
 120:.\Generated_Source\PSoC5/Timer_Line_Begin_PM.c ****             Timer_Line_Begin_WriteControlRegister(Timer_Line_Begin_backup.TimerControlRegister);
 108              		.loc 1 120 0
 109 0028 40F20003 		movw	r3, #:lower16:Timer_Line_Begin_backup
 110 002c C0F20003 		movt	r3, #:upper16:Timer_Line_Begin_backup
 111 0030 5B79     		ldrb	r3, [r3, #5]	@ zero_extendqisi2
 112 0032 1846     		mov	r0, r3
 113 0034 FFF7FEFF 		bl	Timer_Line_Begin_WriteControlRegister
 121:.\Generated_Source\PSoC5/Timer_Line_Begin_PM.c ****         #endif /* Restore the enable state of the Timer component */
 122:.\Generated_Source\PSoC5/Timer_Line_Begin_PM.c ****     #endif /* Restore non retention registers in the UDB implementation only */
 123:.\Generated_Source\PSoC5/Timer_Line_Begin_PM.c **** }
 114              		.loc 1 123 0
 115 0038 80BD     		pop	{r7, pc}
 116              		.cfi_endproc
 117              	.LFE1:
 118              		.size	Timer_Line_Begin_RestoreConfig, .-Timer_Line_Begin_RestoreConfig
 119 003a 00BF     		.section	.text.Timer_Line_Begin_Sleep,"ax",%progbits
 120              		.align	2
 121              		.global	Timer_Line_Begin_Sleep
 122              		.thumb
 123              		.thumb_func
 124              		.type	Timer_Line_Begin_Sleep, %function
 125              	Timer_Line_Begin_Sleep:
 126              	.LFB2:
 124:.\Generated_Source\PSoC5/Timer_Line_Begin_PM.c **** 
 125:.\Generated_Source\PSoC5/Timer_Line_Begin_PM.c **** 
 126:.\Generated_Source\PSoC5/Timer_Line_Begin_PM.c **** /*******************************************************************************
 127:.\Generated_Source\PSoC5/Timer_Line_Begin_PM.c **** * Function Name: Timer_Line_Begin_Sleep
 128:.\Generated_Source\PSoC5/Timer_Line_Begin_PM.c **** ********************************************************************************
 129:.\Generated_Source\PSoC5/Timer_Line_Begin_PM.c **** *
 130:.\Generated_Source\PSoC5/Timer_Line_Begin_PM.c **** * Summary:
 131:.\Generated_Source\PSoC5/Timer_Line_Begin_PM.c **** *     Stop and Save the user configuration
 132:.\Generated_Source\PSoC5/Timer_Line_Begin_PM.c **** *
 133:.\Generated_Source\PSoC5/Timer_Line_Begin_PM.c **** * Parameters:
 134:.\Generated_Source\PSoC5/Timer_Line_Begin_PM.c **** *  void
 135:.\Generated_Source\PSoC5/Timer_Line_Begin_PM.c **** *
 136:.\Generated_Source\PSoC5/Timer_Line_Begin_PM.c **** * Return:
 137:.\Generated_Source\PSoC5/Timer_Line_Begin_PM.c **** *  void
 138:.\Generated_Source\PSoC5/Timer_Line_Begin_PM.c **** *
 139:.\Generated_Source\PSoC5/Timer_Line_Begin_PM.c **** * Global variables:
 140:.\Generated_Source\PSoC5/Timer_Line_Begin_PM.c **** *  Timer_Line_Begin_backup.TimerEnableState:  Is modified depending on the
 141:.\Generated_Source\PSoC5/Timer_Line_Begin_PM.c **** *  enable state of the block before entering sleep mode.
 142:.\Generated_Source\PSoC5/Timer_Line_Begin_PM.c **** *
 143:.\Generated_Source\PSoC5/Timer_Line_Begin_PM.c **** *******************************************************************************/
 144:.\Generated_Source\PSoC5/Timer_Line_Begin_PM.c **** void Timer_Line_Begin_Sleep(void) 
 145:.\Generated_Source\PSoC5/Timer_Line_Begin_PM.c **** {
 127              		.loc 1 145 0
 128              		.cfi_startproc
 129              		@ args = 0, pretend = 0, frame = 0
 130              		@ frame_needed = 1, uses_anonymous_args = 0
 131 0000 80B5     		push	{r7, lr}
 132              	.LCFI4:
 133              		.cfi_def_cfa_offset 8
 134 0002 00AF     		add	r7, sp, #0
 135              		.cfi_offset 14, -4
ARM GAS  C:\Users\bccho\AppData\Local\Temp\ccPz96Gb.s 			page 6


 136              		.cfi_offset 7, -8
 137              	.LCFI5:
 138              		.cfi_def_cfa_register 7
 146:.\Generated_Source\PSoC5/Timer_Line_Begin_PM.c ****     #if(!Timer_Line_Begin_ControlRegRemoved)
 147:.\Generated_Source\PSoC5/Timer_Line_Begin_PM.c ****         /* Save Counter's enable state */
 148:.\Generated_Source\PSoC5/Timer_Line_Begin_PM.c ****         if(Timer_Line_Begin_CTRL_ENABLE == (Timer_Line_Begin_CONTROL & Timer_Line_Begin_CTRL_ENABLE
 139              		.loc 1 148 0
 140 0004 46F27343 		movw	r3, #:lower16:1073767539
 141 0008 C4F20003 		movt	r3, #:upper16:1073767539
 142 000c 1B78     		ldrb	r3, [r3, #0]
 143 000e DBB2     		uxtb	r3, r3
 144 0010 5BB2     		sxtb	r3, r3
 145 0012 002B     		cmp	r3, #0
 146 0014 07DA     		bge	.L6
 149:.\Generated_Source\PSoC5/Timer_Line_Begin_PM.c ****         {
 150:.\Generated_Source\PSoC5/Timer_Line_Begin_PM.c ****             /* Timer is enabled */
 151:.\Generated_Source\PSoC5/Timer_Line_Begin_PM.c ****             Timer_Line_Begin_backup.TimerEnableState = 1u;
 147              		.loc 1 151 0
 148 0016 40F20003 		movw	r3, #:lower16:Timer_Line_Begin_backup
 149 001a C0F20003 		movt	r3, #:upper16:Timer_Line_Begin_backup
 150 001e 4FF00102 		mov	r2, #1
 151 0022 1A70     		strb	r2, [r3, #0]
 152 0024 06E0     		b	.L7
 153              	.L6:
 152:.\Generated_Source\PSoC5/Timer_Line_Begin_PM.c ****         }
 153:.\Generated_Source\PSoC5/Timer_Line_Begin_PM.c ****         else
 154:.\Generated_Source\PSoC5/Timer_Line_Begin_PM.c ****         {
 155:.\Generated_Source\PSoC5/Timer_Line_Begin_PM.c ****             /* Timer is disabled */
 156:.\Generated_Source\PSoC5/Timer_Line_Begin_PM.c ****             Timer_Line_Begin_backup.TimerEnableState = 0u;
 154              		.loc 1 156 0
 155 0026 40F20003 		movw	r3, #:lower16:Timer_Line_Begin_backup
 156 002a C0F20003 		movt	r3, #:upper16:Timer_Line_Begin_backup
 157 002e 4FF00002 		mov	r2, #0
 158 0032 1A70     		strb	r2, [r3, #0]
 159              	.L7:
 157:.\Generated_Source\PSoC5/Timer_Line_Begin_PM.c ****         }
 158:.\Generated_Source\PSoC5/Timer_Line_Begin_PM.c ****     #endif /* Back up enable state from the Timer control register */
 159:.\Generated_Source\PSoC5/Timer_Line_Begin_PM.c ****     Timer_Line_Begin_Stop();
 160              		.loc 1 159 0
 161 0034 FFF7FEFF 		bl	Timer_Line_Begin_Stop
 160:.\Generated_Source\PSoC5/Timer_Line_Begin_PM.c ****     Timer_Line_Begin_SaveConfig();
 162              		.loc 1 160 0
 163 0038 FFF7FEFF 		bl	Timer_Line_Begin_SaveConfig
 161:.\Generated_Source\PSoC5/Timer_Line_Begin_PM.c **** }
 164              		.loc 1 161 0
 165 003c 80BD     		pop	{r7, pc}
 166              		.cfi_endproc
 167              	.LFE2:
 168              		.size	Timer_Line_Begin_Sleep, .-Timer_Line_Begin_Sleep
 169 003e 00BF     		.section	.text.Timer_Line_Begin_Wakeup,"ax",%progbits
 170              		.align	2
 171              		.global	Timer_Line_Begin_Wakeup
 172              		.thumb
 173              		.thumb_func
 174              		.type	Timer_Line_Begin_Wakeup, %function
 175              	Timer_Line_Begin_Wakeup:
 176              	.LFB3:
ARM GAS  C:\Users\bccho\AppData\Local\Temp\ccPz96Gb.s 			page 7


 162:.\Generated_Source\PSoC5/Timer_Line_Begin_PM.c **** 
 163:.\Generated_Source\PSoC5/Timer_Line_Begin_PM.c **** 
 164:.\Generated_Source\PSoC5/Timer_Line_Begin_PM.c **** /*******************************************************************************
 165:.\Generated_Source\PSoC5/Timer_Line_Begin_PM.c **** * Function Name: Timer_Line_Begin_Wakeup
 166:.\Generated_Source\PSoC5/Timer_Line_Begin_PM.c **** ********************************************************************************
 167:.\Generated_Source\PSoC5/Timer_Line_Begin_PM.c **** *
 168:.\Generated_Source\PSoC5/Timer_Line_Begin_PM.c **** * Summary:
 169:.\Generated_Source\PSoC5/Timer_Line_Begin_PM.c **** *  Restores and enables the user configuration
 170:.\Generated_Source\PSoC5/Timer_Line_Begin_PM.c **** *
 171:.\Generated_Source\PSoC5/Timer_Line_Begin_PM.c **** * Parameters:
 172:.\Generated_Source\PSoC5/Timer_Line_Begin_PM.c **** *  void
 173:.\Generated_Source\PSoC5/Timer_Line_Begin_PM.c **** *
 174:.\Generated_Source\PSoC5/Timer_Line_Begin_PM.c **** * Return:
 175:.\Generated_Source\PSoC5/Timer_Line_Begin_PM.c **** *  void
 176:.\Generated_Source\PSoC5/Timer_Line_Begin_PM.c **** *
 177:.\Generated_Source\PSoC5/Timer_Line_Begin_PM.c **** * Global variables:
 178:.\Generated_Source\PSoC5/Timer_Line_Begin_PM.c **** *  Timer_Line_Begin_backup.enableState:  Is used to restore the enable state of
 179:.\Generated_Source\PSoC5/Timer_Line_Begin_PM.c **** *  block on wakeup from sleep mode.
 180:.\Generated_Source\PSoC5/Timer_Line_Begin_PM.c **** *
 181:.\Generated_Source\PSoC5/Timer_Line_Begin_PM.c **** *******************************************************************************/
 182:.\Generated_Source\PSoC5/Timer_Line_Begin_PM.c **** void Timer_Line_Begin_Wakeup(void) 
 183:.\Generated_Source\PSoC5/Timer_Line_Begin_PM.c **** {
 177              		.loc 1 183 0
 178              		.cfi_startproc
 179              		@ args = 0, pretend = 0, frame = 0
 180              		@ frame_needed = 1, uses_anonymous_args = 0
 181 0000 80B5     		push	{r7, lr}
 182              	.LCFI6:
 183              		.cfi_def_cfa_offset 8
 184 0002 00AF     		add	r7, sp, #0
 185              		.cfi_offset 14, -4
 186              		.cfi_offset 7, -8
 187              	.LCFI7:
 188              		.cfi_def_cfa_register 7
 184:.\Generated_Source\PSoC5/Timer_Line_Begin_PM.c ****     Timer_Line_Begin_RestoreConfig();
 189              		.loc 1 184 0
 190 0004 FFF7FEFF 		bl	Timer_Line_Begin_RestoreConfig
 185:.\Generated_Source\PSoC5/Timer_Line_Begin_PM.c ****     #if(!Timer_Line_Begin_ControlRegRemoved)
 186:.\Generated_Source\PSoC5/Timer_Line_Begin_PM.c ****         if(Timer_Line_Begin_backup.TimerEnableState == 1u)
 191              		.loc 1 186 0
 192 0008 40F20003 		movw	r3, #:lower16:Timer_Line_Begin_backup
 193 000c C0F20003 		movt	r3, #:upper16:Timer_Line_Begin_backup
 194 0010 1B78     		ldrb	r3, [r3, #0]	@ zero_extendqisi2
 195 0012 012B     		cmp	r3, #1
 196 0014 01D1     		bne	.L11
 187:.\Generated_Source\PSoC5/Timer_Line_Begin_PM.c ****         {     /* Enable Timer's operation */
 188:.\Generated_Source\PSoC5/Timer_Line_Begin_PM.c ****                 Timer_Line_Begin_Enable();
 197              		.loc 1 188 0
 198 0016 FFF7FEFF 		bl	Timer_Line_Begin_Enable
 199              	.L11:
 189:.\Generated_Source\PSoC5/Timer_Line_Begin_PM.c ****         } /* Do nothing if Timer was disabled before */
 190:.\Generated_Source\PSoC5/Timer_Line_Begin_PM.c ****     #endif /* Remove this code section if Control register is removed */
 191:.\Generated_Source\PSoC5/Timer_Line_Begin_PM.c **** }
 200              		.loc 1 191 0
 201 001a 80BD     		pop	{r7, pc}
 202              		.cfi_endproc
 203              	.LFE3:
ARM GAS  C:\Users\bccho\AppData\Local\Temp\ccPz96Gb.s 			page 8


 204              		.size	Timer_Line_Begin_Wakeup, .-Timer_Line_Begin_Wakeup
 205              		.text
 206              	.Letext0: