ARM GAS  C:\Users\bccho\AppData\Local\Temp\ccgG2AVn.s 			page 1


   1              		.syntax unified
   2              		.cpu cortex-m3
   3              		.fpu softvfp
   4              		.eabi_attribute 20, 1
   5              		.eabi_attribute 21, 1
   6              		.eabi_attribute 23, 3
   7              		.eabi_attribute 24, 1
   8              		.eabi_attribute 25, 1
   9              		.eabi_attribute 26, 1
  10              		.eabi_attribute 30, 6
  11              		.eabi_attribute 18, 4
  12              		.thumb
  13              		.file	"Timer_Line_Begin.c"
  20 0000 CC010000 		.text
  20      02006900 
  20      00000201 
  20      FB0E0D00 
  20      01010101 
  21              	.Ltext0:
  22              		.cfi_sections	.debug_frame
  23              		.global	Timer_Line_Begin_initVar
  24              		.bss
  25              		.type	Timer_Line_Begin_initVar, %object
  26              		.size	Timer_Line_Begin_initVar, 1
  27              	Timer_Line_Begin_initVar:
  28 0000 00       		.space	1
  29              		.section	.text.Timer_Line_Begin_Init,"ax",%progbits
  30              		.align	2
  31              		.global	Timer_Line_Begin_Init
  32              		.thumb
  33              		.thumb_func
  34              		.type	Timer_Line_Begin_Init, %function
  35              	Timer_Line_Begin_Init:
  36              	.LFB0:
  37              		.file 1 ".\\Generated_Source\\PSoC5\\Timer_Line_Begin.c"
   1:.\Generated_Source\PSoC5/Timer_Line_Begin.c **** /*******************************************************************************
   2:.\Generated_Source\PSoC5/Timer_Line_Begin.c **** * File Name: Timer_Line_Begin.c
   3:.\Generated_Source\PSoC5/Timer_Line_Begin.c **** * Version 2.30
   4:.\Generated_Source\PSoC5/Timer_Line_Begin.c **** *
   5:.\Generated_Source\PSoC5/Timer_Line_Begin.c **** * Description:
   6:.\Generated_Source\PSoC5/Timer_Line_Begin.c **** *  The Timer component consists of a 8, 16, 24 or 32-bit timer with
   7:.\Generated_Source\PSoC5/Timer_Line_Begin.c **** *  a selectable period between 2 and 2^Width - 1.  The timer may free run
   8:.\Generated_Source\PSoC5/Timer_Line_Begin.c **** *  or be used as a capture timer as well.  The capture can be initiated
   9:.\Generated_Source\PSoC5/Timer_Line_Begin.c **** *  by a positive or negative edge signal as well as via software.
  10:.\Generated_Source\PSoC5/Timer_Line_Begin.c **** *  A trigger input can be programmed to enable the timer on rising edge
  11:.\Generated_Source\PSoC5/Timer_Line_Begin.c **** *  falling edge, either edge or continous run.
  12:.\Generated_Source\PSoC5/Timer_Line_Begin.c **** *  Interrupts may be generated due to a terminal count condition
  13:.\Generated_Source\PSoC5/Timer_Line_Begin.c **** *  or a capture event.
  14:.\Generated_Source\PSoC5/Timer_Line_Begin.c **** *
  15:.\Generated_Source\PSoC5/Timer_Line_Begin.c **** * Note:
  16:.\Generated_Source\PSoC5/Timer_Line_Begin.c **** *
ARM GAS  C:\Users\bccho\AppData\Local\Temp\ccgG2AVn.s 			page 2


  17:.\Generated_Source\PSoC5/Timer_Line_Begin.c **** ********************************************************************************
  18:.\Generated_Source\PSoC5/Timer_Line_Begin.c **** * Copyright 2008-2012, Cypress Semiconductor Corporation.  All rights reserved.
  19:.\Generated_Source\PSoC5/Timer_Line_Begin.c **** * You may use this file only in accordance with the license, terms, conditions,
  20:.\Generated_Source\PSoC5/Timer_Line_Begin.c **** * disclaimers, and limitations in the end user license agreement accompanying
  21:.\Generated_Source\PSoC5/Timer_Line_Begin.c **** * the software package with which this file was provided.
  22:.\Generated_Source\PSoC5/Timer_Line_Begin.c **** ********************************************************************************/
  23:.\Generated_Source\PSoC5/Timer_Line_Begin.c **** 
  24:.\Generated_Source\PSoC5/Timer_Line_Begin.c **** #include "Timer_Line_Begin.h"
  25:.\Generated_Source\PSoC5/Timer_Line_Begin.c **** 
  26:.\Generated_Source\PSoC5/Timer_Line_Begin.c **** uint8 Timer_Line_Begin_initVar = 0u;
  27:.\Generated_Source\PSoC5/Timer_Line_Begin.c **** 
  28:.\Generated_Source\PSoC5/Timer_Line_Begin.c **** 
  29:.\Generated_Source\PSoC5/Timer_Line_Begin.c **** /*******************************************************************************
  30:.\Generated_Source\PSoC5/Timer_Line_Begin.c **** * Function Name: Timer_Line_Begin_Init
  31:.\Generated_Source\PSoC5/Timer_Line_Begin.c **** ********************************************************************************
  32:.\Generated_Source\PSoC5/Timer_Line_Begin.c **** *
  33:.\Generated_Source\PSoC5/Timer_Line_Begin.c **** * Summary:
  34:.\Generated_Source\PSoC5/Timer_Line_Begin.c **** *  Initialize to the schematic state
  35:.\Generated_Source\PSoC5/Timer_Line_Begin.c **** *
  36:.\Generated_Source\PSoC5/Timer_Line_Begin.c **** * Parameters:
  37:.\Generated_Source\PSoC5/Timer_Line_Begin.c **** *  void
  38:.\Generated_Source\PSoC5/Timer_Line_Begin.c **** *
  39:.\Generated_Source\PSoC5/Timer_Line_Begin.c **** * Return:
  40:.\Generated_Source\PSoC5/Timer_Line_Begin.c **** *  void
  41:.\Generated_Source\PSoC5/Timer_Line_Begin.c **** *
  42:.\Generated_Source\PSoC5/Timer_Line_Begin.c **** *******************************************************************************/
  43:.\Generated_Source\PSoC5/Timer_Line_Begin.c **** void Timer_Line_Begin_Init(void) 
  44:.\Generated_Source\PSoC5/Timer_Line_Begin.c **** {
  38              		.loc 1 44 0
  39              		.cfi_startproc
  40              		@ args = 0, pretend = 0, frame = 8
  41              		@ frame_needed = 1, uses_anonymous_args = 0
  42 0000 80B5     		push	{r7, lr}
  43              	.LCFI0:
  44              		.cfi_def_cfa_offset 8
  45 0002 82B0     		sub	sp, sp, #8
  46              	.LCFI1:
  47              		.cfi_def_cfa_offset 16
  48 0004 00AF     		add	r7, sp, #0
  49              		.cfi_offset 14, -4
  50              		.cfi_offset 7, -8
  51              	.LCFI2:
  52              		.cfi_def_cfa_register 7
  45:.\Generated_Source\PSoC5/Timer_Line_Begin.c ****     #if(!Timer_Line_Begin_UsingFixedFunction)
  46:.\Generated_Source\PSoC5/Timer_Line_Begin.c ****             /* Interrupt State Backup for Critical Region*/
  47:.\Generated_Source\PSoC5/Timer_Line_Begin.c ****             uint8 Timer_Line_Begin_interruptState;
  48:.\Generated_Source\PSoC5/Timer_Line_Begin.c ****     #endif /* Interrupt state back up for Fixed Function only */
  49:.\Generated_Source\PSoC5/Timer_Line_Begin.c **** 
  50:.\Generated_Source\PSoC5/Timer_Line_Begin.c ****     #if (Timer_Line_Begin_UsingFixedFunction)
  51:.\Generated_Source\PSoC5/Timer_Line_Begin.c ****         /* Clear all bits but the enable bit (if it's already set) for Timer operation */
  52:.\Generated_Source\PSoC5/Timer_Line_Begin.c ****         Timer_Line_Begin_CONTROL &= Timer_Line_Begin_CTRL_ENABLE;
  53:.\Generated_Source\PSoC5/Timer_Line_Begin.c **** 
  54:.\Generated_Source\PSoC5/Timer_Line_Begin.c ****         /* Clear the mode bits for continuous run mode */
  55:.\Generated_Source\PSoC5/Timer_Line_Begin.c ****         #if (CY_PSOC5A)
  56:.\Generated_Source\PSoC5/Timer_Line_Begin.c ****             Timer_Line_Begin_CONTROL2 &= ~Timer_Line_Begin_CTRL_MODE_MASK;
  57:.\Generated_Source\PSoC5/Timer_Line_Begin.c ****         #endif /* Clear bits in CONTROL2 only in PSOC5A */
  58:.\Generated_Source\PSoC5/Timer_Line_Begin.c **** 
ARM GAS  C:\Users\bccho\AppData\Local\Temp\ccgG2AVn.s 			page 3


  59:.\Generated_Source\PSoC5/Timer_Line_Begin.c ****         #if (CY_PSOC3 || CY_PSOC5LP)
  60:.\Generated_Source\PSoC5/Timer_Line_Begin.c ****             Timer_Line_Begin_CONTROL3 &= ~Timer_Line_Begin_CTRL_MODE_MASK;
  61:.\Generated_Source\PSoC5/Timer_Line_Begin.c ****         #endif /* CONTROL3 register exists only in PSoC3 OR PSoC5LP */
  62:.\Generated_Source\PSoC5/Timer_Line_Begin.c **** 
  63:.\Generated_Source\PSoC5/Timer_Line_Begin.c ****         /* Check if One Shot mode is enabled i.e. RunMode !=0*/
  64:.\Generated_Source\PSoC5/Timer_Line_Begin.c ****         #if (Timer_Line_Begin_RunModeUsed != 0x0u)
  65:.\Generated_Source\PSoC5/Timer_Line_Begin.c ****             /* Set 3rd bit of Control register to enable one shot mode */
  66:.\Generated_Source\PSoC5/Timer_Line_Begin.c ****             Timer_Line_Begin_CONTROL |= 0x04u;
  67:.\Generated_Source\PSoC5/Timer_Line_Begin.c ****         #endif /* One Shot enabled only when RunModeUsed is not Continuous*/
  68:.\Generated_Source\PSoC5/Timer_Line_Begin.c **** 
  69:.\Generated_Source\PSoC5/Timer_Line_Begin.c ****         #if (Timer_Line_Begin_RunModeUsed == 2)
  70:.\Generated_Source\PSoC5/Timer_Line_Begin.c ****             #if (CY_PSOC5A)
  71:.\Generated_Source\PSoC5/Timer_Line_Begin.c ****                 /* Set last 2 bits of control2 register if one shot(halt on
  72:.\Generated_Source\PSoC5/Timer_Line_Begin.c ****                 interrupt) is enabled*/
  73:.\Generated_Source\PSoC5/Timer_Line_Begin.c ****                 Timer_Line_Begin_CONTROL2 |= 0x03u;
  74:.\Generated_Source\PSoC5/Timer_Line_Begin.c ****             #endif /* Set One-Shot Halt on Interrupt bit in CONTROL2 for PSoC5A */
  75:.\Generated_Source\PSoC5/Timer_Line_Begin.c **** 
  76:.\Generated_Source\PSoC5/Timer_Line_Begin.c ****             #if (CY_PSOC3 || CY_PSOC5LP)
  77:.\Generated_Source\PSoC5/Timer_Line_Begin.c ****                 /* Set last 2 bits of control3 register if one shot(halt on
  78:.\Generated_Source\PSoC5/Timer_Line_Begin.c ****                 interrupt) is enabled*/
  79:.\Generated_Source\PSoC5/Timer_Line_Begin.c ****                 Timer_Line_Begin_CONTROL3 |= 0x03u;
  80:.\Generated_Source\PSoC5/Timer_Line_Begin.c ****             #endif /* Set One-Shot Halt on Interrupt bit in CONTROL3 for PSoC3 or PSoC5LP */
  81:.\Generated_Source\PSoC5/Timer_Line_Begin.c **** 
  82:.\Generated_Source\PSoC5/Timer_Line_Begin.c ****         #endif /* Remove section if One Shot Halt on Interrupt is not enabled */
  83:.\Generated_Source\PSoC5/Timer_Line_Begin.c **** 
  84:.\Generated_Source\PSoC5/Timer_Line_Begin.c ****         #if (Timer_Line_Begin_UsingHWEnable != 0)
  85:.\Generated_Source\PSoC5/Timer_Line_Begin.c ****             #if (CY_PSOC5A)
  86:.\Generated_Source\PSoC5/Timer_Line_Begin.c ****                 /* Set the default Run Mode of the Timer to Continuous */
  87:.\Generated_Source\PSoC5/Timer_Line_Begin.c ****                 Timer_Line_Begin_CONTROL2 |= Timer_Line_Begin_CTRL_MODE_PULSEWIDTH;
  88:.\Generated_Source\PSoC5/Timer_Line_Begin.c ****             #endif /* Set Continuous Run Mode in CONTROL2 for PSoC5A */
  89:.\Generated_Source\PSoC5/Timer_Line_Begin.c **** 
  90:.\Generated_Source\PSoC5/Timer_Line_Begin.c ****             #if (CY_PSOC3 || CY_PSOC5LP)
  91:.\Generated_Source\PSoC5/Timer_Line_Begin.c ****                 /* Clear and Set ROD and COD bits of CFG2 register */
  92:.\Generated_Source\PSoC5/Timer_Line_Begin.c ****                 Timer_Line_Begin_CONTROL3 &= ~Timer_Line_Begin_CTRL_RCOD_MASK;
  93:.\Generated_Source\PSoC5/Timer_Line_Begin.c ****                 Timer_Line_Begin_CONTROL3 |= Timer_Line_Begin_CTRL_RCOD;
  94:.\Generated_Source\PSoC5/Timer_Line_Begin.c **** 
  95:.\Generated_Source\PSoC5/Timer_Line_Begin.c ****                 /* Clear and Enable the HW enable bit in CFG2 register */
  96:.\Generated_Source\PSoC5/Timer_Line_Begin.c ****                 Timer_Line_Begin_CONTROL3 &= ~Timer_Line_Begin_CTRL_ENBL_MASK;
  97:.\Generated_Source\PSoC5/Timer_Line_Begin.c ****                 Timer_Line_Begin_CONTROL3 |= Timer_Line_Begin_CTRL_ENBL;
  98:.\Generated_Source\PSoC5/Timer_Line_Begin.c **** 
  99:.\Generated_Source\PSoC5/Timer_Line_Begin.c ****                 /* Set the default Run Mode of the Timer to Continuous */
 100:.\Generated_Source\PSoC5/Timer_Line_Begin.c ****                 Timer_Line_Begin_CONTROL3 |= Timer_Line_Begin_CTRL_MODE_CONTINUOUS;
 101:.\Generated_Source\PSoC5/Timer_Line_Begin.c ****             #endif /* Set Continuous Run Mode in CONTROL3 for PSoC3ES3 or PSoC5A */
 102:.\Generated_Source\PSoC5/Timer_Line_Begin.c **** 
 103:.\Generated_Source\PSoC5/Timer_Line_Begin.c ****         #endif /* Configure Run Mode with hardware enable */
 104:.\Generated_Source\PSoC5/Timer_Line_Begin.c **** 
 105:.\Generated_Source\PSoC5/Timer_Line_Begin.c ****         /* Clear and Set SYNCTC and SYNCCMP bits of RT1 register */
 106:.\Generated_Source\PSoC5/Timer_Line_Begin.c ****         Timer_Line_Begin_RT1 &= ~Timer_Line_Begin_RT1_MASK;
 107:.\Generated_Source\PSoC5/Timer_Line_Begin.c ****         Timer_Line_Begin_RT1 |= Timer_Line_Begin_SYNC;
 108:.\Generated_Source\PSoC5/Timer_Line_Begin.c **** 
 109:.\Generated_Source\PSoC5/Timer_Line_Begin.c ****         /*Enable DSI Sync all all inputs of the Timer*/
 110:.\Generated_Source\PSoC5/Timer_Line_Begin.c ****         Timer_Line_Begin_RT1 &= ~(Timer_Line_Begin_SYNCDSI_MASK);
 111:.\Generated_Source\PSoC5/Timer_Line_Begin.c ****         Timer_Line_Begin_RT1 |= Timer_Line_Begin_SYNCDSI_EN;
 112:.\Generated_Source\PSoC5/Timer_Line_Begin.c **** 
 113:.\Generated_Source\PSoC5/Timer_Line_Begin.c ****         /* Set the IRQ to use the status register interrupts */
 114:.\Generated_Source\PSoC5/Timer_Line_Begin.c ****         Timer_Line_Begin_CONTROL2 |= Timer_Line_Begin_CTRL2_IRQ_SEL;
 115:.\Generated_Source\PSoC5/Timer_Line_Begin.c ****     #endif /* Configuring registers of fixed function implementation */
ARM GAS  C:\Users\bccho\AppData\Local\Temp\ccgG2AVn.s 			page 4


 116:.\Generated_Source\PSoC5/Timer_Line_Begin.c **** 
 117:.\Generated_Source\PSoC5/Timer_Line_Begin.c ****     /* Set Initial values from Configuration */
 118:.\Generated_Source\PSoC5/Timer_Line_Begin.c ****     Timer_Line_Begin_WritePeriod(Timer_Line_Begin_INIT_PERIOD);
  53              		.loc 1 118 0
  54 0006 4FF6FF70 		movw	r0, #65535
  55 000a FFF7FEFF 		bl	Timer_Line_Begin_WritePeriod
 119:.\Generated_Source\PSoC5/Timer_Line_Begin.c ****     Timer_Line_Begin_WriteCounter(Timer_Line_Begin_INIT_PERIOD);
  56              		.loc 1 119 0
  57 000e 4FF6FF70 		movw	r0, #65535
  58 0012 FFF7FEFF 		bl	Timer_Line_Begin_WriteCounter
 120:.\Generated_Source\PSoC5/Timer_Line_Begin.c **** 
 121:.\Generated_Source\PSoC5/Timer_Line_Begin.c ****     #if (Timer_Line_Begin_UsingHWCaptureCounter)/* Capture counter is enabled */
 122:.\Generated_Source\PSoC5/Timer_Line_Begin.c ****         Timer_Line_Begin_CAPTURE_COUNT_CTRL |= Timer_Line_Begin_CNTR_ENABLE;
  59              		.loc 1 122 0
  60 0016 46F29843 		movw	r3, #:lower16:1073767576
  61 001a C4F20003 		movt	r3, #:upper16:1073767576
  62 001e 46F29842 		movw	r2, #:lower16:1073767576
  63 0022 C4F20002 		movt	r2, #:upper16:1073767576
  64 0026 1278     		ldrb	r2, [r2, #0]
  65 0028 D2B2     		uxtb	r2, r2
  66 002a 42F02002 		orr	r2, r2, #32
  67 002e D2B2     		uxtb	r2, r2
  68 0030 1A70     		strb	r2, [r3, #0]
 123:.\Generated_Source\PSoC5/Timer_Line_Begin.c ****         Timer_Line_Begin_SetCaptureCount(Timer_Line_Begin_INIT_CAPTURE_COUNT);
  69              		.loc 1 123 0
  70 0032 4FF00200 		mov	r0, #2
  71 0036 FFF7FEFF 		bl	Timer_Line_Begin_SetCaptureCount
 124:.\Generated_Source\PSoC5/Timer_Line_Begin.c ****     #endif /* Configure capture counter value */
 125:.\Generated_Source\PSoC5/Timer_Line_Begin.c **** 
 126:.\Generated_Source\PSoC5/Timer_Line_Begin.c ****     #if (!Timer_Line_Begin_UsingFixedFunction)
 127:.\Generated_Source\PSoC5/Timer_Line_Begin.c ****         #if (Timer_Line_Begin_SoftwareCaptureMode)
 128:.\Generated_Source\PSoC5/Timer_Line_Begin.c ****             Timer_Line_Begin_SetCaptureMode(Timer_Line_Begin_INIT_CAPTURE_MODE);
 129:.\Generated_Source\PSoC5/Timer_Line_Begin.c ****         #endif /* Set Capture Mode for UDB implementation if capture mode is software controlled */
 130:.\Generated_Source\PSoC5/Timer_Line_Begin.c **** 
 131:.\Generated_Source\PSoC5/Timer_Line_Begin.c ****         #if (Timer_Line_Begin_SoftwareTriggerMode)
 132:.\Generated_Source\PSoC5/Timer_Line_Begin.c ****             if (!(Timer_Line_Begin_CONTROL & Timer_Line_Begin__B_TIMER__TM_SOFTWARE))
 133:.\Generated_Source\PSoC5/Timer_Line_Begin.c ****             {
 134:.\Generated_Source\PSoC5/Timer_Line_Begin.c ****                 Timer_Line_Begin_SetTriggerMode(Timer_Line_Begin_INIT_TRIGGER_MODE);
 135:.\Generated_Source\PSoC5/Timer_Line_Begin.c ****             }
 136:.\Generated_Source\PSoC5/Timer_Line_Begin.c ****         #endif /* Set trigger mode for UDB Implementation if trigger mode is software controlled */
 137:.\Generated_Source\PSoC5/Timer_Line_Begin.c **** 
 138:.\Generated_Source\PSoC5/Timer_Line_Begin.c ****         /* CyEnterCriticalRegion and CyExitCriticalRegion are used to mark following region critica
 139:.\Generated_Source\PSoC5/Timer_Line_Begin.c ****         /* Enter Critical Region*/
 140:.\Generated_Source\PSoC5/Timer_Line_Begin.c ****         Timer_Line_Begin_interruptState = CyEnterCriticalSection();
  72              		.loc 1 140 0
  73 003a FFF7FEFF 		bl	CyEnterCriticalSection
  74 003e 0346     		mov	r3, r0
  75 0040 FB71     		strb	r3, [r7, #7]
 141:.\Generated_Source\PSoC5/Timer_Line_Begin.c **** 
 142:.\Generated_Source\PSoC5/Timer_Line_Begin.c ****         /* Use the interrupt output of the status register for IRQ output */
 143:.\Generated_Source\PSoC5/Timer_Line_Begin.c ****         Timer_Line_Begin_STATUS_AUX_CTRL |= Timer_Line_Begin_STATUS_ACTL_INT_EN_MASK;
  76              		.loc 1 143 0
  77 0042 46F29653 		movw	r3, #:lower16:1073767830
  78 0046 C4F20003 		movt	r3, #:upper16:1073767830
  79 004a 46F29652 		movw	r2, #:lower16:1073767830
  80 004e C4F20002 		movt	r2, #:upper16:1073767830
  81 0052 1278     		ldrb	r2, [r2, #0]
ARM GAS  C:\Users\bccho\AppData\Local\Temp\ccgG2AVn.s 			page 5


  82 0054 D2B2     		uxtb	r2, r2
  83 0056 42F01002 		orr	r2, r2, #16
  84 005a D2B2     		uxtb	r2, r2
  85 005c 1A70     		strb	r2, [r3, #0]
 144:.\Generated_Source\PSoC5/Timer_Line_Begin.c **** 
 145:.\Generated_Source\PSoC5/Timer_Line_Begin.c ****         /* Exit Critical Region*/
 146:.\Generated_Source\PSoC5/Timer_Line_Begin.c ****         CyExitCriticalSection(Timer_Line_Begin_interruptState);
  86              		.loc 1 146 0
  87 005e FB79     		ldrb	r3, [r7, #7]	@ zero_extendqisi2
  88 0060 1846     		mov	r0, r3
  89 0062 FFF7FEFF 		bl	CyExitCriticalSection
 147:.\Generated_Source\PSoC5/Timer_Line_Begin.c **** 
 148:.\Generated_Source\PSoC5/Timer_Line_Begin.c ****         #if (Timer_Line_Begin_EnableTriggerMode)
 149:.\Generated_Source\PSoC5/Timer_Line_Begin.c ****             Timer_Line_Begin_EnableTrigger();
 150:.\Generated_Source\PSoC5/Timer_Line_Begin.c ****         #endif /* Set Trigger enable bit for UDB implementation in the control register*/
 151:.\Generated_Source\PSoC5/Timer_Line_Begin.c **** 
 152:.\Generated_Source\PSoC5/Timer_Line_Begin.c ****         #if (Timer_Line_Begin_InterruptOnCaptureCount)
 153:.\Generated_Source\PSoC5/Timer_Line_Begin.c ****              #if (!Timer_Line_Begin_ControlRegRemoved)
 154:.\Generated_Source\PSoC5/Timer_Line_Begin.c ****                 Timer_Line_Begin_SetInterruptCount(Timer_Line_Begin_INIT_INT_CAPTURE_COUNT);
  90              		.loc 1 154 0
  91 0066 4FF00000 		mov	r0, #0
  92 006a FFF7FEFF 		bl	Timer_Line_Begin_SetInterruptCount
 155:.\Generated_Source\PSoC5/Timer_Line_Begin.c ****             #endif /* Set interrupt count in control register if control register is not removed */
 156:.\Generated_Source\PSoC5/Timer_Line_Begin.c ****         #endif /*Set interrupt count in UDB implementation if interrupt count feature is checked.*/
 157:.\Generated_Source\PSoC5/Timer_Line_Begin.c **** 
 158:.\Generated_Source\PSoC5/Timer_Line_Begin.c ****         Timer_Line_Begin_ClearFIFO();
  93              		.loc 1 158 0
  94 006e FFF7FEFF 		bl	Timer_Line_Begin_ClearFIFO
 159:.\Generated_Source\PSoC5/Timer_Line_Begin.c ****     #endif /* Configure additional features of UDB implementation */
 160:.\Generated_Source\PSoC5/Timer_Line_Begin.c **** 
 161:.\Generated_Source\PSoC5/Timer_Line_Begin.c ****     Timer_Line_Begin_SetInterruptMode(Timer_Line_Begin_INIT_INTERRUPT_MODE);
  95              		.loc 1 161 0
  96 0072 4FF00200 		mov	r0, #2
  97 0076 FFF7FEFF 		bl	Timer_Line_Begin_SetInterruptMode
 162:.\Generated_Source\PSoC5/Timer_Line_Begin.c **** }
  98              		.loc 1 162 0
  99 007a 07F10807 		add	r7, r7, #8
 100 007e BD46     		mov	sp, r7
 101 0080 80BD     		pop	{r7, pc}
 102              		.cfi_endproc
 103              	.LFE0:
 104              		.size	Timer_Line_Begin_Init, .-Timer_Line_Begin_Init
 105 0082 00BF     		.section	.text.Timer_Line_Begin_Enable,"ax",%progbits
 106              		.align	2
 107              		.global	Timer_Line_Begin_Enable
 108              		.thumb
 109              		.thumb_func
 110              		.type	Timer_Line_Begin_Enable, %function
 111              	Timer_Line_Begin_Enable:
 112              	.LFB1:
 163:.\Generated_Source\PSoC5/Timer_Line_Begin.c **** 
 164:.\Generated_Source\PSoC5/Timer_Line_Begin.c **** 
 165:.\Generated_Source\PSoC5/Timer_Line_Begin.c **** /*******************************************************************************
 166:.\Generated_Source\PSoC5/Timer_Line_Begin.c **** * Function Name: Timer_Line_Begin_Enable
 167:.\Generated_Source\PSoC5/Timer_Line_Begin.c **** ********************************************************************************
 168:.\Generated_Source\PSoC5/Timer_Line_Begin.c **** *
 169:.\Generated_Source\PSoC5/Timer_Line_Begin.c **** * Summary:
ARM GAS  C:\Users\bccho\AppData\Local\Temp\ccgG2AVn.s 			page 6


 170:.\Generated_Source\PSoC5/Timer_Line_Begin.c **** *  Enable the Timer
 171:.\Generated_Source\PSoC5/Timer_Line_Begin.c **** *
 172:.\Generated_Source\PSoC5/Timer_Line_Begin.c **** * Parameters:
 173:.\Generated_Source\PSoC5/Timer_Line_Begin.c **** *  void
 174:.\Generated_Source\PSoC5/Timer_Line_Begin.c **** *
 175:.\Generated_Source\PSoC5/Timer_Line_Begin.c **** * Return:
 176:.\Generated_Source\PSoC5/Timer_Line_Begin.c **** *  void
 177:.\Generated_Source\PSoC5/Timer_Line_Begin.c **** *
 178:.\Generated_Source\PSoC5/Timer_Line_Begin.c **** *******************************************************************************/
 179:.\Generated_Source\PSoC5/Timer_Line_Begin.c **** void Timer_Line_Begin_Enable(void) 
 180:.\Generated_Source\PSoC5/Timer_Line_Begin.c **** {
 113              		.loc 1 180 0
 114              		.cfi_startproc
 115              		@ args = 0, pretend = 0, frame = 0
 116              		@ frame_needed = 1, uses_anonymous_args = 0
 117              		@ link register save eliminated.
 118 0000 80B4     		push	{r7}
 119              	.LCFI3:
 120              		.cfi_def_cfa_offset 4
 121 0002 00AF     		add	r7, sp, #0
 122              		.cfi_offset 7, -4
 123              	.LCFI4:
 124              		.cfi_def_cfa_register 7
 181:.\Generated_Source\PSoC5/Timer_Line_Begin.c ****     /* Globally Enable the Fixed Function Block chosen */
 182:.\Generated_Source\PSoC5/Timer_Line_Begin.c ****     #if (Timer_Line_Begin_UsingFixedFunction)
 183:.\Generated_Source\PSoC5/Timer_Line_Begin.c ****         Timer_Line_Begin_GLOBAL_ENABLE |= Timer_Line_Begin_BLOCK_EN_MASK;
 184:.\Generated_Source\PSoC5/Timer_Line_Begin.c ****         Timer_Line_Begin_GLOBAL_STBY_ENABLE |= Timer_Line_Begin_BLOCK_STBY_EN_MASK;
 185:.\Generated_Source\PSoC5/Timer_Line_Begin.c ****     #endif /* Set Enable bit for enabling Fixed function timer*/
 186:.\Generated_Source\PSoC5/Timer_Line_Begin.c **** 
 187:.\Generated_Source\PSoC5/Timer_Line_Begin.c ****     /* Remove assignment if control register is removed */
 188:.\Generated_Source\PSoC5/Timer_Line_Begin.c ****     #if (!Timer_Line_Begin_ControlRegRemoved || Timer_Line_Begin_UsingFixedFunction)
 189:.\Generated_Source\PSoC5/Timer_Line_Begin.c ****         Timer_Line_Begin_CONTROL |= Timer_Line_Begin_CTRL_ENABLE;
 125              		.loc 1 189 0
 126 0004 46F27243 		movw	r3, #:lower16:1073767538
 127 0008 C4F20003 		movt	r3, #:upper16:1073767538
 128 000c 46F27242 		movw	r2, #:lower16:1073767538
 129 0010 C4F20002 		movt	r2, #:upper16:1073767538
 130 0014 1278     		ldrb	r2, [r2, #0]
 131 0016 D2B2     		uxtb	r2, r2
 132 0018 6FEA4262 		mvn	r2, r2, lsl #25
 133 001c 6FEA5262 		mvn	r2, r2, lsr #25
 134 0020 D2B2     		uxtb	r2, r2
 135 0022 1A70     		strb	r2, [r3, #0]
 190:.\Generated_Source\PSoC5/Timer_Line_Begin.c ****     #endif /* Remove assignment if control register is removed */
 191:.\Generated_Source\PSoC5/Timer_Line_Begin.c **** }
 136              		.loc 1 191 0
 137 0024 BD46     		mov	sp, r7
 138 0026 80BC     		pop	{r7}
 139 0028 7047     		bx	lr
 140              		.cfi_endproc
 141              	.LFE1:
 142              		.size	Timer_Line_Begin_Enable, .-Timer_Line_Begin_Enable
 143 002a 00BF     		.section	.text.Timer_Line_Begin_Start,"ax",%progbits
 144              		.align	2
 145              		.global	Timer_Line_Begin_Start
 146              		.thumb
 147              		.thumb_func
ARM GAS  C:\Users\bccho\AppData\Local\Temp\ccgG2AVn.s 			page 7


 148              		.type	Timer_Line_Begin_Start, %function
 149              	Timer_Line_Begin_Start:
 150              	.LFB2:
 192:.\Generated_Source\PSoC5/Timer_Line_Begin.c **** 
 193:.\Generated_Source\PSoC5/Timer_Line_Begin.c **** 
 194:.\Generated_Source\PSoC5/Timer_Line_Begin.c **** /*******************************************************************************
 195:.\Generated_Source\PSoC5/Timer_Line_Begin.c **** * Function Name: Timer_Line_Begin_Start
 196:.\Generated_Source\PSoC5/Timer_Line_Begin.c **** ********************************************************************************
 197:.\Generated_Source\PSoC5/Timer_Line_Begin.c **** *
 198:.\Generated_Source\PSoC5/Timer_Line_Begin.c **** * Summary:
 199:.\Generated_Source\PSoC5/Timer_Line_Begin.c **** *  The start function initializes the timer with the default values, the
 200:.\Generated_Source\PSoC5/Timer_Line_Begin.c **** *  enables the timerto begin counting.  It does not enable interrupts,
 201:.\Generated_Source\PSoC5/Timer_Line_Begin.c **** *  the EnableInt command should be called if interrupt generation is required.
 202:.\Generated_Source\PSoC5/Timer_Line_Begin.c **** *
 203:.\Generated_Source\PSoC5/Timer_Line_Begin.c **** * Parameters:
 204:.\Generated_Source\PSoC5/Timer_Line_Begin.c **** *  void
 205:.\Generated_Source\PSoC5/Timer_Line_Begin.c **** *
 206:.\Generated_Source\PSoC5/Timer_Line_Begin.c **** * Return:
 207:.\Generated_Source\PSoC5/Timer_Line_Begin.c **** *  void
 208:.\Generated_Source\PSoC5/Timer_Line_Begin.c **** *
 209:.\Generated_Source\PSoC5/Timer_Line_Begin.c **** * Global variables:
 210:.\Generated_Source\PSoC5/Timer_Line_Begin.c **** *  Timer_Line_Begin_initVar: Is modified when this function is called for the
 211:.\Generated_Source\PSoC5/Timer_Line_Begin.c **** *   first time. Is used to ensure that initialization happens only once.
 212:.\Generated_Source\PSoC5/Timer_Line_Begin.c **** *
 213:.\Generated_Source\PSoC5/Timer_Line_Begin.c **** *******************************************************************************/
 214:.\Generated_Source\PSoC5/Timer_Line_Begin.c **** void Timer_Line_Begin_Start(void) 
 215:.\Generated_Source\PSoC5/Timer_Line_Begin.c **** {
 151              		.loc 1 215 0
 152              		.cfi_startproc
 153              		@ args = 0, pretend = 0, frame = 0
 154              		@ frame_needed = 1, uses_anonymous_args = 0
 155 0000 80B5     		push	{r7, lr}
 156              	.LCFI5:
 157              		.cfi_def_cfa_offset 8
 158 0002 00AF     		add	r7, sp, #0
 159              		.cfi_offset 14, -4
 160              		.cfi_offset 7, -8
 161              	.LCFI6:
 162              		.cfi_def_cfa_register 7
 216:.\Generated_Source\PSoC5/Timer_Line_Begin.c ****     if(Timer_Line_Begin_initVar == 0u)
 163              		.loc 1 216 0
 164 0004 40F20003 		movw	r3, #:lower16:Timer_Line_Begin_initVar
 165 0008 C0F20003 		movt	r3, #:upper16:Timer_Line_Begin_initVar
 166 000c 1B78     		ldrb	r3, [r3, #0]	@ zero_extendqisi2
 167 000e 002B     		cmp	r3, #0
 168 0010 08D1     		bne	.L6
 217:.\Generated_Source\PSoC5/Timer_Line_Begin.c ****     {
 218:.\Generated_Source\PSoC5/Timer_Line_Begin.c ****         Timer_Line_Begin_Init();
 169              		.loc 1 218 0
 170 0012 FFF7FEFF 		bl	Timer_Line_Begin_Init
 219:.\Generated_Source\PSoC5/Timer_Line_Begin.c **** 
 220:.\Generated_Source\PSoC5/Timer_Line_Begin.c ****         Timer_Line_Begin_initVar = 1u;   /* Clear this bit for Initialization */
 171              		.loc 1 220 0
 172 0016 40F20003 		movw	r3, #:lower16:Timer_Line_Begin_initVar
 173 001a C0F20003 		movt	r3, #:upper16:Timer_Line_Begin_initVar
 174 001e 4FF00102 		mov	r2, #1
 175 0022 1A70     		strb	r2, [r3, #0]
ARM GAS  C:\Users\bccho\AppData\Local\Temp\ccgG2AVn.s 			page 8


 176              	.L6:
 221:.\Generated_Source\PSoC5/Timer_Line_Begin.c ****     }
 222:.\Generated_Source\PSoC5/Timer_Line_Begin.c **** 
 223:.\Generated_Source\PSoC5/Timer_Line_Begin.c ****     /* Enable the Timer */
 224:.\Generated_Source\PSoC5/Timer_Line_Begin.c ****     Timer_Line_Begin_Enable();
 177              		.loc 1 224 0
 178 0024 FFF7FEFF 		bl	Timer_Line_Begin_Enable
 225:.\Generated_Source\PSoC5/Timer_Line_Begin.c **** }
 179              		.loc 1 225 0
 180 0028 80BD     		pop	{r7, pc}
 181              		.cfi_endproc
 182              	.LFE2:
 183              		.size	Timer_Line_Begin_Start, .-Timer_Line_Begin_Start
 184 002a 00BF     		.section	.text.Timer_Line_Begin_Stop,"ax",%progbits
 185              		.align	2
 186              		.global	Timer_Line_Begin_Stop
 187              		.thumb
 188              		.thumb_func
 189              		.type	Timer_Line_Begin_Stop, %function
 190              	Timer_Line_Begin_Stop:
 191              	.LFB3:
 226:.\Generated_Source\PSoC5/Timer_Line_Begin.c **** 
 227:.\Generated_Source\PSoC5/Timer_Line_Begin.c **** 
 228:.\Generated_Source\PSoC5/Timer_Line_Begin.c **** /*******************************************************************************
 229:.\Generated_Source\PSoC5/Timer_Line_Begin.c **** * Function Name: Timer_Line_Begin_Stop
 230:.\Generated_Source\PSoC5/Timer_Line_Begin.c **** ********************************************************************************
 231:.\Generated_Source\PSoC5/Timer_Line_Begin.c **** *
 232:.\Generated_Source\PSoC5/Timer_Line_Begin.c **** * Summary:
 233:.\Generated_Source\PSoC5/Timer_Line_Begin.c **** *  The stop function halts the timer, but does not change any modes or disable
 234:.\Generated_Source\PSoC5/Timer_Line_Begin.c **** *  interrupts.
 235:.\Generated_Source\PSoC5/Timer_Line_Begin.c **** *
 236:.\Generated_Source\PSoC5/Timer_Line_Begin.c **** * Parameters:
 237:.\Generated_Source\PSoC5/Timer_Line_Begin.c **** *  void
 238:.\Generated_Source\PSoC5/Timer_Line_Begin.c **** *
 239:.\Generated_Source\PSoC5/Timer_Line_Begin.c **** * Return:
 240:.\Generated_Source\PSoC5/Timer_Line_Begin.c **** *  void
 241:.\Generated_Source\PSoC5/Timer_Line_Begin.c **** *
 242:.\Generated_Source\PSoC5/Timer_Line_Begin.c **** * Side Effects: If the Enable mode is set to Hardware only then this function
 243:.\Generated_Source\PSoC5/Timer_Line_Begin.c **** *               has no effect on the operation of the timer.
 244:.\Generated_Source\PSoC5/Timer_Line_Begin.c **** *
 245:.\Generated_Source\PSoC5/Timer_Line_Begin.c **** *******************************************************************************/
 246:.\Generated_Source\PSoC5/Timer_Line_Begin.c **** void Timer_Line_Begin_Stop(void) 
 247:.\Generated_Source\PSoC5/Timer_Line_Begin.c **** {
 192              		.loc 1 247 0
 193              		.cfi_startproc
 194              		@ args = 0, pretend = 0, frame = 0
 195              		@ frame_needed = 1, uses_anonymous_args = 0
 196              		@ link register save eliminated.
 197 0000 80B4     		push	{r7}
 198              	.LCFI7:
 199              		.cfi_def_cfa_offset 4
 200 0002 00AF     		add	r7, sp, #0
 201              		.cfi_offset 7, -4
 202              	.LCFI8:
 203              		.cfi_def_cfa_register 7
 248:.\Generated_Source\PSoC5/Timer_Line_Begin.c ****     /* Disable Timer */
 249:.\Generated_Source\PSoC5/Timer_Line_Begin.c ****     #if(!Timer_Line_Begin_ControlRegRemoved || Timer_Line_Begin_UsingFixedFunction)
ARM GAS  C:\Users\bccho\AppData\Local\Temp\ccgG2AVn.s 			page 9


 250:.\Generated_Source\PSoC5/Timer_Line_Begin.c ****         Timer_Line_Begin_CONTROL &= ~Timer_Line_Begin_CTRL_ENABLE;
 204              		.loc 1 250 0
 205 0004 46F27243 		movw	r3, #:lower16:1073767538
 206 0008 C4F20003 		movt	r3, #:upper16:1073767538
 207 000c 46F27242 		movw	r2, #:lower16:1073767538
 208 0010 C4F20002 		movt	r2, #:upper16:1073767538
 209 0014 1278     		ldrb	r2, [r2, #0]
 210 0016 D2B2     		uxtb	r2, r2
 211 0018 02F07F02 		and	r2, r2, #127
 212 001c 1A70     		strb	r2, [r3, #0]
 251:.\Generated_Source\PSoC5/Timer_Line_Begin.c ****     #endif /* Remove assignment if control register is removed */
 252:.\Generated_Source\PSoC5/Timer_Line_Begin.c **** 
 253:.\Generated_Source\PSoC5/Timer_Line_Begin.c ****     /* Globally disable the Fixed Function Block chosen */
 254:.\Generated_Source\PSoC5/Timer_Line_Begin.c ****     #if (Timer_Line_Begin_UsingFixedFunction)
 255:.\Generated_Source\PSoC5/Timer_Line_Begin.c ****         Timer_Line_Begin_GLOBAL_ENABLE &= ~Timer_Line_Begin_BLOCK_EN_MASK;
 256:.\Generated_Source\PSoC5/Timer_Line_Begin.c ****         Timer_Line_Begin_GLOBAL_STBY_ENABLE &= ~Timer_Line_Begin_BLOCK_STBY_EN_MASK;
 257:.\Generated_Source\PSoC5/Timer_Line_Begin.c ****     #endif /* Disable global enable for the Timer Fixed function block to stop the Timer*/
 258:.\Generated_Source\PSoC5/Timer_Line_Begin.c **** }
 213              		.loc 1 258 0
 214 001e BD46     		mov	sp, r7
 215 0020 80BC     		pop	{r7}
 216 0022 7047     		bx	lr
 217              		.cfi_endproc
 218              	.LFE3:
 219              		.size	Timer_Line_Begin_Stop, .-Timer_Line_Begin_Stop
 220              		.section	.text.Timer_Line_Begin_SetInterruptMode,"ax",%progbits
 221              		.align	2
 222              		.global	Timer_Line_Begin_SetInterruptMode
 223              		.thumb
 224              		.thumb_func
 225              		.type	Timer_Line_Begin_SetInterruptMode, %function
 226              	Timer_Line_Begin_SetInterruptMode:
 227              	.LFB4:
 259:.\Generated_Source\PSoC5/Timer_Line_Begin.c **** 
 260:.\Generated_Source\PSoC5/Timer_Line_Begin.c **** 
 261:.\Generated_Source\PSoC5/Timer_Line_Begin.c **** /*******************************************************************************
 262:.\Generated_Source\PSoC5/Timer_Line_Begin.c **** * Function Name: Timer_Line_Begin_SetInterruptMode
 263:.\Generated_Source\PSoC5/Timer_Line_Begin.c **** ********************************************************************************
 264:.\Generated_Source\PSoC5/Timer_Line_Begin.c **** *
 265:.\Generated_Source\PSoC5/Timer_Line_Begin.c **** * Summary:
 266:.\Generated_Source\PSoC5/Timer_Line_Begin.c **** *  This function selects which of the interrupt inputs may cause an interrupt.
 267:.\Generated_Source\PSoC5/Timer_Line_Begin.c **** *  The twosources are caputure and terminal.  One, both or neither may
 268:.\Generated_Source\PSoC5/Timer_Line_Begin.c **** *  be selected.
 269:.\Generated_Source\PSoC5/Timer_Line_Begin.c **** *
 270:.\Generated_Source\PSoC5/Timer_Line_Begin.c **** * Parameters:
 271:.\Generated_Source\PSoC5/Timer_Line_Begin.c **** *  interruptMode:   This parameter is used to enable interrups on either/or
 272:.\Generated_Source\PSoC5/Timer_Line_Begin.c **** *                   terminal count or capture.
 273:.\Generated_Source\PSoC5/Timer_Line_Begin.c **** *
 274:.\Generated_Source\PSoC5/Timer_Line_Begin.c **** * Return:
 275:.\Generated_Source\PSoC5/Timer_Line_Begin.c **** *  void
 276:.\Generated_Source\PSoC5/Timer_Line_Begin.c **** *
 277:.\Generated_Source\PSoC5/Timer_Line_Begin.c **** *******************************************************************************/
 278:.\Generated_Source\PSoC5/Timer_Line_Begin.c **** void Timer_Line_Begin_SetInterruptMode(uint8 interruptMode) 
 279:.\Generated_Source\PSoC5/Timer_Line_Begin.c **** {
 228              		.loc 1 279 0
 229              		.cfi_startproc
 230              		@ args = 0, pretend = 0, frame = 8
ARM GAS  C:\Users\bccho\AppData\Local\Temp\ccgG2AVn.s 			page 10


 231              		@ frame_needed = 1, uses_anonymous_args = 0
 232              		@ link register save eliminated.
 233 0000 80B4     		push	{r7}
 234              	.LCFI9:
 235              		.cfi_def_cfa_offset 4
 236 0002 83B0     		sub	sp, sp, #12
 237              	.LCFI10:
 238              		.cfi_def_cfa_offset 16
 239 0004 00AF     		add	r7, sp, #0
 240              		.cfi_offset 7, -4
 241              	.LCFI11:
 242              		.cfi_def_cfa_register 7
 243 0006 0346     		mov	r3, r0
 244 0008 FB71     		strb	r3, [r7, #7]
 280:.\Generated_Source\PSoC5/Timer_Line_Begin.c ****     Timer_Line_Begin_STATUS_MASK = interruptMode;
 245              		.loc 1 280 0
 246 000a 46F28653 		movw	r3, #:lower16:1073767814
 247 000e C4F20003 		movt	r3, #:upper16:1073767814
 248 0012 FA79     		ldrb	r2, [r7, #7]
 249 0014 1A70     		strb	r2, [r3, #0]
 281:.\Generated_Source\PSoC5/Timer_Line_Begin.c **** }
 250              		.loc 1 281 0
 251 0016 07F10C07 		add	r7, r7, #12
 252 001a BD46     		mov	sp, r7
 253 001c 80BC     		pop	{r7}
 254 001e 7047     		bx	lr
 255              		.cfi_endproc
 256              	.LFE4:
 257              		.size	Timer_Line_Begin_SetInterruptMode, .-Timer_Line_Begin_SetInterruptMode
 258              		.section	.text.Timer_Line_Begin_SoftwareCapture,"ax",%progbits
 259              		.align	2
 260              		.global	Timer_Line_Begin_SoftwareCapture
 261              		.thumb
 262              		.thumb_func
 263              		.type	Timer_Line_Begin_SoftwareCapture, %function
 264              	Timer_Line_Begin_SoftwareCapture:
 265              	.LFB5:
 282:.\Generated_Source\PSoC5/Timer_Line_Begin.c **** 
 283:.\Generated_Source\PSoC5/Timer_Line_Begin.c **** 
 284:.\Generated_Source\PSoC5/Timer_Line_Begin.c **** /*******************************************************************************
 285:.\Generated_Source\PSoC5/Timer_Line_Begin.c **** * Function Name: Timer_Line_Begin_SoftwareCapture
 286:.\Generated_Source\PSoC5/Timer_Line_Begin.c **** ********************************************************************************
 287:.\Generated_Source\PSoC5/Timer_Line_Begin.c **** *
 288:.\Generated_Source\PSoC5/Timer_Line_Begin.c **** * Summary:
 289:.\Generated_Source\PSoC5/Timer_Line_Begin.c **** *  This function forces a capture independent of the capture signal.
 290:.\Generated_Source\PSoC5/Timer_Line_Begin.c **** *
 291:.\Generated_Source\PSoC5/Timer_Line_Begin.c **** * Parameters:
 292:.\Generated_Source\PSoC5/Timer_Line_Begin.c **** *  void
 293:.\Generated_Source\PSoC5/Timer_Line_Begin.c **** *
 294:.\Generated_Source\PSoC5/Timer_Line_Begin.c **** * Return:
 295:.\Generated_Source\PSoC5/Timer_Line_Begin.c **** *  void
 296:.\Generated_Source\PSoC5/Timer_Line_Begin.c **** *
 297:.\Generated_Source\PSoC5/Timer_Line_Begin.c **** * Side Effects:
 298:.\Generated_Source\PSoC5/Timer_Line_Begin.c **** *  An existing hardware capture could be overwritten.
 299:.\Generated_Source\PSoC5/Timer_Line_Begin.c **** *
 300:.\Generated_Source\PSoC5/Timer_Line_Begin.c **** *******************************************************************************/
 301:.\Generated_Source\PSoC5/Timer_Line_Begin.c **** void Timer_Line_Begin_SoftwareCapture(void) 
ARM GAS  C:\Users\bccho\AppData\Local\Temp\ccgG2AVn.s 			page 11


 302:.\Generated_Source\PSoC5/Timer_Line_Begin.c **** {
 266              		.loc 1 302 0
 267              		.cfi_startproc
 268              		@ args = 0, pretend = 0, frame = 0
 269              		@ frame_needed = 1, uses_anonymous_args = 0
 270              		@ link register save eliminated.
 271 0000 80B4     		push	{r7}
 272              	.LCFI12:
 273              		.cfi_def_cfa_offset 4
 274 0002 00AF     		add	r7, sp, #0
 275              		.cfi_offset 7, -4
 276              	.LCFI13:
 277              		.cfi_def_cfa_register 7
 303:.\Generated_Source\PSoC5/Timer_Line_Begin.c ****     /* Generate a software capture by reading the counter register */
 304:.\Generated_Source\PSoC5/Timer_Line_Begin.c ****     CY_GET_REG8(Timer_Line_Begin_COUNTER_LSB_PTR);
 278              		.loc 1 304 0
 279 0004 46F20553 		movw	r3, #:lower16:1073767685
 280 0008 C4F20003 		movt	r3, #:upper16:1073767685
 281 000c 1B78     		ldrb	r3, [r3, #0]
 305:.\Generated_Source\PSoC5/Timer_Line_Begin.c ****     /* Capture Data is now in the FIFO */
 306:.\Generated_Source\PSoC5/Timer_Line_Begin.c **** }
 282              		.loc 1 306 0
 283 000e BD46     		mov	sp, r7
 284 0010 80BC     		pop	{r7}
 285 0012 7047     		bx	lr
 286              		.cfi_endproc
 287              	.LFE5:
 288              		.size	Timer_Line_Begin_SoftwareCapture, .-Timer_Line_Begin_SoftwareCapture
 289              		.section	.text.Timer_Line_Begin_ReadStatusRegister,"ax",%progbits
 290              		.align	2
 291              		.global	Timer_Line_Begin_ReadStatusRegister
 292              		.thumb
 293              		.thumb_func
 294              		.type	Timer_Line_Begin_ReadStatusRegister, %function
 295              	Timer_Line_Begin_ReadStatusRegister:
 296              	.LFB6:
 307:.\Generated_Source\PSoC5/Timer_Line_Begin.c **** 
 308:.\Generated_Source\PSoC5/Timer_Line_Begin.c **** 
 309:.\Generated_Source\PSoC5/Timer_Line_Begin.c **** /*******************************************************************************
 310:.\Generated_Source\PSoC5/Timer_Line_Begin.c **** * Function Name: Timer_Line_Begin_ReadStatusRegister
 311:.\Generated_Source\PSoC5/Timer_Line_Begin.c **** ********************************************************************************
 312:.\Generated_Source\PSoC5/Timer_Line_Begin.c **** *
 313:.\Generated_Source\PSoC5/Timer_Line_Begin.c **** * Summary:
 314:.\Generated_Source\PSoC5/Timer_Line_Begin.c **** *  Reads the status register and returns it's state. This function should use
 315:.\Generated_Source\PSoC5/Timer_Line_Begin.c **** *  defined types for the bit-field information as the bits in this register may
 316:.\Generated_Source\PSoC5/Timer_Line_Begin.c **** *  be permuteable.
 317:.\Generated_Source\PSoC5/Timer_Line_Begin.c **** *
 318:.\Generated_Source\PSoC5/Timer_Line_Begin.c **** * Parameters:
 319:.\Generated_Source\PSoC5/Timer_Line_Begin.c **** *  void
 320:.\Generated_Source\PSoC5/Timer_Line_Begin.c **** *
 321:.\Generated_Source\PSoC5/Timer_Line_Begin.c **** * Return:
 322:.\Generated_Source\PSoC5/Timer_Line_Begin.c **** *  The contents of the status register
 323:.\Generated_Source\PSoC5/Timer_Line_Begin.c **** *
 324:.\Generated_Source\PSoC5/Timer_Line_Begin.c **** * Side Effects:
 325:.\Generated_Source\PSoC5/Timer_Line_Begin.c **** *  Status register bits may be clear on read.
 326:.\Generated_Source\PSoC5/Timer_Line_Begin.c **** *
 327:.\Generated_Source\PSoC5/Timer_Line_Begin.c **** *******************************************************************************/
ARM GAS  C:\Users\bccho\AppData\Local\Temp\ccgG2AVn.s 			page 12


 328:.\Generated_Source\PSoC5/Timer_Line_Begin.c **** uint8   Timer_Line_Begin_ReadStatusRegister(void) 
 329:.\Generated_Source\PSoC5/Timer_Line_Begin.c **** {
 297              		.loc 1 329 0
 298              		.cfi_startproc
 299              		@ args = 0, pretend = 0, frame = 0
 300              		@ frame_needed = 1, uses_anonymous_args = 0
 301              		@ link register save eliminated.
 302 0000 80B4     		push	{r7}
 303              	.LCFI14:
 304              		.cfi_def_cfa_offset 4
 305 0002 00AF     		add	r7, sp, #0
 306              		.cfi_offset 7, -4
 307              	.LCFI15:
 308              		.cfi_def_cfa_register 7
 330:.\Generated_Source\PSoC5/Timer_Line_Begin.c ****     return Timer_Line_Begin_STATUS;
 309              		.loc 1 330 0
 310 0004 46F26653 		movw	r3, #:lower16:1073767782
 311 0008 C4F20003 		movt	r3, #:upper16:1073767782
 312 000c 1B78     		ldrb	r3, [r3, #0]
 313 000e DBB2     		uxtb	r3, r3
 331:.\Generated_Source\PSoC5/Timer_Line_Begin.c **** }
 314              		.loc 1 331 0
 315 0010 1846     		mov	r0, r3
 316 0012 BD46     		mov	sp, r7
 317 0014 80BC     		pop	{r7}
 318 0016 7047     		bx	lr
 319              		.cfi_endproc
 320              	.LFE6:
 321              		.size	Timer_Line_Begin_ReadStatusRegister, .-Timer_Line_Begin_ReadStatusRegister
 322              		.section	.text.Timer_Line_Begin_ReadControlRegister,"ax",%progbits
 323              		.align	2
 324              		.global	Timer_Line_Begin_ReadControlRegister
 325              		.thumb
 326              		.thumb_func
 327              		.type	Timer_Line_Begin_ReadControlRegister, %function
 328              	Timer_Line_Begin_ReadControlRegister:
 329              	.LFB7:
 332:.\Generated_Source\PSoC5/Timer_Line_Begin.c **** 
 333:.\Generated_Source\PSoC5/Timer_Line_Begin.c **** 
 334:.\Generated_Source\PSoC5/Timer_Line_Begin.c **** #if (!Timer_Line_Begin_ControlRegRemoved) /* Remove API if control register is removed */
 335:.\Generated_Source\PSoC5/Timer_Line_Begin.c **** 
 336:.\Generated_Source\PSoC5/Timer_Line_Begin.c **** 
 337:.\Generated_Source\PSoC5/Timer_Line_Begin.c **** /*******************************************************************************
 338:.\Generated_Source\PSoC5/Timer_Line_Begin.c **** * Function Name: Timer_Line_Begin_ReadControlRegister
 339:.\Generated_Source\PSoC5/Timer_Line_Begin.c **** ********************************************************************************
 340:.\Generated_Source\PSoC5/Timer_Line_Begin.c **** *
 341:.\Generated_Source\PSoC5/Timer_Line_Begin.c **** * Summary:
 342:.\Generated_Source\PSoC5/Timer_Line_Begin.c **** *  Reads the control register and returns it's value.
 343:.\Generated_Source\PSoC5/Timer_Line_Begin.c **** *
 344:.\Generated_Source\PSoC5/Timer_Line_Begin.c **** * Parameters:
 345:.\Generated_Source\PSoC5/Timer_Line_Begin.c **** *  void
 346:.\Generated_Source\PSoC5/Timer_Line_Begin.c **** *
 347:.\Generated_Source\PSoC5/Timer_Line_Begin.c **** * Return:
 348:.\Generated_Source\PSoC5/Timer_Line_Begin.c **** *  The contents of the control register
 349:.\Generated_Source\PSoC5/Timer_Line_Begin.c **** *
 350:.\Generated_Source\PSoC5/Timer_Line_Begin.c **** *******************************************************************************/
 351:.\Generated_Source\PSoC5/Timer_Line_Begin.c **** uint8 Timer_Line_Begin_ReadControlRegister(void) 
ARM GAS  C:\Users\bccho\AppData\Local\Temp\ccgG2AVn.s 			page 13


 352:.\Generated_Source\PSoC5/Timer_Line_Begin.c **** {
 330              		.loc 1 352 0
 331              		.cfi_startproc
 332              		@ args = 0, pretend = 0, frame = 0
 333              		@ frame_needed = 1, uses_anonymous_args = 0
 334              		@ link register save eliminated.
 335 0000 80B4     		push	{r7}
 336              	.LCFI16:
 337              		.cfi_def_cfa_offset 4
 338 0002 00AF     		add	r7, sp, #0
 339              		.cfi_offset 7, -4
 340              	.LCFI17:
 341              		.cfi_def_cfa_register 7
 353:.\Generated_Source\PSoC5/Timer_Line_Begin.c ****     return Timer_Line_Begin_CONTROL;
 342              		.loc 1 353 0
 343 0004 46F27243 		movw	r3, #:lower16:1073767538
 344 0008 C4F20003 		movt	r3, #:upper16:1073767538
 345 000c 1B78     		ldrb	r3, [r3, #0]
 346 000e DBB2     		uxtb	r3, r3
 354:.\Generated_Source\PSoC5/Timer_Line_Begin.c **** }
 347              		.loc 1 354 0
 348 0010 1846     		mov	r0, r3
 349 0012 BD46     		mov	sp, r7
 350 0014 80BC     		pop	{r7}
 351 0016 7047     		bx	lr
 352              		.cfi_endproc
 353              	.LFE7:
 354              		.size	Timer_Line_Begin_ReadControlRegister, .-Timer_Line_Begin_ReadControlRegister
 355              		.section	.text.Timer_Line_Begin_WriteControlRegister,"ax",%progbits
 356              		.align	2
 357              		.global	Timer_Line_Begin_WriteControlRegister
 358              		.thumb
 359              		.thumb_func
 360              		.type	Timer_Line_Begin_WriteControlRegister, %function
 361              	Timer_Line_Begin_WriteControlRegister:
 362              	.LFB8:
 355:.\Generated_Source\PSoC5/Timer_Line_Begin.c **** 
 356:.\Generated_Source\PSoC5/Timer_Line_Begin.c **** 
 357:.\Generated_Source\PSoC5/Timer_Line_Begin.c **** /*******************************************************************************
 358:.\Generated_Source\PSoC5/Timer_Line_Begin.c **** * Function Name: Timer_Line_Begin_WriteControlRegister
 359:.\Generated_Source\PSoC5/Timer_Line_Begin.c **** ********************************************************************************
 360:.\Generated_Source\PSoC5/Timer_Line_Begin.c **** *
 361:.\Generated_Source\PSoC5/Timer_Line_Begin.c **** * Summary:
 362:.\Generated_Source\PSoC5/Timer_Line_Begin.c **** *  Sets the bit-field of the control register.
 363:.\Generated_Source\PSoC5/Timer_Line_Begin.c **** *
 364:.\Generated_Source\PSoC5/Timer_Line_Begin.c **** * Parameters:
 365:.\Generated_Source\PSoC5/Timer_Line_Begin.c **** *  control: The contents of the control register
 366:.\Generated_Source\PSoC5/Timer_Line_Begin.c **** *
 367:.\Generated_Source\PSoC5/Timer_Line_Begin.c **** * Return:
 368:.\Generated_Source\PSoC5/Timer_Line_Begin.c **** *
 369:.\Generated_Source\PSoC5/Timer_Line_Begin.c **** *******************************************************************************/
 370:.\Generated_Source\PSoC5/Timer_Line_Begin.c **** void Timer_Line_Begin_WriteControlRegister(uint8 control) 
 371:.\Generated_Source\PSoC5/Timer_Line_Begin.c **** {
 363              		.loc 1 371 0
 364              		.cfi_startproc
 365              		@ args = 0, pretend = 0, frame = 8
 366              		@ frame_needed = 1, uses_anonymous_args = 0
ARM GAS  C:\Users\bccho\AppData\Local\Temp\ccgG2AVn.s 			page 14


 367              		@ link register save eliminated.
 368 0000 80B4     		push	{r7}
 369              	.LCFI18:
 370              		.cfi_def_cfa_offset 4
 371 0002 83B0     		sub	sp, sp, #12
 372              	.LCFI19:
 373              		.cfi_def_cfa_offset 16
 374 0004 00AF     		add	r7, sp, #0
 375              		.cfi_offset 7, -4
 376              	.LCFI20:
 377              		.cfi_def_cfa_register 7
 378 0006 0346     		mov	r3, r0
 379 0008 FB71     		strb	r3, [r7, #7]
 372:.\Generated_Source\PSoC5/Timer_Line_Begin.c ****     Timer_Line_Begin_CONTROL = control;
 380              		.loc 1 372 0
 381 000a 46F27243 		movw	r3, #:lower16:1073767538
 382 000e C4F20003 		movt	r3, #:upper16:1073767538
 383 0012 FA79     		ldrb	r2, [r7, #7]
 384 0014 1A70     		strb	r2, [r3, #0]
 373:.\Generated_Source\PSoC5/Timer_Line_Begin.c **** }
 385              		.loc 1 373 0
 386 0016 07F10C07 		add	r7, r7, #12
 387 001a BD46     		mov	sp, r7
 388 001c 80BC     		pop	{r7}
 389 001e 7047     		bx	lr
 390              		.cfi_endproc
 391              	.LFE8:
 392              		.size	Timer_Line_Begin_WriteControlRegister, .-Timer_Line_Begin_WriteControlRegister
 393              		.section	.text.Timer_Line_Begin_ReadPeriod,"ax",%progbits
 394              		.align	2
 395              		.global	Timer_Line_Begin_ReadPeriod
 396              		.thumb
 397              		.thumb_func
 398              		.type	Timer_Line_Begin_ReadPeriod, %function
 399              	Timer_Line_Begin_ReadPeriod:
 400              	.LFB9:
 374:.\Generated_Source\PSoC5/Timer_Line_Begin.c **** #endif /* Remove API if control register is removed */
 375:.\Generated_Source\PSoC5/Timer_Line_Begin.c **** 
 376:.\Generated_Source\PSoC5/Timer_Line_Begin.c **** 
 377:.\Generated_Source\PSoC5/Timer_Line_Begin.c **** /*******************************************************************************
 378:.\Generated_Source\PSoC5/Timer_Line_Begin.c **** * Function Name: Timer_Line_Begin_ReadPeriod
 379:.\Generated_Source\PSoC5/Timer_Line_Begin.c **** ********************************************************************************
 380:.\Generated_Source\PSoC5/Timer_Line_Begin.c **** *
 381:.\Generated_Source\PSoC5/Timer_Line_Begin.c **** * Summary:
 382:.\Generated_Source\PSoC5/Timer_Line_Begin.c **** *  This function returns the current value of the Period.
 383:.\Generated_Source\PSoC5/Timer_Line_Begin.c **** *
 384:.\Generated_Source\PSoC5/Timer_Line_Begin.c **** * Parameters:
 385:.\Generated_Source\PSoC5/Timer_Line_Begin.c **** *  void
 386:.\Generated_Source\PSoC5/Timer_Line_Begin.c **** *
 387:.\Generated_Source\PSoC5/Timer_Line_Begin.c **** * Return:
 388:.\Generated_Source\PSoC5/Timer_Line_Begin.c **** *  The present value of the counter.
 389:.\Generated_Source\PSoC5/Timer_Line_Begin.c **** *
 390:.\Generated_Source\PSoC5/Timer_Line_Begin.c **** *******************************************************************************/
 391:.\Generated_Source\PSoC5/Timer_Line_Begin.c **** uint16 Timer_Line_Begin_ReadPeriod(void) 
 392:.\Generated_Source\PSoC5/Timer_Line_Begin.c **** {
 401              		.loc 1 392 0
 402              		.cfi_startproc
ARM GAS  C:\Users\bccho\AppData\Local\Temp\ccgG2AVn.s 			page 15


 403              		@ args = 0, pretend = 0, frame = 0
 404              		@ frame_needed = 1, uses_anonymous_args = 0
 405              		@ link register save eliminated.
 406 0000 80B4     		push	{r7}
 407              	.LCFI21:
 408              		.cfi_def_cfa_offset 4
 409 0002 00AF     		add	r7, sp, #0
 410              		.cfi_offset 7, -4
 411              	.LCFI22:
 412              		.cfi_def_cfa_register 7
 393:.\Generated_Source\PSoC5/Timer_Line_Begin.c ****    return ( CY_GET_REG16(Timer_Line_Begin_PERIOD_LSB_PTR) );
 413              		.loc 1 393 0
 414 0004 46F22553 		movw	r3, #:lower16:1073767717
 415 0008 C4F20003 		movt	r3, #:upper16:1073767717
 416 000c 1B88     		ldrh	r3, [r3, #0]	@ movhi
 417 000e 9BB2     		uxth	r3, r3
 394:.\Generated_Source\PSoC5/Timer_Line_Begin.c **** }
 418              		.loc 1 394 0
 419 0010 1846     		mov	r0, r3
 420 0012 BD46     		mov	sp, r7
 421 0014 80BC     		pop	{r7}
 422 0016 7047     		bx	lr
 423              		.cfi_endproc
 424              	.LFE9:
 425              		.size	Timer_Line_Begin_ReadPeriod, .-Timer_Line_Begin_ReadPeriod
 426              		.section	.text.Timer_Line_Begin_WritePeriod,"ax",%progbits
 427              		.align	2
 428              		.global	Timer_Line_Begin_WritePeriod
 429              		.thumb
 430              		.thumb_func
 431              		.type	Timer_Line_Begin_WritePeriod, %function
 432              	Timer_Line_Begin_WritePeriod:
 433              	.LFB10:
 395:.\Generated_Source\PSoC5/Timer_Line_Begin.c **** 
 396:.\Generated_Source\PSoC5/Timer_Line_Begin.c **** 
 397:.\Generated_Source\PSoC5/Timer_Line_Begin.c **** /*******************************************************************************
 398:.\Generated_Source\PSoC5/Timer_Line_Begin.c **** * Function Name: Timer_Line_Begin_WritePeriod
 399:.\Generated_Source\PSoC5/Timer_Line_Begin.c **** ********************************************************************************
 400:.\Generated_Source\PSoC5/Timer_Line_Begin.c **** *
 401:.\Generated_Source\PSoC5/Timer_Line_Begin.c **** * Summary:
 402:.\Generated_Source\PSoC5/Timer_Line_Begin.c **** *  This function is used to change the period of the counter.  The new period
 403:.\Generated_Source\PSoC5/Timer_Line_Begin.c **** *  will be loaded the next time terminal count is detected.
 404:.\Generated_Source\PSoC5/Timer_Line_Begin.c **** *
 405:.\Generated_Source\PSoC5/Timer_Line_Begin.c **** * Parameters:
 406:.\Generated_Source\PSoC5/Timer_Line_Begin.c **** *  period: This value may be between 1 and (2^Resolution)-1.  A value of 0 will
 407:.\Generated_Source\PSoC5/Timer_Line_Begin.c **** *          result in the counter remaining at zero.
 408:.\Generated_Source\PSoC5/Timer_Line_Begin.c **** *
 409:.\Generated_Source\PSoC5/Timer_Line_Begin.c **** * Return:
 410:.\Generated_Source\PSoC5/Timer_Line_Begin.c **** *  void
 411:.\Generated_Source\PSoC5/Timer_Line_Begin.c **** *
 412:.\Generated_Source\PSoC5/Timer_Line_Begin.c **** *******************************************************************************/
 413:.\Generated_Source\PSoC5/Timer_Line_Begin.c **** void Timer_Line_Begin_WritePeriod(uint16 period) 
 414:.\Generated_Source\PSoC5/Timer_Line_Begin.c **** {
 434              		.loc 1 414 0
 435              		.cfi_startproc
 436              		@ args = 0, pretend = 0, frame = 8
 437              		@ frame_needed = 1, uses_anonymous_args = 0
ARM GAS  C:\Users\bccho\AppData\Local\Temp\ccgG2AVn.s 			page 16


 438              		@ link register save eliminated.
 439 0000 80B4     		push	{r7}
 440              	.LCFI23:
 441              		.cfi_def_cfa_offset 4
 442 0002 83B0     		sub	sp, sp, #12
 443              	.LCFI24:
 444              		.cfi_def_cfa_offset 16
 445 0004 00AF     		add	r7, sp, #0
 446              		.cfi_offset 7, -4
 447              	.LCFI25:
 448              		.cfi_def_cfa_register 7
 449 0006 0346     		mov	r3, r0
 450 0008 FB80     		strh	r3, [r7, #6]	@ movhi
 415:.\Generated_Source\PSoC5/Timer_Line_Begin.c ****     #if(Timer_Line_Begin_UsingFixedFunction)
 416:.\Generated_Source\PSoC5/Timer_Line_Begin.c ****         uint16 period_temp = (uint16)period;
 417:.\Generated_Source\PSoC5/Timer_Line_Begin.c ****         CY_SET_REG16(Timer_Line_Begin_PERIOD_LSB_PTR, period_temp);
 418:.\Generated_Source\PSoC5/Timer_Line_Begin.c ****     #else
 419:.\Generated_Source\PSoC5/Timer_Line_Begin.c ****         CY_SET_REG16(Timer_Line_Begin_PERIOD_LSB_PTR, period);
 451              		.loc 1 419 0
 452 000a 46F22553 		movw	r3, #:lower16:1073767717
 453 000e C4F20003 		movt	r3, #:upper16:1073767717
 454 0012 FA88     		ldrh	r2, [r7, #6]	@ movhi
 455 0014 1A80     		strh	r2, [r3, #0]	@ movhi
 420:.\Generated_Source\PSoC5/Timer_Line_Begin.c ****     #endif /*Write Period value with appropriate resolution suffix depending on UDB or fixed functi
 421:.\Generated_Source\PSoC5/Timer_Line_Begin.c **** }
 456              		.loc 1 421 0
 457 0016 07F10C07 		add	r7, r7, #12
 458 001a BD46     		mov	sp, r7
 459 001c 80BC     		pop	{r7}
 460 001e 7047     		bx	lr
 461              		.cfi_endproc
 462              	.LFE10:
 463              		.size	Timer_Line_Begin_WritePeriod, .-Timer_Line_Begin_WritePeriod
 464              		.section	.text.Timer_Line_Begin_ReadCapture,"ax",%progbits
 465              		.align	2
 466              		.global	Timer_Line_Begin_ReadCapture
 467              		.thumb
 468              		.thumb_func
 469              		.type	Timer_Line_Begin_ReadCapture, %function
 470              	Timer_Line_Begin_ReadCapture:
 471              	.LFB11:
 422:.\Generated_Source\PSoC5/Timer_Line_Begin.c **** 
 423:.\Generated_Source\PSoC5/Timer_Line_Begin.c **** 
 424:.\Generated_Source\PSoC5/Timer_Line_Begin.c **** /*******************************************************************************
 425:.\Generated_Source\PSoC5/Timer_Line_Begin.c **** * Function Name: Timer_Line_Begin_ReadCapture
 426:.\Generated_Source\PSoC5/Timer_Line_Begin.c **** ********************************************************************************
 427:.\Generated_Source\PSoC5/Timer_Line_Begin.c **** *
 428:.\Generated_Source\PSoC5/Timer_Line_Begin.c **** * Summary:
 429:.\Generated_Source\PSoC5/Timer_Line_Begin.c **** *  This function returns the last value captured.
 430:.\Generated_Source\PSoC5/Timer_Line_Begin.c **** *
 431:.\Generated_Source\PSoC5/Timer_Line_Begin.c **** * Parameters:
 432:.\Generated_Source\PSoC5/Timer_Line_Begin.c **** *  void
 433:.\Generated_Source\PSoC5/Timer_Line_Begin.c **** *
 434:.\Generated_Source\PSoC5/Timer_Line_Begin.c **** * Return:
 435:.\Generated_Source\PSoC5/Timer_Line_Begin.c **** *  Present Capture value.
 436:.\Generated_Source\PSoC5/Timer_Line_Begin.c **** *
 437:.\Generated_Source\PSoC5/Timer_Line_Begin.c **** *******************************************************************************/
ARM GAS  C:\Users\bccho\AppData\Local\Temp\ccgG2AVn.s 			page 17


 438:.\Generated_Source\PSoC5/Timer_Line_Begin.c **** uint16 Timer_Line_Begin_ReadCapture(void) 
 439:.\Generated_Source\PSoC5/Timer_Line_Begin.c **** {
 472              		.loc 1 439 0
 473              		.cfi_startproc
 474              		@ args = 0, pretend = 0, frame = 0
 475              		@ frame_needed = 1, uses_anonymous_args = 0
 476              		@ link register save eliminated.
 477 0000 80B4     		push	{r7}
 478              	.LCFI26:
 479              		.cfi_def_cfa_offset 4
 480 0002 00AF     		add	r7, sp, #0
 481              		.cfi_offset 7, -4
 482              	.LCFI27:
 483              		.cfi_def_cfa_register 7
 440:.\Generated_Source\PSoC5/Timer_Line_Begin.c ****    return ( CY_GET_REG16(Timer_Line_Begin_CAPTURE_LSB_PTR) );
 484              		.loc 1 440 0
 485 0004 46F24553 		movw	r3, #:lower16:1073767749
 486 0008 C4F20003 		movt	r3, #:upper16:1073767749
 487 000c 1B88     		ldrh	r3, [r3, #0]	@ movhi
 488 000e 9BB2     		uxth	r3, r3
 441:.\Generated_Source\PSoC5/Timer_Line_Begin.c **** }
 489              		.loc 1 441 0
 490 0010 1846     		mov	r0, r3
 491 0012 BD46     		mov	sp, r7
 492 0014 80BC     		pop	{r7}
 493 0016 7047     		bx	lr
 494              		.cfi_endproc
 495              	.LFE11:
 496              		.size	Timer_Line_Begin_ReadCapture, .-Timer_Line_Begin_ReadCapture
 497              		.section	.text.Timer_Line_Begin_WriteCounter,"ax",%progbits
 498              		.align	2
 499              		.global	Timer_Line_Begin_WriteCounter
 500              		.thumb
 501              		.thumb_func
 502              		.type	Timer_Line_Begin_WriteCounter, %function
 503              	Timer_Line_Begin_WriteCounter:
 504              	.LFB12:
 442:.\Generated_Source\PSoC5/Timer_Line_Begin.c **** 
 443:.\Generated_Source\PSoC5/Timer_Line_Begin.c **** 
 444:.\Generated_Source\PSoC5/Timer_Line_Begin.c **** /*******************************************************************************
 445:.\Generated_Source\PSoC5/Timer_Line_Begin.c **** * Function Name: Timer_Line_Begin_WriteCounter
 446:.\Generated_Source\PSoC5/Timer_Line_Begin.c **** ********************************************************************************
 447:.\Generated_Source\PSoC5/Timer_Line_Begin.c **** *
 448:.\Generated_Source\PSoC5/Timer_Line_Begin.c **** * Summary:
 449:.\Generated_Source\PSoC5/Timer_Line_Begin.c **** *  This funtion is used to set the counter to a specific value
 450:.\Generated_Source\PSoC5/Timer_Line_Begin.c **** *
 451:.\Generated_Source\PSoC5/Timer_Line_Begin.c **** * Parameters:
 452:.\Generated_Source\PSoC5/Timer_Line_Begin.c **** *  counter:  New counter value.
 453:.\Generated_Source\PSoC5/Timer_Line_Begin.c **** *
 454:.\Generated_Source\PSoC5/Timer_Line_Begin.c **** * Return:
 455:.\Generated_Source\PSoC5/Timer_Line_Begin.c **** *  void
 456:.\Generated_Source\PSoC5/Timer_Line_Begin.c **** *
 457:.\Generated_Source\PSoC5/Timer_Line_Begin.c **** *******************************************************************************/
 458:.\Generated_Source\PSoC5/Timer_Line_Begin.c **** void Timer_Line_Begin_WriteCounter(uint16 counter) \
 459:.\Generated_Source\PSoC5/Timer_Line_Begin.c ****                                    
 460:.\Generated_Source\PSoC5/Timer_Line_Begin.c **** {
 505              		.loc 1 460 0
ARM GAS  C:\Users\bccho\AppData\Local\Temp\ccgG2AVn.s 			page 18


 506              		.cfi_startproc
 507              		@ args = 0, pretend = 0, frame = 8
 508              		@ frame_needed = 1, uses_anonymous_args = 0
 509              		@ link register save eliminated.
 510 0000 80B4     		push	{r7}
 511              	.LCFI28:
 512              		.cfi_def_cfa_offset 4
 513 0002 83B0     		sub	sp, sp, #12
 514              	.LCFI29:
 515              		.cfi_def_cfa_offset 16
 516 0004 00AF     		add	r7, sp, #0
 517              		.cfi_offset 7, -4
 518              	.LCFI30:
 519              		.cfi_def_cfa_register 7
 520 0006 0346     		mov	r3, r0
 521 0008 FB80     		strh	r3, [r7, #6]	@ movhi
 461:.\Generated_Source\PSoC5/Timer_Line_Begin.c ****    #if(Timer_Line_Begin_UsingFixedFunction)
 462:.\Generated_Source\PSoC5/Timer_Line_Begin.c ****         counter = counter;
 463:.\Generated_Source\PSoC5/Timer_Line_Begin.c ****         /* This functionality is removed until a FixedFunction HW update to
 464:.\Generated_Source\PSoC5/Timer_Line_Begin.c ****          * allow this register to be written
 465:.\Generated_Source\PSoC5/Timer_Line_Begin.c ****          */
 466:.\Generated_Source\PSoC5/Timer_Line_Begin.c ****         /* uint16 counter_temp = (uint16)counter;
 467:.\Generated_Source\PSoC5/Timer_Line_Begin.c ****          * CY_SET_REG16(Timer_Line_Begin_COUNTER_LSB_PTR, counter_temp);
 468:.\Generated_Source\PSoC5/Timer_Line_Begin.c ****          */
 469:.\Generated_Source\PSoC5/Timer_Line_Begin.c ****     #else
 470:.\Generated_Source\PSoC5/Timer_Line_Begin.c ****         CY_SET_REG16(Timer_Line_Begin_COUNTER_LSB_PTR, counter);
 522              		.loc 1 470 0
 523 000a 46F20553 		movw	r3, #:lower16:1073767685
 524 000e C4F20003 		movt	r3, #:upper16:1073767685
 525 0012 FA88     		ldrh	r2, [r7, #6]	@ movhi
 526 0014 1A80     		strh	r2, [r3, #0]	@ movhi
 471:.\Generated_Source\PSoC5/Timer_Line_Begin.c ****     #endif /* Set Write Counter only for the UDB implementation (Write Counter not available in fix
 472:.\Generated_Source\PSoC5/Timer_Line_Begin.c **** }
 527              		.loc 1 472 0
 528 0016 07F10C07 		add	r7, r7, #12
 529 001a BD46     		mov	sp, r7
 530 001c 80BC     		pop	{r7}
 531 001e 7047     		bx	lr
 532              		.cfi_endproc
 533              	.LFE12:
 534              		.size	Timer_Line_Begin_WriteCounter, .-Timer_Line_Begin_WriteCounter
 535              		.section	.text.Timer_Line_Begin_ReadCounter,"ax",%progbits
 536              		.align	2
 537              		.global	Timer_Line_Begin_ReadCounter
 538              		.thumb
 539              		.thumb_func
 540              		.type	Timer_Line_Begin_ReadCounter, %function
 541              	Timer_Line_Begin_ReadCounter:
 542              	.LFB13:
 473:.\Generated_Source\PSoC5/Timer_Line_Begin.c **** 
 474:.\Generated_Source\PSoC5/Timer_Line_Begin.c **** 
 475:.\Generated_Source\PSoC5/Timer_Line_Begin.c **** /*******************************************************************************
 476:.\Generated_Source\PSoC5/Timer_Line_Begin.c **** * Function Name: Timer_Line_Begin_ReadCounter
 477:.\Generated_Source\PSoC5/Timer_Line_Begin.c **** ********************************************************************************
 478:.\Generated_Source\PSoC5/Timer_Line_Begin.c **** *
 479:.\Generated_Source\PSoC5/Timer_Line_Begin.c **** * Summary:
 480:.\Generated_Source\PSoC5/Timer_Line_Begin.c **** *  This function returns the current counter value.
ARM GAS  C:\Users\bccho\AppData\Local\Temp\ccgG2AVn.s 			page 19


 481:.\Generated_Source\PSoC5/Timer_Line_Begin.c **** *
 482:.\Generated_Source\PSoC5/Timer_Line_Begin.c **** * Parameters:
 483:.\Generated_Source\PSoC5/Timer_Line_Begin.c **** *  void
 484:.\Generated_Source\PSoC5/Timer_Line_Begin.c **** *
 485:.\Generated_Source\PSoC5/Timer_Line_Begin.c **** * Return:
 486:.\Generated_Source\PSoC5/Timer_Line_Begin.c **** *  Present compare value.
 487:.\Generated_Source\PSoC5/Timer_Line_Begin.c **** *
 488:.\Generated_Source\PSoC5/Timer_Line_Begin.c **** *******************************************************************************/
 489:.\Generated_Source\PSoC5/Timer_Line_Begin.c **** uint16 Timer_Line_Begin_ReadCounter(void) 
 490:.\Generated_Source\PSoC5/Timer_Line_Begin.c **** {
 543              		.loc 1 490 0
 544              		.cfi_startproc
 545              		@ args = 0, pretend = 0, frame = 0
 546              		@ frame_needed = 1, uses_anonymous_args = 0
 547              		@ link register save eliminated.
 548 0000 80B4     		push	{r7}
 549              	.LCFI31:
 550              		.cfi_def_cfa_offset 4
 551 0002 00AF     		add	r7, sp, #0
 552              		.cfi_offset 7, -4
 553              	.LCFI32:
 554              		.cfi_def_cfa_register 7
 491:.\Generated_Source\PSoC5/Timer_Line_Begin.c **** 
 492:.\Generated_Source\PSoC5/Timer_Line_Begin.c ****     /* Force capture by reading Accumulator */
 493:.\Generated_Source\PSoC5/Timer_Line_Begin.c ****     /* Must first do a software capture to be able to read the counter */
 494:.\Generated_Source\PSoC5/Timer_Line_Begin.c ****     /* It is up to the user code to make sure there isn't already captured data in the FIFO */
 495:.\Generated_Source\PSoC5/Timer_Line_Begin.c ****     CY_GET_REG8(Timer_Line_Begin_COUNTER_LSB_PTR);
 555              		.loc 1 495 0
 556 0004 46F20553 		movw	r3, #:lower16:1073767685
 557 0008 C4F20003 		movt	r3, #:upper16:1073767685
 558 000c 1B78     		ldrb	r3, [r3, #0]
 496:.\Generated_Source\PSoC5/Timer_Line_Begin.c **** 
 497:.\Generated_Source\PSoC5/Timer_Line_Begin.c ****     /* Read the data from the FIFO (or capture register for Fixed Function)*/
 498:.\Generated_Source\PSoC5/Timer_Line_Begin.c ****     return (CY_GET_REG16(Timer_Line_Begin_CAPTURE_LSB_PTR));
 559              		.loc 1 498 0
 560 000e 46F24553 		movw	r3, #:lower16:1073767749
 561 0012 C4F20003 		movt	r3, #:upper16:1073767749
 562 0016 1B88     		ldrh	r3, [r3, #0]	@ movhi
 563 0018 9BB2     		uxth	r3, r3
 499:.\Generated_Source\PSoC5/Timer_Line_Begin.c **** }
 564              		.loc 1 499 0
 565 001a 1846     		mov	r0, r3
 566 001c BD46     		mov	sp, r7
 567 001e 80BC     		pop	{r7}
 568 0020 7047     		bx	lr
 569              		.cfi_endproc
 570              	.LFE13:
 571              		.size	Timer_Line_Begin_ReadCounter, .-Timer_Line_Begin_ReadCounter
 572 0022 00BF     		.section	.text.Timer_Line_Begin_SetInterruptCount,"ax",%progbits
 573              		.align	2
 574              		.global	Timer_Line_Begin_SetInterruptCount
 575              		.thumb
 576              		.thumb_func
 577              		.type	Timer_Line_Begin_SetInterruptCount, %function
 578              	Timer_Line_Begin_SetInterruptCount:
 579              	.LFB14:
 500:.\Generated_Source\PSoC5/Timer_Line_Begin.c **** 
ARM GAS  C:\Users\bccho\AppData\Local\Temp\ccgG2AVn.s 			page 20


 501:.\Generated_Source\PSoC5/Timer_Line_Begin.c **** 
 502:.\Generated_Source\PSoC5/Timer_Line_Begin.c **** #if(!Timer_Line_Begin_UsingFixedFunction) /* UDB Specific Functions */
 503:.\Generated_Source\PSoC5/Timer_Line_Begin.c **** 
 504:.\Generated_Source\PSoC5/Timer_Line_Begin.c **** /*******************************************************************************
 505:.\Generated_Source\PSoC5/Timer_Line_Begin.c ****  * The functions below this point are only available using the UDB
 506:.\Generated_Source\PSoC5/Timer_Line_Begin.c ****  * implementation.  If a feature is selected, then the API is enabled.
 507:.\Generated_Source\PSoC5/Timer_Line_Begin.c ****  ******************************************************************************/
 508:.\Generated_Source\PSoC5/Timer_Line_Begin.c **** 
 509:.\Generated_Source\PSoC5/Timer_Line_Begin.c **** 
 510:.\Generated_Source\PSoC5/Timer_Line_Begin.c **** #if (Timer_Line_Begin_SoftwareCaptureMode)
 511:.\Generated_Source\PSoC5/Timer_Line_Begin.c **** 
 512:.\Generated_Source\PSoC5/Timer_Line_Begin.c **** 
 513:.\Generated_Source\PSoC5/Timer_Line_Begin.c **** /*******************************************************************************
 514:.\Generated_Source\PSoC5/Timer_Line_Begin.c **** * Function Name: Timer_Line_Begin_SetCaptureMode
 515:.\Generated_Source\PSoC5/Timer_Line_Begin.c **** ********************************************************************************
 516:.\Generated_Source\PSoC5/Timer_Line_Begin.c **** *
 517:.\Generated_Source\PSoC5/Timer_Line_Begin.c **** * Summary:
 518:.\Generated_Source\PSoC5/Timer_Line_Begin.c **** *  This function sets the capture mode to either rising or falling edge.
 519:.\Generated_Source\PSoC5/Timer_Line_Begin.c **** *
 520:.\Generated_Source\PSoC5/Timer_Line_Begin.c **** * Parameters:
 521:.\Generated_Source\PSoC5/Timer_Line_Begin.c **** *  captureMode: This parameter sets the capture mode of the UDB capture feature
 522:.\Generated_Source\PSoC5/Timer_Line_Begin.c **** *  The parameter values are defined using the
 523:.\Generated_Source\PSoC5/Timer_Line_Begin.c **** *  #define Timer_Line_Begin__B_TIMER__CM_NONE 0
 524:.\Generated_Source\PSoC5/Timer_Line_Begin.c **** #define Timer_Line_Begin__B_TIMER__CM_RISINGEDGE 1
 525:.\Generated_Source\PSoC5/Timer_Line_Begin.c **** #define Timer_Line_Begin__B_TIMER__CM_FALLINGEDGE 2
 526:.\Generated_Source\PSoC5/Timer_Line_Begin.c **** #define Timer_Line_Begin__B_TIMER__CM_EITHEREDGE 3
 527:.\Generated_Source\PSoC5/Timer_Line_Begin.c **** #define Timer_Line_Begin__B_TIMER__CM_SOFTWARE 4
 528:.\Generated_Source\PSoC5/Timer_Line_Begin.c ****  identifiers
 529:.\Generated_Source\PSoC5/Timer_Line_Begin.c **** *  The following are the possible values of the parameter
 530:.\Generated_Source\PSoC5/Timer_Line_Begin.c **** *  Timer_Line_Begin__B_TIMER__CM_NONE        - Set Capture mode to None
 531:.\Generated_Source\PSoC5/Timer_Line_Begin.c **** *  Timer_Line_Begin__B_TIMER__CM_RISINGEDGE  - Rising edge of Capture input
 532:.\Generated_Source\PSoC5/Timer_Line_Begin.c **** *  Timer_Line_Begin__B_TIMER__CM_FALLINGEDGE - Falling edge of Capture input
 533:.\Generated_Source\PSoC5/Timer_Line_Begin.c **** *  Timer_Line_Begin__B_TIMER__CM_EITHEREDGE  - Either edge of Capture input
 534:.\Generated_Source\PSoC5/Timer_Line_Begin.c **** *
 535:.\Generated_Source\PSoC5/Timer_Line_Begin.c **** * Return:
 536:.\Generated_Source\PSoC5/Timer_Line_Begin.c **** *  void
 537:.\Generated_Source\PSoC5/Timer_Line_Begin.c **** *
 538:.\Generated_Source\PSoC5/Timer_Line_Begin.c **** *******************************************************************************/
 539:.\Generated_Source\PSoC5/Timer_Line_Begin.c **** void Timer_Line_Begin_SetCaptureMode(uint8 captureMode) 
 540:.\Generated_Source\PSoC5/Timer_Line_Begin.c **** {
 541:.\Generated_Source\PSoC5/Timer_Line_Begin.c ****     /* This must only set to two bits of the control register associated */
 542:.\Generated_Source\PSoC5/Timer_Line_Begin.c ****     captureMode = (captureMode << Timer_Line_Begin_CTRL_CAP_MODE_SHIFT);
 543:.\Generated_Source\PSoC5/Timer_Line_Begin.c ****     captureMode &= (Timer_Line_Begin_CTRL_CAP_MODE_MASK);
 544:.\Generated_Source\PSoC5/Timer_Line_Begin.c **** 
 545:.\Generated_Source\PSoC5/Timer_Line_Begin.c ****     /* Clear the Current Setting */
 546:.\Generated_Source\PSoC5/Timer_Line_Begin.c ****     Timer_Line_Begin_CONTROL &= ~Timer_Line_Begin_CTRL_CAP_MODE_MASK;
 547:.\Generated_Source\PSoC5/Timer_Line_Begin.c **** 
 548:.\Generated_Source\PSoC5/Timer_Line_Begin.c ****     /* Write The New Setting */
 549:.\Generated_Source\PSoC5/Timer_Line_Begin.c ****     Timer_Line_Begin_CONTROL |= captureMode;
 550:.\Generated_Source\PSoC5/Timer_Line_Begin.c **** }
 551:.\Generated_Source\PSoC5/Timer_Line_Begin.c **** #endif /* Remove API if Capture Mode is not Software Controlled */
 552:.\Generated_Source\PSoC5/Timer_Line_Begin.c **** 
 553:.\Generated_Source\PSoC5/Timer_Line_Begin.c **** 
 554:.\Generated_Source\PSoC5/Timer_Line_Begin.c **** #if (Timer_Line_Begin_SoftwareTriggerMode)
 555:.\Generated_Source\PSoC5/Timer_Line_Begin.c **** 
 556:.\Generated_Source\PSoC5/Timer_Line_Begin.c **** 
 557:.\Generated_Source\PSoC5/Timer_Line_Begin.c **** /*******************************************************************************
ARM GAS  C:\Users\bccho\AppData\Local\Temp\ccgG2AVn.s 			page 21


 558:.\Generated_Source\PSoC5/Timer_Line_Begin.c **** * Function Name: Timer_Line_Begin_SetTriggerMode
 559:.\Generated_Source\PSoC5/Timer_Line_Begin.c **** ********************************************************************************
 560:.\Generated_Source\PSoC5/Timer_Line_Begin.c **** *
 561:.\Generated_Source\PSoC5/Timer_Line_Begin.c **** * Summary:
 562:.\Generated_Source\PSoC5/Timer_Line_Begin.c **** *  This function sets the trigger input mode
 563:.\Generated_Source\PSoC5/Timer_Line_Begin.c **** *
 564:.\Generated_Source\PSoC5/Timer_Line_Begin.c **** * Parameters:
 565:.\Generated_Source\PSoC5/Timer_Line_Begin.c **** *  triggerMode: Pass one of the pre-defined Trigger Modes (except Software)
 566:.\Generated_Source\PSoC5/Timer_Line_Begin.c ****     #define Timer_Line_Begin__B_TIMER__TM_NONE 0x00u
 567:.\Generated_Source\PSoC5/Timer_Line_Begin.c ****     #define Timer_Line_Begin__B_TIMER__TM_RISINGEDGE 0x04u
 568:.\Generated_Source\PSoC5/Timer_Line_Begin.c ****     #define Timer_Line_Begin__B_TIMER__TM_FALLINGEDGE 0x08u
 569:.\Generated_Source\PSoC5/Timer_Line_Begin.c ****     #define Timer_Line_Begin__B_TIMER__TM_EITHEREDGE 0x0Cu
 570:.\Generated_Source\PSoC5/Timer_Line_Begin.c ****     #define Timer_Line_Begin__B_TIMER__TM_SOFTWARE 0x10u
 571:.\Generated_Source\PSoC5/Timer_Line_Begin.c **** *
 572:.\Generated_Source\PSoC5/Timer_Line_Begin.c **** * Return:
 573:.\Generated_Source\PSoC5/Timer_Line_Begin.c **** *  void
 574:.\Generated_Source\PSoC5/Timer_Line_Begin.c **** *
 575:.\Generated_Source\PSoC5/Timer_Line_Begin.c **** *******************************************************************************/
 576:.\Generated_Source\PSoC5/Timer_Line_Begin.c **** void Timer_Line_Begin_SetTriggerMode(uint8 triggerMode) 
 577:.\Generated_Source\PSoC5/Timer_Line_Begin.c **** {
 578:.\Generated_Source\PSoC5/Timer_Line_Begin.c ****     /* This must only set to two bits of the control register associated */
 579:.\Generated_Source\PSoC5/Timer_Line_Begin.c ****     triggerMode &= Timer_Line_Begin_CTRL_TRIG_MODE_MASK;
 580:.\Generated_Source\PSoC5/Timer_Line_Begin.c **** 
 581:.\Generated_Source\PSoC5/Timer_Line_Begin.c ****     /* Clear the Current Setting */
 582:.\Generated_Source\PSoC5/Timer_Line_Begin.c ****     Timer_Line_Begin_CONTROL &= ~Timer_Line_Begin_CTRL_TRIG_MODE_MASK;
 583:.\Generated_Source\PSoC5/Timer_Line_Begin.c **** 
 584:.\Generated_Source\PSoC5/Timer_Line_Begin.c ****     /* Write The New Setting */
 585:.\Generated_Source\PSoC5/Timer_Line_Begin.c ****     Timer_Line_Begin_CONTROL |= (triggerMode | Timer_Line_Begin__B_TIMER__TM_SOFTWARE);
 586:.\Generated_Source\PSoC5/Timer_Line_Begin.c **** 
 587:.\Generated_Source\PSoC5/Timer_Line_Begin.c **** }
 588:.\Generated_Source\PSoC5/Timer_Line_Begin.c **** #endif /* Remove API if Trigger Mode is not Software Controlled */
 589:.\Generated_Source\PSoC5/Timer_Line_Begin.c **** 
 590:.\Generated_Source\PSoC5/Timer_Line_Begin.c **** #if (Timer_Line_Begin_EnableTriggerMode)
 591:.\Generated_Source\PSoC5/Timer_Line_Begin.c **** 
 592:.\Generated_Source\PSoC5/Timer_Line_Begin.c **** 
 593:.\Generated_Source\PSoC5/Timer_Line_Begin.c **** /*******************************************************************************
 594:.\Generated_Source\PSoC5/Timer_Line_Begin.c **** * Function Name: Timer_Line_Begin_EnableTrigger
 595:.\Generated_Source\PSoC5/Timer_Line_Begin.c **** ********************************************************************************
 596:.\Generated_Source\PSoC5/Timer_Line_Begin.c **** *
 597:.\Generated_Source\PSoC5/Timer_Line_Begin.c **** * Summary:
 598:.\Generated_Source\PSoC5/Timer_Line_Begin.c **** *  Sets the control bit enabling Hardware Trigger mode
 599:.\Generated_Source\PSoC5/Timer_Line_Begin.c **** *
 600:.\Generated_Source\PSoC5/Timer_Line_Begin.c **** * Parameters:
 601:.\Generated_Source\PSoC5/Timer_Line_Begin.c **** *  void
 602:.\Generated_Source\PSoC5/Timer_Line_Begin.c **** *
 603:.\Generated_Source\PSoC5/Timer_Line_Begin.c **** * Return:
 604:.\Generated_Source\PSoC5/Timer_Line_Begin.c **** *  void
 605:.\Generated_Source\PSoC5/Timer_Line_Begin.c **** *
 606:.\Generated_Source\PSoC5/Timer_Line_Begin.c **** *******************************************************************************/
 607:.\Generated_Source\PSoC5/Timer_Line_Begin.c **** void Timer_Line_Begin_EnableTrigger(void) 
 608:.\Generated_Source\PSoC5/Timer_Line_Begin.c **** {
 609:.\Generated_Source\PSoC5/Timer_Line_Begin.c ****     #if (!Timer_Line_Begin_ControlRegRemoved)   /* Remove assignment if control register is removed
 610:.\Generated_Source\PSoC5/Timer_Line_Begin.c ****         Timer_Line_Begin_CONTROL |= Timer_Line_Begin_CTRL_TRIG_EN;
 611:.\Generated_Source\PSoC5/Timer_Line_Begin.c ****     #endif /* Remove code section if control register is not used */
 612:.\Generated_Source\PSoC5/Timer_Line_Begin.c **** }
 613:.\Generated_Source\PSoC5/Timer_Line_Begin.c **** 
 614:.\Generated_Source\PSoC5/Timer_Line_Begin.c **** 
ARM GAS  C:\Users\bccho\AppData\Local\Temp\ccgG2AVn.s 			page 22


 615:.\Generated_Source\PSoC5/Timer_Line_Begin.c **** /*******************************************************************************
 616:.\Generated_Source\PSoC5/Timer_Line_Begin.c **** * Function Name: Timer_Line_Begin_DisableTrigger
 617:.\Generated_Source\PSoC5/Timer_Line_Begin.c **** ********************************************************************************
 618:.\Generated_Source\PSoC5/Timer_Line_Begin.c **** *
 619:.\Generated_Source\PSoC5/Timer_Line_Begin.c **** * Summary:
 620:.\Generated_Source\PSoC5/Timer_Line_Begin.c **** *  Clears the control bit enabling Hardware Trigger mode
 621:.\Generated_Source\PSoC5/Timer_Line_Begin.c **** *
 622:.\Generated_Source\PSoC5/Timer_Line_Begin.c **** * Parameters:
 623:.\Generated_Source\PSoC5/Timer_Line_Begin.c **** *  void
 624:.\Generated_Source\PSoC5/Timer_Line_Begin.c **** *
 625:.\Generated_Source\PSoC5/Timer_Line_Begin.c **** * Return:
 626:.\Generated_Source\PSoC5/Timer_Line_Begin.c **** *  void
 627:.\Generated_Source\PSoC5/Timer_Line_Begin.c **** *
 628:.\Generated_Source\PSoC5/Timer_Line_Begin.c **** *******************************************************************************/
 629:.\Generated_Source\PSoC5/Timer_Line_Begin.c **** void Timer_Line_Begin_DisableTrigger(void) 
 630:.\Generated_Source\PSoC5/Timer_Line_Begin.c **** {
 631:.\Generated_Source\PSoC5/Timer_Line_Begin.c ****     #if (!Timer_Line_Begin_ControlRegRemoved)   /* Remove assignment if control register is removed
 632:.\Generated_Source\PSoC5/Timer_Line_Begin.c ****         Timer_Line_Begin_CONTROL &= ~Timer_Line_Begin_CTRL_TRIG_EN;
 633:.\Generated_Source\PSoC5/Timer_Line_Begin.c ****     #endif /* Remove code section if control register is not used */
 634:.\Generated_Source\PSoC5/Timer_Line_Begin.c **** }
 635:.\Generated_Source\PSoC5/Timer_Line_Begin.c **** #endif /* Remove API is Trigger Mode is set to None */
 636:.\Generated_Source\PSoC5/Timer_Line_Begin.c **** 
 637:.\Generated_Source\PSoC5/Timer_Line_Begin.c **** 
 638:.\Generated_Source\PSoC5/Timer_Line_Begin.c **** #if(Timer_Line_Begin_InterruptOnCaptureCount)
 639:.\Generated_Source\PSoC5/Timer_Line_Begin.c **** #if (!Timer_Line_Begin_ControlRegRemoved)   /* Remove API if control register is removed */
 640:.\Generated_Source\PSoC5/Timer_Line_Begin.c **** 
 641:.\Generated_Source\PSoC5/Timer_Line_Begin.c **** 
 642:.\Generated_Source\PSoC5/Timer_Line_Begin.c **** /*******************************************************************************
 643:.\Generated_Source\PSoC5/Timer_Line_Begin.c **** * Function Name: Timer_Line_Begin_SetInterruptCount
 644:.\Generated_Source\PSoC5/Timer_Line_Begin.c **** ********************************************************************************
 645:.\Generated_Source\PSoC5/Timer_Line_Begin.c **** *
 646:.\Generated_Source\PSoC5/Timer_Line_Begin.c **** * Summary:
 647:.\Generated_Source\PSoC5/Timer_Line_Begin.c **** *  This function sets the capture count before an interrupt is triggered.
 648:.\Generated_Source\PSoC5/Timer_Line_Begin.c **** *
 649:.\Generated_Source\PSoC5/Timer_Line_Begin.c **** * Parameters:
 650:.\Generated_Source\PSoC5/Timer_Line_Begin.c **** *  interruptCount:  A value between 0 and 3 is valid.  If the value is 0, then
 651:.\Generated_Source\PSoC5/Timer_Line_Begin.c **** *                   an interrupt will occur each time a capture occurs.
 652:.\Generated_Source\PSoC5/Timer_Line_Begin.c **** *                   A value of 1 to 3 will cause the interrupt
 653:.\Generated_Source\PSoC5/Timer_Line_Begin.c **** *                   to delay by the same number of captures.
 654:.\Generated_Source\PSoC5/Timer_Line_Begin.c **** *
 655:.\Generated_Source\PSoC5/Timer_Line_Begin.c **** * Return:
 656:.\Generated_Source\PSoC5/Timer_Line_Begin.c **** *  void
 657:.\Generated_Source\PSoC5/Timer_Line_Begin.c **** *
 658:.\Generated_Source\PSoC5/Timer_Line_Begin.c **** *******************************************************************************/
 659:.\Generated_Source\PSoC5/Timer_Line_Begin.c **** void Timer_Line_Begin_SetInterruptCount(uint8 interruptCount) 
 660:.\Generated_Source\PSoC5/Timer_Line_Begin.c **** {
 580              		.loc 1 660 0
 581              		.cfi_startproc
 582              		@ args = 0, pretend = 0, frame = 8
 583              		@ frame_needed = 1, uses_anonymous_args = 0
 584              		@ link register save eliminated.
 585 0000 80B4     		push	{r7}
 586              	.LCFI33:
 587              		.cfi_def_cfa_offset 4
 588 0002 83B0     		sub	sp, sp, #12
 589              	.LCFI34:
 590              		.cfi_def_cfa_offset 16
ARM GAS  C:\Users\bccho\AppData\Local\Temp\ccgG2AVn.s 			page 23


 591 0004 00AF     		add	r7, sp, #0
 592              		.cfi_offset 7, -4
 593              	.LCFI35:
 594              		.cfi_def_cfa_register 7
 595 0006 0346     		mov	r3, r0
 596 0008 FB71     		strb	r3, [r7, #7]
 661:.\Generated_Source\PSoC5/Timer_Line_Begin.c ****     /* This must only set to two bits of the control register associated */
 662:.\Generated_Source\PSoC5/Timer_Line_Begin.c ****     interruptCount &= Timer_Line_Begin_CTRL_INTCNT_MASK;
 597              		.loc 1 662 0
 598 000a FB79     		ldrb	r3, [r7, #7]
 599 000c 03F00303 		and	r3, r3, #3
 600 0010 FB71     		strb	r3, [r7, #7]
 663:.\Generated_Source\PSoC5/Timer_Line_Begin.c **** 
 664:.\Generated_Source\PSoC5/Timer_Line_Begin.c ****     /* Clear the Current Setting */
 665:.\Generated_Source\PSoC5/Timer_Line_Begin.c ****     Timer_Line_Begin_CONTROL &= ~Timer_Line_Begin_CTRL_INTCNT_MASK;
 601              		.loc 1 665 0
 602 0012 46F27243 		movw	r3, #:lower16:1073767538
 603 0016 C4F20003 		movt	r3, #:upper16:1073767538
 604 001a 46F27242 		movw	r2, #:lower16:1073767538
 605 001e C4F20002 		movt	r2, #:upper16:1073767538
 606 0022 1278     		ldrb	r2, [r2, #0]
 607 0024 D2B2     		uxtb	r2, r2
 608 0026 02F0FC02 		and	r2, r2, #252
 609 002a 1A70     		strb	r2, [r3, #0]
 666:.\Generated_Source\PSoC5/Timer_Line_Begin.c ****     /* Write The New Setting */
 667:.\Generated_Source\PSoC5/Timer_Line_Begin.c ****     Timer_Line_Begin_CONTROL |= interruptCount;
 610              		.loc 1 667 0
 611 002c 46F27243 		movw	r3, #:lower16:1073767538
 612 0030 C4F20003 		movt	r3, #:upper16:1073767538
 613 0034 46F27242 		movw	r2, #:lower16:1073767538
 614 0038 C4F20002 		movt	r2, #:upper16:1073767538
 615 003c 1278     		ldrb	r2, [r2, #0]
 616 003e D1B2     		uxtb	r1, r2
 617 0040 FA79     		ldrb	r2, [r7, #7]
 618 0042 41EA0202 		orr	r2, r1, r2
 619 0046 D2B2     		uxtb	r2, r2
 620 0048 1A70     		strb	r2, [r3, #0]
 668:.\Generated_Source\PSoC5/Timer_Line_Begin.c **** }
 621              		.loc 1 668 0
 622 004a 07F10C07 		add	r7, r7, #12
 623 004e BD46     		mov	sp, r7
 624 0050 80BC     		pop	{r7}
 625 0052 7047     		bx	lr
 626              		.cfi_endproc
 627              	.LFE14:
 628              		.size	Timer_Line_Begin_SetInterruptCount, .-Timer_Line_Begin_SetInterruptCount
 629              		.section	.text.Timer_Line_Begin_SetCaptureCount,"ax",%progbits
 630              		.align	2
 631              		.global	Timer_Line_Begin_SetCaptureCount
 632              		.thumb
 633              		.thumb_func
 634              		.type	Timer_Line_Begin_SetCaptureCount, %function
 635              	Timer_Line_Begin_SetCaptureCount:
 636              	.LFB15:
 669:.\Generated_Source\PSoC5/Timer_Line_Begin.c **** #endif /* Remove API if control register is removed */
 670:.\Generated_Source\PSoC5/Timer_Line_Begin.c **** #endif /* Timer_Line_Begin_InterruptOnCaptureCount */
 671:.\Generated_Source\PSoC5/Timer_Line_Begin.c **** 
ARM GAS  C:\Users\bccho\AppData\Local\Temp\ccgG2AVn.s 			page 24


 672:.\Generated_Source\PSoC5/Timer_Line_Begin.c **** 
 673:.\Generated_Source\PSoC5/Timer_Line_Begin.c **** #if (Timer_Line_Begin_UsingHWCaptureCounter)
 674:.\Generated_Source\PSoC5/Timer_Line_Begin.c **** 
 675:.\Generated_Source\PSoC5/Timer_Line_Begin.c **** 
 676:.\Generated_Source\PSoC5/Timer_Line_Begin.c **** /*******************************************************************************
 677:.\Generated_Source\PSoC5/Timer_Line_Begin.c **** * Function Name: Timer_Line_Begin_SetCaptureCount
 678:.\Generated_Source\PSoC5/Timer_Line_Begin.c **** ********************************************************************************
 679:.\Generated_Source\PSoC5/Timer_Line_Begin.c **** *
 680:.\Generated_Source\PSoC5/Timer_Line_Begin.c **** * Summary:
 681:.\Generated_Source\PSoC5/Timer_Line_Begin.c **** *  This function sets the capture count
 682:.\Generated_Source\PSoC5/Timer_Line_Begin.c **** *
 683:.\Generated_Source\PSoC5/Timer_Line_Begin.c **** * Parameters:
 684:.\Generated_Source\PSoC5/Timer_Line_Begin.c **** *  captureCount: A value between 2 and 127 inclusive is valid.  A value of 1
 685:.\Generated_Source\PSoC5/Timer_Line_Begin.c **** *                to 127 will cause the interrupt to delay by the same number of
 686:.\Generated_Source\PSoC5/Timer_Line_Begin.c **** *                captures.
 687:.\Generated_Source\PSoC5/Timer_Line_Begin.c **** *
 688:.\Generated_Source\PSoC5/Timer_Line_Begin.c **** * Return:
 689:.\Generated_Source\PSoC5/Timer_Line_Begin.c **** *  void
 690:.\Generated_Source\PSoC5/Timer_Line_Begin.c **** *
 691:.\Generated_Source\PSoC5/Timer_Line_Begin.c **** *******************************************************************************/
 692:.\Generated_Source\PSoC5/Timer_Line_Begin.c **** void Timer_Line_Begin_SetCaptureCount(uint8 captureCount) 
 693:.\Generated_Source\PSoC5/Timer_Line_Begin.c **** {
 637              		.loc 1 693 0
 638              		.cfi_startproc
 639              		@ args = 0, pretend = 0, frame = 8
 640              		@ frame_needed = 1, uses_anonymous_args = 0
 641              		@ link register save eliminated.
 642 0000 80B4     		push	{r7}
 643              	.LCFI36:
 644              		.cfi_def_cfa_offset 4
 645 0002 83B0     		sub	sp, sp, #12
 646              	.LCFI37:
 647              		.cfi_def_cfa_offset 16
 648 0004 00AF     		add	r7, sp, #0
 649              		.cfi_offset 7, -4
 650              	.LCFI38:
 651              		.cfi_def_cfa_register 7
 652 0006 0346     		mov	r3, r0
 653 0008 FB71     		strb	r3, [r7, #7]
 694:.\Generated_Source\PSoC5/Timer_Line_Begin.c ****     Timer_Line_Begin_CAP_COUNT = captureCount;
 654              		.loc 1 694 0
 655 000a 46F28843 		movw	r3, #:lower16:1073767560
 656 000e C4F20003 		movt	r3, #:upper16:1073767560
 657 0012 FA79     		ldrb	r2, [r7, #7]
 658 0014 1A70     		strb	r2, [r3, #0]
 695:.\Generated_Source\PSoC5/Timer_Line_Begin.c **** }
 659              		.loc 1 695 0
 660 0016 07F10C07 		add	r7, r7, #12
 661 001a BD46     		mov	sp, r7
 662 001c 80BC     		pop	{r7}
 663 001e 7047     		bx	lr
 664              		.cfi_endproc
 665              	.LFE15:
 666              		.size	Timer_Line_Begin_SetCaptureCount, .-Timer_Line_Begin_SetCaptureCount
 667              		.section	.text.Timer_Line_Begin_ReadCaptureCount,"ax",%progbits
 668              		.align	2
 669              		.global	Timer_Line_Begin_ReadCaptureCount
ARM GAS  C:\Users\bccho\AppData\Local\Temp\ccgG2AVn.s 			page 25


 670              		.thumb
 671              		.thumb_func
 672              		.type	Timer_Line_Begin_ReadCaptureCount, %function
 673              	Timer_Line_Begin_ReadCaptureCount:
 674              	.LFB16:
 696:.\Generated_Source\PSoC5/Timer_Line_Begin.c **** 
 697:.\Generated_Source\PSoC5/Timer_Line_Begin.c **** 
 698:.\Generated_Source\PSoC5/Timer_Line_Begin.c **** /*******************************************************************************
 699:.\Generated_Source\PSoC5/Timer_Line_Begin.c **** * Function Name: Timer_Line_Begin_ReadCaptureCount
 700:.\Generated_Source\PSoC5/Timer_Line_Begin.c **** ********************************************************************************
 701:.\Generated_Source\PSoC5/Timer_Line_Begin.c **** *
 702:.\Generated_Source\PSoC5/Timer_Line_Begin.c **** * Summary:
 703:.\Generated_Source\PSoC5/Timer_Line_Begin.c **** *  This function reads the capture count setting
 704:.\Generated_Source\PSoC5/Timer_Line_Begin.c **** *
 705:.\Generated_Source\PSoC5/Timer_Line_Begin.c **** * Parameters:
 706:.\Generated_Source\PSoC5/Timer_Line_Begin.c **** *  void
 707:.\Generated_Source\PSoC5/Timer_Line_Begin.c **** *
 708:.\Generated_Source\PSoC5/Timer_Line_Begin.c **** * Return:
 709:.\Generated_Source\PSoC5/Timer_Line_Begin.c **** *  Returns the Capture Count Setting
 710:.\Generated_Source\PSoC5/Timer_Line_Begin.c **** *
 711:.\Generated_Source\PSoC5/Timer_Line_Begin.c **** *******************************************************************************/
 712:.\Generated_Source\PSoC5/Timer_Line_Begin.c **** uint8 Timer_Line_Begin_ReadCaptureCount(void) 
 713:.\Generated_Source\PSoC5/Timer_Line_Begin.c **** {
 675              		.loc 1 713 0
 676              		.cfi_startproc
 677              		@ args = 0, pretend = 0, frame = 0
 678              		@ frame_needed = 1, uses_anonymous_args = 0
 679              		@ link register save eliminated.
 680 0000 80B4     		push	{r7}
 681              	.LCFI39:
 682              		.cfi_def_cfa_offset 4
 683 0002 00AF     		add	r7, sp, #0
 684              		.cfi_offset 7, -4
 685              	.LCFI40:
 686              		.cfi_def_cfa_register 7
 714:.\Generated_Source\PSoC5/Timer_Line_Begin.c ****     return Timer_Line_Begin_CAP_COUNT ;
 687              		.loc 1 714 0
 688 0004 46F28843 		movw	r3, #:lower16:1073767560
 689 0008 C4F20003 		movt	r3, #:upper16:1073767560
 690 000c 1B78     		ldrb	r3, [r3, #0]
 691 000e DBB2     		uxtb	r3, r3
 715:.\Generated_Source\PSoC5/Timer_Line_Begin.c **** }
 692              		.loc 1 715 0
 693 0010 1846     		mov	r0, r3
 694 0012 BD46     		mov	sp, r7
 695 0014 80BC     		pop	{r7}
 696 0016 7047     		bx	lr
 697              		.cfi_endproc
 698              	.LFE16:
 699              		.size	Timer_Line_Begin_ReadCaptureCount, .-Timer_Line_Begin_ReadCaptureCount
 700              		.section	.text.Timer_Line_Begin_ClearFIFO,"ax",%progbits
 701              		.align	2
 702              		.global	Timer_Line_Begin_ClearFIFO
 703              		.thumb
 704              		.thumb_func
 705              		.type	Timer_Line_Begin_ClearFIFO, %function
 706              	Timer_Line_Begin_ClearFIFO:
ARM GAS  C:\Users\bccho\AppData\Local\Temp\ccgG2AVn.s 			page 26


 707              	.LFB17:
 716:.\Generated_Source\PSoC5/Timer_Line_Begin.c **** #endif /* Timer_Line_Begin_UsingHWCaptureCounter */
 717:.\Generated_Source\PSoC5/Timer_Line_Begin.c **** 
 718:.\Generated_Source\PSoC5/Timer_Line_Begin.c **** 
 719:.\Generated_Source\PSoC5/Timer_Line_Begin.c **** /*******************************************************************************
 720:.\Generated_Source\PSoC5/Timer_Line_Begin.c **** * Function Name: Timer_Line_Begin_ClearFIFO
 721:.\Generated_Source\PSoC5/Timer_Line_Begin.c **** ********************************************************************************
 722:.\Generated_Source\PSoC5/Timer_Line_Begin.c **** *
 723:.\Generated_Source\PSoC5/Timer_Line_Begin.c **** * Summary:
 724:.\Generated_Source\PSoC5/Timer_Line_Begin.c **** *  This function clears all capture data from the capture FIFO
 725:.\Generated_Source\PSoC5/Timer_Line_Begin.c **** *
 726:.\Generated_Source\PSoC5/Timer_Line_Begin.c **** * Parameters:
 727:.\Generated_Source\PSoC5/Timer_Line_Begin.c **** *  void
 728:.\Generated_Source\PSoC5/Timer_Line_Begin.c **** *
 729:.\Generated_Source\PSoC5/Timer_Line_Begin.c **** * Return:
 730:.\Generated_Source\PSoC5/Timer_Line_Begin.c **** *  void
 731:.\Generated_Source\PSoC5/Timer_Line_Begin.c **** *
 732:.\Generated_Source\PSoC5/Timer_Line_Begin.c **** *******************************************************************************/
 733:.\Generated_Source\PSoC5/Timer_Line_Begin.c **** void Timer_Line_Begin_ClearFIFO(void) 
 734:.\Generated_Source\PSoC5/Timer_Line_Begin.c **** {
 708              		.loc 1 734 0
 709              		.cfi_startproc
 710              		@ args = 0, pretend = 0, frame = 0
 711              		@ frame_needed = 1, uses_anonymous_args = 0
 712 0000 80B5     		push	{r7, lr}
 713              	.LCFI41:
 714              		.cfi_def_cfa_offset 8
 715 0002 00AF     		add	r7, sp, #0
 716              		.cfi_offset 14, -4
 717              		.cfi_offset 7, -8
 718              	.LCFI42:
 719              		.cfi_def_cfa_register 7
 735:.\Generated_Source\PSoC5/Timer_Line_Begin.c ****     while(Timer_Line_Begin_ReadStatusRegister() & Timer_Line_Begin_STATUS_FIFONEMP)
 720              		.loc 1 735 0
 721 0004 01E0     		b	.L37
 722              	.L38:
 736:.\Generated_Source\PSoC5/Timer_Line_Begin.c ****     {
 737:.\Generated_Source\PSoC5/Timer_Line_Begin.c ****         Timer_Line_Begin_ReadCapture();
 723              		.loc 1 737 0
 724 0006 FFF7FEFF 		bl	Timer_Line_Begin_ReadCapture
 725              	.L37:
 726              		.loc 1 735 0
 727 000a FFF7FEFF 		bl	Timer_Line_Begin_ReadStatusRegister
 728 000e 0346     		mov	r3, r0
 729 0010 03F00803 		and	r3, r3, #8
 730 0014 002B     		cmp	r3, #0
 731 0016 F6D1     		bne	.L38
 738:.\Generated_Source\PSoC5/Timer_Line_Begin.c ****     }
 739:.\Generated_Source\PSoC5/Timer_Line_Begin.c **** }
 732              		.loc 1 739 0
 733 0018 80BD     		pop	{r7, pc}
 734              		.cfi_endproc
 735              	.LFE17:
 736              		.size	Timer_Line_Begin_ClearFIFO, .-Timer_Line_Begin_ClearFIFO
 737 001a 00BF     		.text
 738              	.Letext0: