ARM GAS  C:\Users\bccho\AppData\Local\Temp\ccdg49jd.s 			page 1


   1              		.syntax unified
   2              		.cpu cortex-m3
   3              		.fpu softvfp
   4              		.eabi_attribute 20, 1
   5              		.eabi_attribute 21, 1
   6              		.eabi_attribute 23, 3
   7              		.eabi_attribute 24, 1
   8              		.eabi_attribute 25, 1
   9              		.eabi_attribute 26, 1
  10              		.eabi_attribute 30, 6
  11              		.eabi_attribute 18, 4
  12              		.thumb
  13              		.file	"main.c"
  20 0000 7B000000 		.text
  20      02004600 
  20      00000201 
  20      FB0E0D00 
  20      01010101 
  21              	.Ltext0:
  22              		.cfi_sections	.debug_frame
  23              		.section	.rodata
  24              		.align	2
  25              	.LC0:
  26 0000 4F6E2000 		.ascii	"On \000"
  27              		.align	2
  28              	.LC1:
  29 0004 4F666600 		.ascii	"Off\000"
  30              		.section	.text.inter,"ax",%progbits
  31              		.align	2
  32              		.global	inter
  33              		.thumb
  34              		.thumb_func
  35              		.type	inter, %function
  36              	inter:
  37              	.LFB29:
  38              		.file 1 ".\\main.c"
   1:.\main.c      **** /* ========================================
   2:.\main.c      ****  *
   3:.\main.c      ****  * Copyright YOUR COMPANY, THE YEAR
   4:.\main.c      ****  * All Rights Reserved
   5:.\main.c      ****  * UNPUBLISHED, LICENSED SOFTWARE.
   6:.\main.c      ****  *
   7:.\main.c      ****  * CONFIDENTIAL AND PROPRIETARY INFORMATION
   8:.\main.c      ****  * WHICH IS THE PROPERTY OF your company.
   9:.\main.c      ****  *
  10:.\main.c      ****  * ========================================
  11:.\main.c      **** */
  12:.\main.c      **** #include <device.h>
  13:.\main.c      **** 
  14:.\main.c      **** CY_ISR(inter) {
  39              		.loc 1 14 0
ARM GAS  C:\Users\bccho\AppData\Local\Temp\ccdg49jd.s 			page 2


  40              		.cfi_startproc
  41              		@ args = 0, pretend = 0, frame = 0
  42              		@ frame_needed = 1, uses_anonymous_args = 0
  43 0000 80B5     		push	{r7, lr}
  44              	.LCFI0:
  45              		.cfi_def_cfa_offset 8
  46 0002 00AF     		add	r7, sp, #0
  47              		.cfi_offset 14, -4
  48              		.cfi_offset 7, -8
  49              	.LCFI1:
  50              		.cfi_def_cfa_register 7
  15:.\main.c      ****     if (PWM_ReadCompare() == 0) {
  51              		.loc 1 15 0
  52 0004 46F22E43 		movw	r3, #:lower16:1073767470
  53 0008 C4F20003 		movt	r3, #:upper16:1073767470
  54 000c 1B78     		ldrb	r3, [r3, #0]
  55 000e DBB2     		uxtb	r3, r3
  56 0010 002B     		cmp	r3, #0
  57 0012 10D1     		bne	.L2
  16:.\main.c      ****         PWM_WriteCompare(99);
  58              		.loc 1 16 0
  59 0014 4FF06300 		mov	r0, #99
  60 0018 FFF7FEFF 		bl	PWM_WriteCompare
  17:.\main.c      ****         LCD_Position(1,0);
  61              		.loc 1 17 0
  62 001c 4FF00100 		mov	r0, #1
  63 0020 4FF00001 		mov	r1, #0
  64 0024 FFF7FEFF 		bl	LCD_Position
  18:.\main.c      ****         LCD_PrintString("On ");
  65              		.loc 1 18 0
  66 0028 40F20000 		movw	r0, #:lower16:.LC0
  67 002c C0F20000 		movt	r0, #:upper16:.LC0
  68 0030 FFF7FEFF 		bl	LCD_PrintString
  69 0034 0FE0     		b	.L4
  70              	.L2:
  19:.\main.c      ****     } else {
  20:.\main.c      ****         PWM_WriteCompare(0);
  71              		.loc 1 20 0
  72 0036 4FF00000 		mov	r0, #0
  73 003a FFF7FEFF 		bl	PWM_WriteCompare
  21:.\main.c      ****         LCD_Position(1,0);
  74              		.loc 1 21 0
  75 003e 4FF00100 		mov	r0, #1
  76 0042 4FF00001 		mov	r1, #0
  77 0046 FFF7FEFF 		bl	LCD_Position
  22:.\main.c      ****         LCD_PrintString("Off");
  78              		.loc 1 22 0
  79 004a 40F20000 		movw	r0, #:lower16:.LC1
  80 004e C0F20000 		movt	r0, #:upper16:.LC1
  81 0052 FFF7FEFF 		bl	LCD_PrintString
  82              	.L4:
  23:.\main.c      ****     }
  24:.\main.c      **** }
  83              		.loc 1 24 0
  84 0056 80BD     		pop	{r7, pc}
  85              		.cfi_endproc
  86              	.LFE29:
ARM GAS  C:\Users\bccho\AppData\Local\Temp\ccdg49jd.s 			page 3


  87              		.size	inter, .-inter
  88              		.section	.rodata
  89              		.align	2
  90              	.LC2:
  91 0008 4C454420 		.ascii	"LED status:\000"
  91      73746174 
  91      75733A00 
  92              		.section	.text.main,"ax",%progbits
  93              		.align	2
  94              		.global	main
  95              		.thumb
  96              		.thumb_func
  97              		.type	main, %function
  98              	main:
  99              	.LFB30:
  25:.\main.c      **** 
  26:.\main.c      **** void main() {
 100              		.loc 1 26 0
 101              		.cfi_startproc
 102              		@ args = 0, pretend = 0, frame = 0
 103              		@ frame_needed = 1, uses_anonymous_args = 0
 104 0000 80B5     		push	{r7, lr}
 105              	.LCFI2:
 106              		.cfi_def_cfa_offset 8
 107 0002 00AF     		add	r7, sp, #0
 108              		.cfi_offset 14, -4
 109              		.cfi_offset 7, -8
 110              	.LCFI3:
 111              		.cfi_def_cfa_register 7
  27:.\main.c      ****     /* Place your initialization/startup code here (e.g. MyInst_Start()) */
  28:.\main.c      **** 
  29:.\main.c      ****     CyGlobalIntEnable;
 112              		.loc 1 29 0
 113              	@ 29 ".\main.c" 1
 114 0004 62B6     		CPSIE   i
 115              	@ 0 "" 2
  30:.\main.c      ****     
  31:.\main.c      ****     inter_2_Start();
 116              		.loc 1 31 0
 117              		.thumb
 118 0006 FFF7FEFF 		bl	inter_2_Start
  32:.\main.c      ****     inter_2_SetVector(inter);
 119              		.loc 1 32 0
 120 000a 40F20000 		movw	r0, #:lower16:inter
 121 000e C0F20000 		movt	r0, #:upper16:inter
 122 0012 FFF7FEFF 		bl	inter_2_SetVector
  33:.\main.c      ****     PWM_Start();
 123              		.loc 1 33 0
 124 0016 FFF7FEFF 		bl	PWM_Start
  34:.\main.c      ****     Counter_Start();
 125              		.loc 1 34 0
 126 001a FFF7FEFF 		bl	Counter_Start
  35:.\main.c      **** 
  36:.\main.c      ****     LCD_Start();
 127              		.loc 1 36 0
 128 001e FFF7FEFF 		bl	LCD_Start
  37:.\main.c      ****     LCD_Position(0, 0);
ARM GAS  C:\Users\bccho\AppData\Local\Temp\ccdg49jd.s 			page 4


 129              		.loc 1 37 0
 130 0022 4FF00000 		mov	r0, #0
 131 0026 4FF00001 		mov	r1, #0
 132 002a FFF7FEFF 		bl	LCD_Position
  38:.\main.c      ****     LCD_PrintString("LED status:");
 133              		.loc 1 38 0
 134 002e 40F20000 		movw	r0, #:lower16:.LC2
 135 0032 C0F20000 		movt	r0, #:upper16:.LC2
 136 0036 FFF7FEFF 		bl	LCD_PrintString
 137              	.L6:
  39:.\main.c      ****     
  40:.\main.c      ****     for(;;) {
  41:.\main.c      ****         /* Place your application code here. */
  42:.\main.c      ****     }
 138              		.loc 1 42 0
 139 003a FEE7     		b	.L6
 140              		.cfi_endproc
 141              	.LFE30:
 142              		.size	main, .-main
 143              		.text
 144              	.Letext0: