ARM GAS  C:\Users\bccho\AppData\Local\Temp\ccizFp25.s 			page 1


   1              		.syntax unified
   2              		.cpu cortex-m3
   3              		.fpu softvfp
   4              		.eabi_attribute 20, 1
   5              		.eabi_attribute 21, 1
   6              		.eabi_attribute 23, 3
   7              		.eabi_attribute 24, 1
   8              		.eabi_attribute 25, 1
   9              		.eabi_attribute 26, 1
  10              		.eabi_attribute 30, 6
  11              		.eabi_attribute 18, 4
  12              		.thumb
  13              		.file	"Counter_PID.c"
  20 0000 70010000 		.text
  20      02006400 
  20      00000201 
  20      FB0E0D00 
  20      01010101 
  21              	.Ltext0:
  22              		.cfi_sections	.debug_frame
  23              		.global	Counter_PID_initVar
  24              		.bss
  25              		.type	Counter_PID_initVar, %object
  26              		.size	Counter_PID_initVar, 1
  27              	Counter_PID_initVar:
  28 0000 00       		.space	1
  29              		.section	.text.Counter_PID_Init,"ax",%progbits
  30              		.align	2
  31              		.global	Counter_PID_Init
  32              		.thumb
  33              		.thumb_func
  34              		.type	Counter_PID_Init, %function
  35              	Counter_PID_Init:
  36              	.LFB0:
  37              		.file 1 ".\\Generated_Source\\PSoC5\\Counter_PID.c"
   1:.\Generated_Source\PSoC5/Counter_PID.c **** /*******************************************************************************
   2:.\Generated_Source\PSoC5/Counter_PID.c **** * File Name: Counter_PID.c  
   3:.\Generated_Source\PSoC5/Counter_PID.c **** * Version 2.20
   4:.\Generated_Source\PSoC5/Counter_PID.c **** *
   5:.\Generated_Source\PSoC5/Counter_PID.c **** *  Description:
   6:.\Generated_Source\PSoC5/Counter_PID.c **** *     The Counter component consists of a 8, 16, 24 or 32-bit counter with
   7:.\Generated_Source\PSoC5/Counter_PID.c **** *     a selectable period between 2 and 2^Width - 1.  
   8:.\Generated_Source\PSoC5/Counter_PID.c **** *
   9:.\Generated_Source\PSoC5/Counter_PID.c **** *   Note:
  10:.\Generated_Source\PSoC5/Counter_PID.c **** *     None
  11:.\Generated_Source\PSoC5/Counter_PID.c **** *
  12:.\Generated_Source\PSoC5/Counter_PID.c **** *******************************************************************************
  13:.\Generated_Source\PSoC5/Counter_PID.c **** * Copyright 2008-2012, Cypress Semiconductor Corporation.  All rights reserved.
  14:.\Generated_Source\PSoC5/Counter_PID.c **** * You may use this file only in accordance with the license, terms, conditions, 
  15:.\Generated_Source\PSoC5/Counter_PID.c **** * disclaimers, and limitations in the end user license agreement accompanying 
  16:.\Generated_Source\PSoC5/Counter_PID.c **** * the software package with which this file was provided.
ARM GAS  C:\Users\bccho\AppData\Local\Temp\ccizFp25.s 			page 2


  17:.\Generated_Source\PSoC5/Counter_PID.c **** ********************************************************************************/
  18:.\Generated_Source\PSoC5/Counter_PID.c **** 
  19:.\Generated_Source\PSoC5/Counter_PID.c **** #include "Counter_PID.h"
  20:.\Generated_Source\PSoC5/Counter_PID.c **** 
  21:.\Generated_Source\PSoC5/Counter_PID.c **** uint8 Counter_PID_initVar = 0u;
  22:.\Generated_Source\PSoC5/Counter_PID.c **** 
  23:.\Generated_Source\PSoC5/Counter_PID.c **** 
  24:.\Generated_Source\PSoC5/Counter_PID.c **** /*******************************************************************************
  25:.\Generated_Source\PSoC5/Counter_PID.c **** * Function Name: Counter_PID_Init
  26:.\Generated_Source\PSoC5/Counter_PID.c **** ********************************************************************************
  27:.\Generated_Source\PSoC5/Counter_PID.c **** * Summary:
  28:.\Generated_Source\PSoC5/Counter_PID.c **** *     Initialize to the schematic state
  29:.\Generated_Source\PSoC5/Counter_PID.c **** * 
  30:.\Generated_Source\PSoC5/Counter_PID.c **** * Parameters:  
  31:.\Generated_Source\PSoC5/Counter_PID.c **** *  void  
  32:.\Generated_Source\PSoC5/Counter_PID.c **** *
  33:.\Generated_Source\PSoC5/Counter_PID.c **** * Return: 
  34:.\Generated_Source\PSoC5/Counter_PID.c **** *  void
  35:.\Generated_Source\PSoC5/Counter_PID.c **** *
  36:.\Generated_Source\PSoC5/Counter_PID.c **** *******************************************************************************/
  37:.\Generated_Source\PSoC5/Counter_PID.c **** void Counter_PID_Init(void) 
  38:.\Generated_Source\PSoC5/Counter_PID.c **** {
  38              		.loc 1 38 0
  39              		.cfi_startproc
  40              		@ args = 0, pretend = 0, frame = 0
  41              		@ frame_needed = 1, uses_anonymous_args = 0
  42 0000 80B5     		push	{r7, lr}
  43              	.LCFI0:
  44              		.cfi_def_cfa_offset 8
  45 0002 00AF     		add	r7, sp, #0
  46              		.cfi_offset 14, -4
  47              		.cfi_offset 7, -8
  48              	.LCFI1:
  49              		.cfi_def_cfa_register 7
  39:.\Generated_Source\PSoC5/Counter_PID.c ****         #if (!Counter_PID_UsingFixedFunction && !Counter_PID_ControlRegRemoved)
  40:.\Generated_Source\PSoC5/Counter_PID.c ****             uint8 ctrl;
  41:.\Generated_Source\PSoC5/Counter_PID.c ****         #endif /* (!Counter_PID_UsingFixedFunction && !Counter_PID_ControlRegRemoved) */
  42:.\Generated_Source\PSoC5/Counter_PID.c ****         
  43:.\Generated_Source\PSoC5/Counter_PID.c ****         #if(!Counter_PID_UsingFixedFunction) 
  44:.\Generated_Source\PSoC5/Counter_PID.c ****             /* Interrupt State Backup for Critical Region*/
  45:.\Generated_Source\PSoC5/Counter_PID.c ****             uint8 Counter_PID_interruptState;
  46:.\Generated_Source\PSoC5/Counter_PID.c ****         #endif /* (!Counter_PID_UsingFixedFunction) */
  47:.\Generated_Source\PSoC5/Counter_PID.c ****         
  48:.\Generated_Source\PSoC5/Counter_PID.c ****         #if (Counter_PID_UsingFixedFunction)
  49:.\Generated_Source\PSoC5/Counter_PID.c ****             /* Clear all bits but the enable bit (if it's already set for Timer operation */
  50:.\Generated_Source\PSoC5/Counter_PID.c ****             Counter_PID_CONTROL &= Counter_PID_CTRL_ENABLE;
  50              		.loc 1 50 0
  51 0004 44F60073 		movw	r3, #:lower16:1073762048
  52 0008 C4F20003 		movt	r3, #:upper16:1073762048
  53 000c 44F60072 		movw	r2, #:lower16:1073762048
  54 0010 C4F20002 		movt	r2, #:upper16:1073762048
  55 0014 1278     		ldrb	r2, [r2, #0]
  56 0016 D2B2     		uxtb	r2, r2
  57 0018 02F00102 		and	r2, r2, #1
  58 001c 1A70     		strb	r2, [r3, #0]
  51:.\Generated_Source\PSoC5/Counter_PID.c ****             
  52:.\Generated_Source\PSoC5/Counter_PID.c ****             /* Clear the mode bits for continuous run mode */
ARM GAS  C:\Users\bccho\AppData\Local\Temp\ccizFp25.s 			page 3


  53:.\Generated_Source\PSoC5/Counter_PID.c ****             #if (CY_PSOC5A)
  54:.\Generated_Source\PSoC5/Counter_PID.c ****                 Counter_PID_CONTROL2 &= ~Counter_PID_CTRL_MODE_MASK;
  55:.\Generated_Source\PSoC5/Counter_PID.c ****             #endif /* (CY_PSOC5A) */
  56:.\Generated_Source\PSoC5/Counter_PID.c ****             #if (CY_PSOC3 || CY_PSOC5LP)
  57:.\Generated_Source\PSoC5/Counter_PID.c ****                 Counter_PID_CONTROL3 &= ~Counter_PID_CTRL_MODE_MASK;                
  59              		.loc 1 57 0
  60 001e 44F60273 		movw	r3, #:lower16:1073762050
  61 0022 C4F20003 		movt	r3, #:upper16:1073762050
  62 0026 44F60272 		movw	r2, #:lower16:1073762050
  63 002a C4F20002 		movt	r2, #:upper16:1073762050
  64 002e 1278     		ldrb	r2, [r2, #0]
  65 0030 D2B2     		uxtb	r2, r2
  66 0032 02F0FC02 		and	r2, r2, #252
  67 0036 1A70     		strb	r2, [r3, #0]
  58:.\Generated_Source\PSoC5/Counter_PID.c ****             #endif /* (CY_PSOC3 || CY_PSOC5LP) */
  59:.\Generated_Source\PSoC5/Counter_PID.c ****             /* Check if One Shot mode is enabled i.e. RunMode !=0*/
  60:.\Generated_Source\PSoC5/Counter_PID.c ****             #if (Counter_PID_RunModeUsed != 0x0u)
  61:.\Generated_Source\PSoC5/Counter_PID.c ****                 /* Set 3rd bit of Control register to enable one shot mode */
  62:.\Generated_Source\PSoC5/Counter_PID.c ****                 Counter_PID_CONTROL |= Counter_PID_ONESHOT;
  63:.\Generated_Source\PSoC5/Counter_PID.c ****             #endif /* (Counter_PID_RunModeUsed != 0x0u) */
  64:.\Generated_Source\PSoC5/Counter_PID.c ****             
  65:.\Generated_Source\PSoC5/Counter_PID.c ****             /* Set the IRQ to use the status register interrupts */
  66:.\Generated_Source\PSoC5/Counter_PID.c ****             Counter_PID_CONTROL2 |= Counter_PID_CTRL2_IRQ_SEL;
  68              		.loc 1 66 0
  69 0038 44F60173 		movw	r3, #:lower16:1073762049
  70 003c C4F20003 		movt	r3, #:upper16:1073762049
  71 0040 44F60172 		movw	r2, #:lower16:1073762049
  72 0044 C4F20002 		movt	r2, #:upper16:1073762049
  73 0048 1278     		ldrb	r2, [r2, #0]
  74 004a D2B2     		uxtb	r2, r2
  75 004c 42F00102 		orr	r2, r2, #1
  76 0050 D2B2     		uxtb	r2, r2
  77 0052 1A70     		strb	r2, [r3, #0]
  67:.\Generated_Source\PSoC5/Counter_PID.c ****             
  68:.\Generated_Source\PSoC5/Counter_PID.c ****             /* Clear and Set SYNCTC and SYNCCMP bits of RT1 register */
  69:.\Generated_Source\PSoC5/Counter_PID.c ****             Counter_PID_RT1 &= ~Counter_PID_RT1_MASK;
  78              		.loc 1 69 0
  79 0054 44F60B73 		movw	r3, #:lower16:1073762059
  80 0058 C4F20003 		movt	r3, #:upper16:1073762059
  81 005c 44F60B72 		movw	r2, #:lower16:1073762059
  82 0060 C4F20002 		movt	r2, #:upper16:1073762059
  83 0064 1278     		ldrb	r2, [r2, #0]
  84 0066 D2B2     		uxtb	r2, r2
  85 0068 02F0CF02 		and	r2, r2, #207
  86 006c 1A70     		strb	r2, [r3, #0]
  70:.\Generated_Source\PSoC5/Counter_PID.c ****             Counter_PID_RT1 |= Counter_PID_SYNC;     
  87              		.loc 1 70 0
  88 006e 44F60B73 		movw	r3, #:lower16:1073762059
  89 0072 C4F20003 		movt	r3, #:upper16:1073762059
  90 0076 44F60B72 		movw	r2, #:lower16:1073762059
  91 007a C4F20002 		movt	r2, #:upper16:1073762059
  92 007e 1278     		ldrb	r2, [r2, #0]
  93 0080 D2B2     		uxtb	r2, r2
  94 0082 42F03002 		orr	r2, r2, #48
  95 0086 D2B2     		uxtb	r2, r2
  96 0088 1A70     		strb	r2, [r3, #0]
  71:.\Generated_Source\PSoC5/Counter_PID.c ****                     
ARM GAS  C:\Users\bccho\AppData\Local\Temp\ccizFp25.s 			page 4


  72:.\Generated_Source\PSoC5/Counter_PID.c ****             /*Enable DSI Sync all all inputs of the Timer*/
  73:.\Generated_Source\PSoC5/Counter_PID.c ****             Counter_PID_RT1 &= ~(Counter_PID_SYNCDSI_MASK);
  97              		.loc 1 73 0
  98 008a 44F60B73 		movw	r3, #:lower16:1073762059
  99 008e C4F20003 		movt	r3, #:upper16:1073762059
 100 0092 44F60B72 		movw	r2, #:lower16:1073762059
 101 0096 C4F20002 		movt	r2, #:upper16:1073762059
 102 009a 1278     		ldrb	r2, [r2, #0]
 103 009c D2B2     		uxtb	r2, r2
 104 009e 02F0F002 		and	r2, r2, #240
 105 00a2 1A70     		strb	r2, [r3, #0]
  74:.\Generated_Source\PSoC5/Counter_PID.c ****             Counter_PID_RT1 |= Counter_PID_SYNCDSI_EN;
 106              		.loc 1 74 0
 107 00a4 44F60B73 		movw	r3, #:lower16:1073762059
 108 00a8 C4F20003 		movt	r3, #:upper16:1073762059
 109 00ac 44F60B72 		movw	r2, #:lower16:1073762059
 110 00b0 C4F20002 		movt	r2, #:upper16:1073762059
 111 00b4 1278     		ldrb	r2, [r2, #0]
 112 00b6 D2B2     		uxtb	r2, r2
 113 00b8 42F00F02 		orr	r2, r2, #15
 114 00bc D2B2     		uxtb	r2, r2
 115 00be 1A70     		strb	r2, [r3, #0]
  75:.\Generated_Source\PSoC5/Counter_PID.c **** 
  76:.\Generated_Source\PSoC5/Counter_PID.c ****         #else
  77:.\Generated_Source\PSoC5/Counter_PID.c ****             #if(!Counter_PID_ControlRegRemoved)
  78:.\Generated_Source\PSoC5/Counter_PID.c ****             /* Set the default compare mode defined in the parameter */
  79:.\Generated_Source\PSoC5/Counter_PID.c ****             ctrl = Counter_PID_CONTROL & ~Counter_PID_CTRL_CMPMODE_MASK;
  80:.\Generated_Source\PSoC5/Counter_PID.c ****             Counter_PID_CONTROL = ctrl | Counter_PID_DEFAULT_COMPARE_MODE;
  81:.\Generated_Source\PSoC5/Counter_PID.c ****             
  82:.\Generated_Source\PSoC5/Counter_PID.c ****             /* Set the default capture mode defined in the parameter */
  83:.\Generated_Source\PSoC5/Counter_PID.c ****             ctrl = Counter_PID_CONTROL & ~Counter_PID_CTRL_CAPMODE_MASK;
  84:.\Generated_Source\PSoC5/Counter_PID.c ****             Counter_PID_CONTROL = ctrl | Counter_PID_DEFAULT_CAPTURE_MODE;
  85:.\Generated_Source\PSoC5/Counter_PID.c ****             #endif /* (!Counter_PID_ControlRegRemoved) */
  86:.\Generated_Source\PSoC5/Counter_PID.c ****         #endif /* (Counter_PID_UsingFixedFunction) */
  87:.\Generated_Source\PSoC5/Counter_PID.c ****         
  88:.\Generated_Source\PSoC5/Counter_PID.c ****         /* Clear all data in the FIFO's */
  89:.\Generated_Source\PSoC5/Counter_PID.c ****         #if (!Counter_PID_UsingFixedFunction)
  90:.\Generated_Source\PSoC5/Counter_PID.c ****             Counter_PID_ClearFIFO();
  91:.\Generated_Source\PSoC5/Counter_PID.c ****         #endif /* (!Counter_PID_UsingFixedFunction) */
  92:.\Generated_Source\PSoC5/Counter_PID.c ****         
  93:.\Generated_Source\PSoC5/Counter_PID.c ****         /* Set Initial values from Configuration */
  94:.\Generated_Source\PSoC5/Counter_PID.c ****         Counter_PID_WritePeriod(Counter_PID_INIT_PERIOD_VALUE);
 116              		.loc 1 94 0
 117 00c0 44F62060 		movw	r0, #20000
 118 00c4 FFF7FEFF 		bl	Counter_PID_WritePeriod
  95:.\Generated_Source\PSoC5/Counter_PID.c ****         #if (!(Counter_PID_UsingFixedFunction && (CY_PSOC5A)))
  96:.\Generated_Source\PSoC5/Counter_PID.c ****             Counter_PID_WriteCounter(Counter_PID_INIT_COUNTER_VALUE);
 119              		.loc 1 96 0
 120 00c8 44F62060 		movw	r0, #20000
 121 00cc FFF7FEFF 		bl	Counter_PID_WriteCounter
  97:.\Generated_Source\PSoC5/Counter_PID.c ****         #endif /* (!(Counter_PID_UsingFixedFunction && (CY_PSOC5A))) */
  98:.\Generated_Source\PSoC5/Counter_PID.c ****         Counter_PID_SetInterruptMode(Counter_PID_INIT_INTERRUPTS_MASK);
 122              		.loc 1 98 0
 123 00d0 4FF00800 		mov	r0, #8
 124 00d4 FFF7FEFF 		bl	Counter_PID_SetInterruptMode
  99:.\Generated_Source\PSoC5/Counter_PID.c ****         
 100:.\Generated_Source\PSoC5/Counter_PID.c ****         #if (!Counter_PID_UsingFixedFunction)
ARM GAS  C:\Users\bccho\AppData\Local\Temp\ccizFp25.s 			page 5


 101:.\Generated_Source\PSoC5/Counter_PID.c ****             /* Read the status register to clear the unwanted interrupts */
 102:.\Generated_Source\PSoC5/Counter_PID.c ****             Counter_PID_ReadStatusRegister();
 103:.\Generated_Source\PSoC5/Counter_PID.c ****             /* Set the compare value (only available to non-fixed function implementation */
 104:.\Generated_Source\PSoC5/Counter_PID.c ****             Counter_PID_WriteCompare(Counter_PID_INIT_COMPARE_VALUE);
 105:.\Generated_Source\PSoC5/Counter_PID.c ****             /* Use the interrupt output of the status register for IRQ output */
 106:.\Generated_Source\PSoC5/Counter_PID.c ****             
 107:.\Generated_Source\PSoC5/Counter_PID.c ****             /* CyEnterCriticalRegion and CyExitCriticalRegion are used to mark following region cri
 108:.\Generated_Source\PSoC5/Counter_PID.c ****             /* Enter Critical Region*/
 109:.\Generated_Source\PSoC5/Counter_PID.c ****             Counter_PID_interruptState = CyEnterCriticalSection();
 110:.\Generated_Source\PSoC5/Counter_PID.c ****             
 111:.\Generated_Source\PSoC5/Counter_PID.c ****             Counter_PID_STATUS_AUX_CTRL |= Counter_PID_STATUS_ACTL_INT_EN_MASK;
 112:.\Generated_Source\PSoC5/Counter_PID.c ****             
 113:.\Generated_Source\PSoC5/Counter_PID.c ****             /* Exit Critical Region*/
 114:.\Generated_Source\PSoC5/Counter_PID.c ****             CyExitCriticalSection(Counter_PID_interruptState);
 115:.\Generated_Source\PSoC5/Counter_PID.c ****             
 116:.\Generated_Source\PSoC5/Counter_PID.c ****         #endif /* (!Counter_PID_UsingFixedFunction) */
 117:.\Generated_Source\PSoC5/Counter_PID.c **** }
 125              		.loc 1 117 0
 126 00d8 80BD     		pop	{r7, pc}
 127              		.cfi_endproc
 128              	.LFE0:
 129              		.size	Counter_PID_Init, .-Counter_PID_Init
 130 00da 00BF     		.section	.text.Counter_PID_Enable,"ax",%progbits
 131              		.align	2
 132              		.global	Counter_PID_Enable
 133              		.thumb
 134              		.thumb_func
 135              		.type	Counter_PID_Enable, %function
 136              	Counter_PID_Enable:
 137              	.LFB1:
 118:.\Generated_Source\PSoC5/Counter_PID.c **** 
 119:.\Generated_Source\PSoC5/Counter_PID.c **** 
 120:.\Generated_Source\PSoC5/Counter_PID.c **** /*******************************************************************************
 121:.\Generated_Source\PSoC5/Counter_PID.c **** * Function Name: Counter_PID_Enable
 122:.\Generated_Source\PSoC5/Counter_PID.c **** ********************************************************************************
 123:.\Generated_Source\PSoC5/Counter_PID.c **** * Summary:
 124:.\Generated_Source\PSoC5/Counter_PID.c **** *     Enable the Counter
 125:.\Generated_Source\PSoC5/Counter_PID.c **** * 
 126:.\Generated_Source\PSoC5/Counter_PID.c **** * Parameters:  
 127:.\Generated_Source\PSoC5/Counter_PID.c **** *  void  
 128:.\Generated_Source\PSoC5/Counter_PID.c **** *
 129:.\Generated_Source\PSoC5/Counter_PID.c **** * Return: 
 130:.\Generated_Source\PSoC5/Counter_PID.c **** *  void
 131:.\Generated_Source\PSoC5/Counter_PID.c **** *
 132:.\Generated_Source\PSoC5/Counter_PID.c **** * Side Effects: 
 133:.\Generated_Source\PSoC5/Counter_PID.c **** *   If the Enable mode is set to Hardware only then this function has no effect 
 134:.\Generated_Source\PSoC5/Counter_PID.c **** *   on the operation of the counter.
 135:.\Generated_Source\PSoC5/Counter_PID.c **** *
 136:.\Generated_Source\PSoC5/Counter_PID.c **** *******************************************************************************/
 137:.\Generated_Source\PSoC5/Counter_PID.c **** void Counter_PID_Enable(void) 
 138:.\Generated_Source\PSoC5/Counter_PID.c **** {
 138              		.loc 1 138 0
 139              		.cfi_startproc
 140              		@ args = 0, pretend = 0, frame = 0
 141              		@ frame_needed = 1, uses_anonymous_args = 0
 142              		@ link register save eliminated.
 143 0000 80B4     		push	{r7}
ARM GAS  C:\Users\bccho\AppData\Local\Temp\ccizFp25.s 			page 6


 144              	.LCFI2:
 145              		.cfi_def_cfa_offset 4
 146 0002 00AF     		add	r7, sp, #0
 147              		.cfi_offset 7, -4
 148              	.LCFI3:
 149              		.cfi_def_cfa_register 7
 139:.\Generated_Source\PSoC5/Counter_PID.c ****     /* Globally Enable the Fixed Function Block chosen */
 140:.\Generated_Source\PSoC5/Counter_PID.c ****     #if (Counter_PID_UsingFixedFunction)
 141:.\Generated_Source\PSoC5/Counter_PID.c ****         Counter_PID_GLOBAL_ENABLE |= Counter_PID_BLOCK_EN_MASK;
 150              		.loc 1 141 0
 151 0004 44F2A333 		movw	r3, #:lower16:1073759139
 152 0008 C4F20003 		movt	r3, #:upper16:1073759139
 153 000c 44F2A332 		movw	r2, #:lower16:1073759139
 154 0010 C4F20002 		movt	r2, #:upper16:1073759139
 155 0014 1278     		ldrb	r2, [r2, #0]
 156 0016 D2B2     		uxtb	r2, r2
 157 0018 42F00102 		orr	r2, r2, #1
 158 001c D2B2     		uxtb	r2, r2
 159 001e 1A70     		strb	r2, [r3, #0]
 142:.\Generated_Source\PSoC5/Counter_PID.c ****         Counter_PID_GLOBAL_STBY_ENABLE |= Counter_PID_BLOCK_STBY_EN_MASK;
 160              		.loc 1 142 0
 161 0020 44F2B333 		movw	r3, #:lower16:1073759155
 162 0024 C4F20003 		movt	r3, #:upper16:1073759155
 163 0028 44F2B332 		movw	r2, #:lower16:1073759155
 164 002c C4F20002 		movt	r2, #:upper16:1073759155
 165 0030 1278     		ldrb	r2, [r2, #0]
 166 0032 D2B2     		uxtb	r2, r2
 167 0034 42F00102 		orr	r2, r2, #1
 168 0038 D2B2     		uxtb	r2, r2
 169 003a 1A70     		strb	r2, [r3, #0]
 143:.\Generated_Source\PSoC5/Counter_PID.c ****     #endif /* (Counter_PID_UsingFixedFunction) */  
 144:.\Generated_Source\PSoC5/Counter_PID.c ****         
 145:.\Generated_Source\PSoC5/Counter_PID.c ****     /* Enable the counter from the control register  */
 146:.\Generated_Source\PSoC5/Counter_PID.c ****     /* If Fixed Function then make sure Mode is set correctly */
 147:.\Generated_Source\PSoC5/Counter_PID.c ****     /* else make sure reset is clear */
 148:.\Generated_Source\PSoC5/Counter_PID.c ****     #if(!Counter_PID_ControlRegRemoved || Counter_PID_UsingFixedFunction)
 149:.\Generated_Source\PSoC5/Counter_PID.c ****         Counter_PID_CONTROL |= Counter_PID_CTRL_ENABLE;                
 170              		.loc 1 149 0
 171 003c 44F60073 		movw	r3, #:lower16:1073762048
 172 0040 C4F20003 		movt	r3, #:upper16:1073762048
 173 0044 44F60072 		movw	r2, #:lower16:1073762048
 174 0048 C4F20002 		movt	r2, #:upper16:1073762048
 175 004c 1278     		ldrb	r2, [r2, #0]
 176 004e D2B2     		uxtb	r2, r2
 177 0050 42F00102 		orr	r2, r2, #1
 178 0054 D2B2     		uxtb	r2, r2
 179 0056 1A70     		strb	r2, [r3, #0]
 150:.\Generated_Source\PSoC5/Counter_PID.c ****     #endif /* (!Counter_PID_ControlRegRemoved || Counter_PID_UsingFixedFunction) */
 151:.\Generated_Source\PSoC5/Counter_PID.c ****     
 152:.\Generated_Source\PSoC5/Counter_PID.c **** }
 180              		.loc 1 152 0
 181 0058 BD46     		mov	sp, r7
 182 005a 80BC     		pop	{r7}
 183 005c 7047     		bx	lr
 184              		.cfi_endproc
 185              	.LFE1:
 186              		.size	Counter_PID_Enable, .-Counter_PID_Enable
ARM GAS  C:\Users\bccho\AppData\Local\Temp\ccizFp25.s 			page 7


 187 005e 00BF     		.section	.text.Counter_PID_Start,"ax",%progbits
 188              		.align	2
 189              		.global	Counter_PID_Start
 190              		.thumb
 191              		.thumb_func
 192              		.type	Counter_PID_Start, %function
 193              	Counter_PID_Start:
 194              	.LFB2:
 153:.\Generated_Source\PSoC5/Counter_PID.c **** 
 154:.\Generated_Source\PSoC5/Counter_PID.c **** 
 155:.\Generated_Source\PSoC5/Counter_PID.c **** /*******************************************************************************
 156:.\Generated_Source\PSoC5/Counter_PID.c **** * Function Name: Counter_PID_Start
 157:.\Generated_Source\PSoC5/Counter_PID.c **** ********************************************************************************
 158:.\Generated_Source\PSoC5/Counter_PID.c **** * Summary:
 159:.\Generated_Source\PSoC5/Counter_PID.c **** *  Enables the counter for operation 
 160:.\Generated_Source\PSoC5/Counter_PID.c **** *
 161:.\Generated_Source\PSoC5/Counter_PID.c **** * Parameters:  
 162:.\Generated_Source\PSoC5/Counter_PID.c **** *  void  
 163:.\Generated_Source\PSoC5/Counter_PID.c **** *
 164:.\Generated_Source\PSoC5/Counter_PID.c **** * Return: 
 165:.\Generated_Source\PSoC5/Counter_PID.c **** *  void
 166:.\Generated_Source\PSoC5/Counter_PID.c **** *
 167:.\Generated_Source\PSoC5/Counter_PID.c **** * Global variables:
 168:.\Generated_Source\PSoC5/Counter_PID.c **** *  Counter_PID_initVar: Is modified when this function is called for the  
 169:.\Generated_Source\PSoC5/Counter_PID.c **** *   first time. Is used to ensure that initialization happens only once.
 170:.\Generated_Source\PSoC5/Counter_PID.c **** *
 171:.\Generated_Source\PSoC5/Counter_PID.c **** *******************************************************************************/
 172:.\Generated_Source\PSoC5/Counter_PID.c **** void Counter_PID_Start(void) 
 173:.\Generated_Source\PSoC5/Counter_PID.c **** {
 195              		.loc 1 173 0
 196              		.cfi_startproc
 197              		@ args = 0, pretend = 0, frame = 0
 198              		@ frame_needed = 1, uses_anonymous_args = 0
 199 0000 80B5     		push	{r7, lr}
 200              	.LCFI4:
 201              		.cfi_def_cfa_offset 8
 202 0002 00AF     		add	r7, sp, #0
 203              		.cfi_offset 14, -4
 204              		.cfi_offset 7, -8
 205              	.LCFI5:
 206              		.cfi_def_cfa_register 7
 174:.\Generated_Source\PSoC5/Counter_PID.c ****     if(Counter_PID_initVar == 0u)
 207              		.loc 1 174 0
 208 0004 40F20003 		movw	r3, #:lower16:Counter_PID_initVar
 209 0008 C0F20003 		movt	r3, #:upper16:Counter_PID_initVar
 210 000c 1B78     		ldrb	r3, [r3, #0]	@ zero_extendqisi2
 211 000e 002B     		cmp	r3, #0
 212 0010 08D1     		bne	.L6
 175:.\Generated_Source\PSoC5/Counter_PID.c ****     {
 176:.\Generated_Source\PSoC5/Counter_PID.c ****         Counter_PID_Init();
 213              		.loc 1 176 0
 214 0012 FFF7FEFF 		bl	Counter_PID_Init
 177:.\Generated_Source\PSoC5/Counter_PID.c ****         
 178:.\Generated_Source\PSoC5/Counter_PID.c ****         Counter_PID_initVar = 1u; /* Clear this bit for Initialization */        
 215              		.loc 1 178 0
 216 0016 40F20003 		movw	r3, #:lower16:Counter_PID_initVar
 217 001a C0F20003 		movt	r3, #:upper16:Counter_PID_initVar
ARM GAS  C:\Users\bccho\AppData\Local\Temp\ccizFp25.s 			page 8


 218 001e 4FF00102 		mov	r2, #1
 219 0022 1A70     		strb	r2, [r3, #0]
 220              	.L6:
 179:.\Generated_Source\PSoC5/Counter_PID.c ****     }
 180:.\Generated_Source\PSoC5/Counter_PID.c ****     
 181:.\Generated_Source\PSoC5/Counter_PID.c ****     /* Enable the Counter */
 182:.\Generated_Source\PSoC5/Counter_PID.c ****     Counter_PID_Enable();        
 221              		.loc 1 182 0
 222 0024 FFF7FEFF 		bl	Counter_PID_Enable
 183:.\Generated_Source\PSoC5/Counter_PID.c **** }
 223              		.loc 1 183 0
 224 0028 80BD     		pop	{r7, pc}
 225              		.cfi_endproc
 226              	.LFE2:
 227              		.size	Counter_PID_Start, .-Counter_PID_Start
 228 002a 00BF     		.section	.text.Counter_PID_Stop,"ax",%progbits
 229              		.align	2
 230              		.global	Counter_PID_Stop
 231              		.thumb
 232              		.thumb_func
 233              		.type	Counter_PID_Stop, %function
 234              	Counter_PID_Stop:
 235              	.LFB3:
 184:.\Generated_Source\PSoC5/Counter_PID.c **** 
 185:.\Generated_Source\PSoC5/Counter_PID.c **** 
 186:.\Generated_Source\PSoC5/Counter_PID.c **** /*******************************************************************************
 187:.\Generated_Source\PSoC5/Counter_PID.c **** * Function Name: Counter_PID_Stop
 188:.\Generated_Source\PSoC5/Counter_PID.c **** ********************************************************************************
 189:.\Generated_Source\PSoC5/Counter_PID.c **** * Summary:
 190:.\Generated_Source\PSoC5/Counter_PID.c **** * Halts the counter, but does not change any modes or disable interrupts.
 191:.\Generated_Source\PSoC5/Counter_PID.c **** *
 192:.\Generated_Source\PSoC5/Counter_PID.c **** * Parameters:  
 193:.\Generated_Source\PSoC5/Counter_PID.c **** *  void  
 194:.\Generated_Source\PSoC5/Counter_PID.c **** *
 195:.\Generated_Source\PSoC5/Counter_PID.c **** * Return: 
 196:.\Generated_Source\PSoC5/Counter_PID.c **** *  void
 197:.\Generated_Source\PSoC5/Counter_PID.c **** *
 198:.\Generated_Source\PSoC5/Counter_PID.c **** * Side Effects: If the Enable mode is set to Hardware only then this function
 199:.\Generated_Source\PSoC5/Counter_PID.c **** *               has no effect on the operation of the counter.
 200:.\Generated_Source\PSoC5/Counter_PID.c **** *
 201:.\Generated_Source\PSoC5/Counter_PID.c **** *******************************************************************************/
 202:.\Generated_Source\PSoC5/Counter_PID.c **** void Counter_PID_Stop(void) 
 203:.\Generated_Source\PSoC5/Counter_PID.c **** {
 236              		.loc 1 203 0
 237              		.cfi_startproc
 238              		@ args = 0, pretend = 0, frame = 0
 239              		@ frame_needed = 1, uses_anonymous_args = 0
 240              		@ link register save eliminated.
 241 0000 80B4     		push	{r7}
 242              	.LCFI6:
 243              		.cfi_def_cfa_offset 4
 244 0002 00AF     		add	r7, sp, #0
 245              		.cfi_offset 7, -4
 246              	.LCFI7:
 247              		.cfi_def_cfa_register 7
 204:.\Generated_Source\PSoC5/Counter_PID.c ****     /* Disable Counter */
 205:.\Generated_Source\PSoC5/Counter_PID.c ****     #if(!Counter_PID_ControlRegRemoved || Counter_PID_UsingFixedFunction)
ARM GAS  C:\Users\bccho\AppData\Local\Temp\ccizFp25.s 			page 9


 206:.\Generated_Source\PSoC5/Counter_PID.c ****         Counter_PID_CONTROL &= ~Counter_PID_CTRL_ENABLE;        
 248              		.loc 1 206 0
 249 0004 44F60073 		movw	r3, #:lower16:1073762048
 250 0008 C4F20003 		movt	r3, #:upper16:1073762048
 251 000c 44F60072 		movw	r2, #:lower16:1073762048
 252 0010 C4F20002 		movt	r2, #:upper16:1073762048
 253 0014 1278     		ldrb	r2, [r2, #0]
 254 0016 D2B2     		uxtb	r2, r2
 255 0018 02F0FE02 		and	r2, r2, #254
 256 001c 1A70     		strb	r2, [r3, #0]
 207:.\Generated_Source\PSoC5/Counter_PID.c ****     #endif /* (!Counter_PID_ControlRegRemoved || Counter_PID_UsingFixedFunction) */
 208:.\Generated_Source\PSoC5/Counter_PID.c ****     
 209:.\Generated_Source\PSoC5/Counter_PID.c ****     /* Globally disable the Fixed Function Block chosen */
 210:.\Generated_Source\PSoC5/Counter_PID.c ****     #if (Counter_PID_UsingFixedFunction)
 211:.\Generated_Source\PSoC5/Counter_PID.c ****         Counter_PID_GLOBAL_ENABLE &= ~Counter_PID_BLOCK_EN_MASK;
 257              		.loc 1 211 0
 258 001e 44F2A333 		movw	r3, #:lower16:1073759139
 259 0022 C4F20003 		movt	r3, #:upper16:1073759139
 260 0026 44F2A332 		movw	r2, #:lower16:1073759139
 261 002a C4F20002 		movt	r2, #:upper16:1073759139
 262 002e 1278     		ldrb	r2, [r2, #0]
 263 0030 D2B2     		uxtb	r2, r2
 264 0032 02F0FE02 		and	r2, r2, #254
 265 0036 1A70     		strb	r2, [r3, #0]
 212:.\Generated_Source\PSoC5/Counter_PID.c ****         Counter_PID_GLOBAL_STBY_ENABLE &= ~Counter_PID_BLOCK_STBY_EN_MASK;
 266              		.loc 1 212 0
 267 0038 44F2B333 		movw	r3, #:lower16:1073759155
 268 003c C4F20003 		movt	r3, #:upper16:1073759155
 269 0040 44F2B332 		movw	r2, #:lower16:1073759155
 270 0044 C4F20002 		movt	r2, #:upper16:1073759155
 271 0048 1278     		ldrb	r2, [r2, #0]
 272 004a D2B2     		uxtb	r2, r2
 273 004c 02F0FE02 		and	r2, r2, #254
 274 0050 1A70     		strb	r2, [r3, #0]
 213:.\Generated_Source\PSoC5/Counter_PID.c ****     #endif /* (Counter_PID_UsingFixedFunction) */
 214:.\Generated_Source\PSoC5/Counter_PID.c **** }
 275              		.loc 1 214 0
 276 0052 BD46     		mov	sp, r7
 277 0054 80BC     		pop	{r7}
 278 0056 7047     		bx	lr
 279              		.cfi_endproc
 280              	.LFE3:
 281              		.size	Counter_PID_Stop, .-Counter_PID_Stop
 282              		.section	.text.Counter_PID_SetInterruptMode,"ax",%progbits
 283              		.align	2
 284              		.global	Counter_PID_SetInterruptMode
 285              		.thumb
 286              		.thumb_func
 287              		.type	Counter_PID_SetInterruptMode, %function
 288              	Counter_PID_SetInterruptMode:
 289              	.LFB4:
 215:.\Generated_Source\PSoC5/Counter_PID.c **** 
 216:.\Generated_Source\PSoC5/Counter_PID.c **** 
 217:.\Generated_Source\PSoC5/Counter_PID.c **** /*******************************************************************************
 218:.\Generated_Source\PSoC5/Counter_PID.c **** * Function Name: Counter_PID_SetInterruptMode
 219:.\Generated_Source\PSoC5/Counter_PID.c **** ********************************************************************************
 220:.\Generated_Source\PSoC5/Counter_PID.c **** * Summary:
ARM GAS  C:\Users\bccho\AppData\Local\Temp\ccizFp25.s 			page 10


 221:.\Generated_Source\PSoC5/Counter_PID.c **** * Configures which interrupt sources are enabled to generate the final interrupt
 222:.\Generated_Source\PSoC5/Counter_PID.c **** *
 223:.\Generated_Source\PSoC5/Counter_PID.c **** * Parameters:  
 224:.\Generated_Source\PSoC5/Counter_PID.c **** *  InterruptsMask: This parameter is an or'd collection of the status bits
 225:.\Generated_Source\PSoC5/Counter_PID.c **** *                   which will be allowed to generate the counters interrupt.   
 226:.\Generated_Source\PSoC5/Counter_PID.c **** *
 227:.\Generated_Source\PSoC5/Counter_PID.c **** * Return: 
 228:.\Generated_Source\PSoC5/Counter_PID.c **** *  void
 229:.\Generated_Source\PSoC5/Counter_PID.c **** *
 230:.\Generated_Source\PSoC5/Counter_PID.c **** *******************************************************************************/
 231:.\Generated_Source\PSoC5/Counter_PID.c **** void Counter_PID_SetInterruptMode(uint8 interruptsMask) 
 232:.\Generated_Source\PSoC5/Counter_PID.c **** {
 290              		.loc 1 232 0
 291              		.cfi_startproc
 292              		@ args = 0, pretend = 0, frame = 8
 293              		@ frame_needed = 1, uses_anonymous_args = 0
 294              		@ link register save eliminated.
 295 0000 80B4     		push	{r7}
 296              	.LCFI8:
 297              		.cfi_def_cfa_offset 4
 298 0002 83B0     		sub	sp, sp, #12
 299              	.LCFI9:
 300              		.cfi_def_cfa_offset 16
 301 0004 00AF     		add	r7, sp, #0
 302              		.cfi_offset 7, -4
 303              	.LCFI10:
 304              		.cfi_def_cfa_register 7
 305 0006 0346     		mov	r3, r0
 306 0008 FB71     		strb	r3, [r7, #7]
 233:.\Generated_Source\PSoC5/Counter_PID.c ****     Counter_PID_STATUS_MASK = interruptsMask;
 307              		.loc 1 233 0
 308 000a 44F60373 		movw	r3, #:lower16:1073762051
 309 000e C4F20003 		movt	r3, #:upper16:1073762051
 310 0012 FA79     		ldrb	r2, [r7, #7]
 311 0014 1A70     		strb	r2, [r3, #0]
 234:.\Generated_Source\PSoC5/Counter_PID.c **** }
 312              		.loc 1 234 0
 313 0016 07F10C07 		add	r7, r7, #12
 314 001a BD46     		mov	sp, r7
 315 001c 80BC     		pop	{r7}
 316 001e 7047     		bx	lr
 317              		.cfi_endproc
 318              	.LFE4:
 319              		.size	Counter_PID_SetInterruptMode, .-Counter_PID_SetInterruptMode
 320              		.section	.text.Counter_PID_ReadStatusRegister,"ax",%progbits
 321              		.align	2
 322              		.global	Counter_PID_ReadStatusRegister
 323              		.thumb
 324              		.thumb_func
 325              		.type	Counter_PID_ReadStatusRegister, %function
 326              	Counter_PID_ReadStatusRegister:
 327              	.LFB5:
 235:.\Generated_Source\PSoC5/Counter_PID.c **** 
 236:.\Generated_Source\PSoC5/Counter_PID.c **** 
 237:.\Generated_Source\PSoC5/Counter_PID.c **** /*******************************************************************************
 238:.\Generated_Source\PSoC5/Counter_PID.c **** * Function Name: Counter_PID_ReadStatusRegister
 239:.\Generated_Source\PSoC5/Counter_PID.c **** ********************************************************************************
ARM GAS  C:\Users\bccho\AppData\Local\Temp\ccizFp25.s 			page 11


 240:.\Generated_Source\PSoC5/Counter_PID.c **** * Summary:
 241:.\Generated_Source\PSoC5/Counter_PID.c **** *   Reads the status register and returns it's state. This function should use
 242:.\Generated_Source\PSoC5/Counter_PID.c **** *       defined types for the bit-field information as the bits in this
 243:.\Generated_Source\PSoC5/Counter_PID.c **** *       register may be permuteable.
 244:.\Generated_Source\PSoC5/Counter_PID.c **** *
 245:.\Generated_Source\PSoC5/Counter_PID.c **** * Parameters:  
 246:.\Generated_Source\PSoC5/Counter_PID.c **** *  void
 247:.\Generated_Source\PSoC5/Counter_PID.c **** *
 248:.\Generated_Source\PSoC5/Counter_PID.c **** * Return: 
 249:.\Generated_Source\PSoC5/Counter_PID.c **** *  (uint8) The contents of the status register
 250:.\Generated_Source\PSoC5/Counter_PID.c **** *
 251:.\Generated_Source\PSoC5/Counter_PID.c **** * Side Effects:
 252:.\Generated_Source\PSoC5/Counter_PID.c **** *   Status register bits may be clear on read. 
 253:.\Generated_Source\PSoC5/Counter_PID.c **** *
 254:.\Generated_Source\PSoC5/Counter_PID.c **** *******************************************************************************/
 255:.\Generated_Source\PSoC5/Counter_PID.c **** uint8   Counter_PID_ReadStatusRegister(void) 
 256:.\Generated_Source\PSoC5/Counter_PID.c **** {
 328              		.loc 1 256 0
 329              		.cfi_startproc
 330              		@ args = 0, pretend = 0, frame = 0
 331              		@ frame_needed = 1, uses_anonymous_args = 0
 332              		@ link register save eliminated.
 333 0000 80B4     		push	{r7}
 334              	.LCFI11:
 335              		.cfi_def_cfa_offset 4
 336 0002 00AF     		add	r7, sp, #0
 337              		.cfi_offset 7, -4
 338              	.LCFI12:
 339              		.cfi_def_cfa_register 7
 257:.\Generated_Source\PSoC5/Counter_PID.c ****     return Counter_PID_STATUS;
 340              		.loc 1 257 0
 341 0004 44F60373 		movw	r3, #:lower16:1073762051
 342 0008 C4F20003 		movt	r3, #:upper16:1073762051
 343 000c 1B78     		ldrb	r3, [r3, #0]
 344 000e DBB2     		uxtb	r3, r3
 258:.\Generated_Source\PSoC5/Counter_PID.c **** }
 345              		.loc 1 258 0
 346 0010 1846     		mov	r0, r3
 347 0012 BD46     		mov	sp, r7
 348 0014 80BC     		pop	{r7}
 349 0016 7047     		bx	lr
 350              		.cfi_endproc
 351              	.LFE5:
 352              		.size	Counter_PID_ReadStatusRegister, .-Counter_PID_ReadStatusRegister
 353              		.section	.text.Counter_PID_ReadControlRegister,"ax",%progbits
 354              		.align	2
 355              		.global	Counter_PID_ReadControlRegister
 356              		.thumb
 357              		.thumb_func
 358              		.type	Counter_PID_ReadControlRegister, %function
 359              	Counter_PID_ReadControlRegister:
 360              	.LFB6:
 259:.\Generated_Source\PSoC5/Counter_PID.c **** 
 260:.\Generated_Source\PSoC5/Counter_PID.c **** 
 261:.\Generated_Source\PSoC5/Counter_PID.c **** #if(!Counter_PID_ControlRegRemoved)
 262:.\Generated_Source\PSoC5/Counter_PID.c **** /*******************************************************************************
 263:.\Generated_Source\PSoC5/Counter_PID.c **** * Function Name: Counter_PID_ReadControlRegister
ARM GAS  C:\Users\bccho\AppData\Local\Temp\ccizFp25.s 			page 12


 264:.\Generated_Source\PSoC5/Counter_PID.c **** ********************************************************************************
 265:.\Generated_Source\PSoC5/Counter_PID.c **** * Summary:
 266:.\Generated_Source\PSoC5/Counter_PID.c **** *   Reads the control register and returns it's state. This function should use
 267:.\Generated_Source\PSoC5/Counter_PID.c **** *       defined types for the bit-field information as the bits in this
 268:.\Generated_Source\PSoC5/Counter_PID.c **** *       register may be permuteable.
 269:.\Generated_Source\PSoC5/Counter_PID.c **** *
 270:.\Generated_Source\PSoC5/Counter_PID.c **** * Parameters:  
 271:.\Generated_Source\PSoC5/Counter_PID.c **** *  void
 272:.\Generated_Source\PSoC5/Counter_PID.c **** *
 273:.\Generated_Source\PSoC5/Counter_PID.c **** * Return: 
 274:.\Generated_Source\PSoC5/Counter_PID.c **** *  (uint8) The contents of the control register
 275:.\Generated_Source\PSoC5/Counter_PID.c **** *
 276:.\Generated_Source\PSoC5/Counter_PID.c **** *******************************************************************************/
 277:.\Generated_Source\PSoC5/Counter_PID.c **** uint8   Counter_PID_ReadControlRegister(void) 
 278:.\Generated_Source\PSoC5/Counter_PID.c **** {
 361              		.loc 1 278 0
 362              		.cfi_startproc
 363              		@ args = 0, pretend = 0, frame = 0
 364              		@ frame_needed = 1, uses_anonymous_args = 0
 365              		@ link register save eliminated.
 366 0000 80B4     		push	{r7}
 367              	.LCFI13:
 368              		.cfi_def_cfa_offset 4
 369 0002 00AF     		add	r7, sp, #0
 370              		.cfi_offset 7, -4
 371              	.LCFI14:
 372              		.cfi_def_cfa_register 7
 279:.\Generated_Source\PSoC5/Counter_PID.c ****     return Counter_PID_CONTROL;
 373              		.loc 1 279 0
 374 0004 44F60073 		movw	r3, #:lower16:1073762048
 375 0008 C4F20003 		movt	r3, #:upper16:1073762048
 376 000c 1B78     		ldrb	r3, [r3, #0]
 377 000e DBB2     		uxtb	r3, r3
 280:.\Generated_Source\PSoC5/Counter_PID.c **** }
 378              		.loc 1 280 0
 379 0010 1846     		mov	r0, r3
 380 0012 BD46     		mov	sp, r7
 381 0014 80BC     		pop	{r7}
 382 0016 7047     		bx	lr
 383              		.cfi_endproc
 384              	.LFE6:
 385              		.size	Counter_PID_ReadControlRegister, .-Counter_PID_ReadControlRegister
 386              		.section	.text.Counter_PID_WriteControlRegister,"ax",%progbits
 387              		.align	2
 388              		.global	Counter_PID_WriteControlRegister
 389              		.thumb
 390              		.thumb_func
 391              		.type	Counter_PID_WriteControlRegister, %function
 392              	Counter_PID_WriteControlRegister:
 393              	.LFB7:
 281:.\Generated_Source\PSoC5/Counter_PID.c **** 
 282:.\Generated_Source\PSoC5/Counter_PID.c **** 
 283:.\Generated_Source\PSoC5/Counter_PID.c **** /*******************************************************************************
 284:.\Generated_Source\PSoC5/Counter_PID.c **** * Function Name: Counter_PID_WriteControlRegister
 285:.\Generated_Source\PSoC5/Counter_PID.c **** ********************************************************************************
 286:.\Generated_Source\PSoC5/Counter_PID.c **** * Summary:
 287:.\Generated_Source\PSoC5/Counter_PID.c **** *   Sets the bit-field of the control register.  This function should use
ARM GAS  C:\Users\bccho\AppData\Local\Temp\ccizFp25.s 			page 13


 288:.\Generated_Source\PSoC5/Counter_PID.c **** *       defined types for the bit-field information as the bits in this
 289:.\Generated_Source\PSoC5/Counter_PID.c **** *       register may be permuteable.
 290:.\Generated_Source\PSoC5/Counter_PID.c **** *
 291:.\Generated_Source\PSoC5/Counter_PID.c **** * Parameters:  
 292:.\Generated_Source\PSoC5/Counter_PID.c **** *  void
 293:.\Generated_Source\PSoC5/Counter_PID.c **** *
 294:.\Generated_Source\PSoC5/Counter_PID.c **** * Return: 
 295:.\Generated_Source\PSoC5/Counter_PID.c **** *  (uint8) The contents of the control register
 296:.\Generated_Source\PSoC5/Counter_PID.c **** *
 297:.\Generated_Source\PSoC5/Counter_PID.c **** *******************************************************************************/
 298:.\Generated_Source\PSoC5/Counter_PID.c **** void    Counter_PID_WriteControlRegister(uint8 control) 
 299:.\Generated_Source\PSoC5/Counter_PID.c **** {
 394              		.loc 1 299 0
 395              		.cfi_startproc
 396              		@ args = 0, pretend = 0, frame = 8
 397              		@ frame_needed = 1, uses_anonymous_args = 0
 398              		@ link register save eliminated.
 399 0000 80B4     		push	{r7}
 400              	.LCFI15:
 401              		.cfi_def_cfa_offset 4
 402 0002 83B0     		sub	sp, sp, #12
 403              	.LCFI16:
 404              		.cfi_def_cfa_offset 16
 405 0004 00AF     		add	r7, sp, #0
 406              		.cfi_offset 7, -4
 407              	.LCFI17:
 408              		.cfi_def_cfa_register 7
 409 0006 0346     		mov	r3, r0
 410 0008 FB71     		strb	r3, [r7, #7]
 300:.\Generated_Source\PSoC5/Counter_PID.c ****     Counter_PID_CONTROL = control;
 411              		.loc 1 300 0
 412 000a 44F60073 		movw	r3, #:lower16:1073762048
 413 000e C4F20003 		movt	r3, #:upper16:1073762048
 414 0012 FA79     		ldrb	r2, [r7, #7]
 415 0014 1A70     		strb	r2, [r3, #0]
 301:.\Generated_Source\PSoC5/Counter_PID.c **** }
 416              		.loc 1 301 0
 417 0016 07F10C07 		add	r7, r7, #12
 418 001a BD46     		mov	sp, r7
 419 001c 80BC     		pop	{r7}
 420 001e 7047     		bx	lr
 421              		.cfi_endproc
 422              	.LFE7:
 423              		.size	Counter_PID_WriteControlRegister, .-Counter_PID_WriteControlRegister
 424              		.section	.text.Counter_PID_WriteCounter,"ax",%progbits
 425              		.align	2
 426              		.global	Counter_PID_WriteCounter
 427              		.thumb
 428              		.thumb_func
 429              		.type	Counter_PID_WriteCounter, %function
 430              	Counter_PID_WriteCounter:
 431              	.LFB8:
 302:.\Generated_Source\PSoC5/Counter_PID.c **** 
 303:.\Generated_Source\PSoC5/Counter_PID.c **** #endif  /* (!Counter_PID_ControlRegRemoved) */
 304:.\Generated_Source\PSoC5/Counter_PID.c **** 
 305:.\Generated_Source\PSoC5/Counter_PID.c **** 
 306:.\Generated_Source\PSoC5/Counter_PID.c **** #if (!(Counter_PID_UsingFixedFunction && (CY_PSOC5A)))
ARM GAS  C:\Users\bccho\AppData\Local\Temp\ccizFp25.s 			page 14


 307:.\Generated_Source\PSoC5/Counter_PID.c **** /*******************************************************************************
 308:.\Generated_Source\PSoC5/Counter_PID.c **** * Function Name: Counter_PID_WriteCounter
 309:.\Generated_Source\PSoC5/Counter_PID.c **** ********************************************************************************
 310:.\Generated_Source\PSoC5/Counter_PID.c **** * Summary:
 311:.\Generated_Source\PSoC5/Counter_PID.c **** *   This funtion is used to set the counter to a specific value
 312:.\Generated_Source\PSoC5/Counter_PID.c **** *
 313:.\Generated_Source\PSoC5/Counter_PID.c **** * Parameters:  
 314:.\Generated_Source\PSoC5/Counter_PID.c **** *  counter:  New counter value. 
 315:.\Generated_Source\PSoC5/Counter_PID.c **** *
 316:.\Generated_Source\PSoC5/Counter_PID.c **** * Return: 
 317:.\Generated_Source\PSoC5/Counter_PID.c **** *  void 
 318:.\Generated_Source\PSoC5/Counter_PID.c **** *
 319:.\Generated_Source\PSoC5/Counter_PID.c **** *******************************************************************************/
 320:.\Generated_Source\PSoC5/Counter_PID.c **** void Counter_PID_WriteCounter(uint16 counter) \
 321:.\Generated_Source\PSoC5/Counter_PID.c ****                                    
 322:.\Generated_Source\PSoC5/Counter_PID.c **** {
 432              		.loc 1 322 0
 433              		.cfi_startproc
 434              		@ args = 0, pretend = 0, frame = 8
 435              		@ frame_needed = 1, uses_anonymous_args = 0
 436 0000 80B5     		push	{r7, lr}
 437              	.LCFI18:
 438              		.cfi_def_cfa_offset 8
 439 0002 82B0     		sub	sp, sp, #8
 440              	.LCFI19:
 441              		.cfi_def_cfa_offset 16
 442 0004 00AF     		add	r7, sp, #0
 443              		.cfi_offset 14, -4
 444              		.cfi_offset 7, -8
 445              	.LCFI20:
 446              		.cfi_def_cfa_register 7
 447 0006 0346     		mov	r3, r0
 448 0008 FB80     		strh	r3, [r7, #6]	@ movhi
 323:.\Generated_Source\PSoC5/Counter_PID.c ****     #if(Counter_PID_UsingFixedFunction)
 324:.\Generated_Source\PSoC5/Counter_PID.c ****         /* assert if block is already enabled */
 325:.\Generated_Source\PSoC5/Counter_PID.c ****         CYASSERT (!(Counter_PID_GLOBAL_ENABLE & Counter_PID_BLOCK_EN_MASK));
 449              		.loc 1 325 0
 450 000a 44F2A333 		movw	r3, #:lower16:1073759139
 451 000e C4F20003 		movt	r3, #:upper16:1073759139
 452 0012 1B78     		ldrb	r3, [r3, #0]
 453 0014 DBB2     		uxtb	r3, r3
 454 0016 03F00103 		and	r3, r3, #1
 455 001a 002B     		cmp	r3, #0
 456 001c 0ED0     		beq	.L19
 457 001e 44F2A333 		movw	r3, #:lower16:1073759139
 458 0022 C4F20003 		movt	r3, #:upper16:1073759139
 459 0026 1B78     		ldrb	r3, [r3, #0]
 460 0028 DBB2     		uxtb	r3, r3
 461 002a 03F00103 		and	r3, r3, #1
 462 002e 002B     		cmp	r3, #0
 463 0030 14BF     		ite	ne
 464 0032 0023     		movne	r3, #0
 465 0034 0123     		moveq	r3, #1
 466 0036 1846     		mov	r0, r3
 467 0038 FFF7FEFF 		bl	CyHalt
 468              	.L19:
 326:.\Generated_Source\PSoC5/Counter_PID.c ****         /* If block is disabled, enable it and then write the counter */
ARM GAS  C:\Users\bccho\AppData\Local\Temp\ccizFp25.s 			page 15


 327:.\Generated_Source\PSoC5/Counter_PID.c ****         Counter_PID_GLOBAL_ENABLE |= Counter_PID_BLOCK_EN_MASK;
 469              		.loc 1 327 0
 470 003c 44F2A333 		movw	r3, #:lower16:1073759139
 471 0040 C4F20003 		movt	r3, #:upper16:1073759139
 472 0044 44F2A332 		movw	r2, #:lower16:1073759139
 473 0048 C4F20002 		movt	r2, #:upper16:1073759139
 474 004c 1278     		ldrb	r2, [r2, #0]
 475 004e D2B2     		uxtb	r2, r2
 476 0050 42F00102 		orr	r2, r2, #1
 477 0054 D2B2     		uxtb	r2, r2
 478 0056 1A70     		strb	r2, [r3, #0]
 328:.\Generated_Source\PSoC5/Counter_PID.c ****         CY_SET_REG16(Counter_PID_COUNTER_LSB_PTR, (uint16)counter);
 479              		.loc 1 328 0
 480 0058 44F60673 		movw	r3, #:lower16:1073762054
 481 005c C4F20003 		movt	r3, #:upper16:1073762054
 482 0060 FA88     		ldrh	r2, [r7, #6]	@ movhi
 483 0062 1A80     		strh	r2, [r3, #0]	@ movhi
 329:.\Generated_Source\PSoC5/Counter_PID.c ****         Counter_PID_GLOBAL_ENABLE &= ~Counter_PID_BLOCK_EN_MASK;
 484              		.loc 1 329 0
 485 0064 44F2A333 		movw	r3, #:lower16:1073759139
 486 0068 C4F20003 		movt	r3, #:upper16:1073759139
 487 006c 44F2A332 		movw	r2, #:lower16:1073759139
 488 0070 C4F20002 		movt	r2, #:upper16:1073759139
 489 0074 1278     		ldrb	r2, [r2, #0]
 490 0076 D2B2     		uxtb	r2, r2
 491 0078 02F0FE02 		and	r2, r2, #254
 492 007c 1A70     		strb	r2, [r3, #0]
 330:.\Generated_Source\PSoC5/Counter_PID.c ****     #else
 331:.\Generated_Source\PSoC5/Counter_PID.c ****         CY_SET_REG16(Counter_PID_COUNTER_LSB_PTR, counter);
 332:.\Generated_Source\PSoC5/Counter_PID.c ****     #endif /* (Counter_PID_UsingFixedFunction) */
 333:.\Generated_Source\PSoC5/Counter_PID.c **** }
 493              		.loc 1 333 0
 494 007e 07F10807 		add	r7, r7, #8
 495 0082 BD46     		mov	sp, r7
 496 0084 80BD     		pop	{r7, pc}
 497              		.cfi_endproc
 498              	.LFE8:
 499              		.size	Counter_PID_WriteCounter, .-Counter_PID_WriteCounter
 500 0086 00BF     		.section	.text.Counter_PID_ReadCounter,"ax",%progbits
 501              		.align	2
 502              		.global	Counter_PID_ReadCounter
 503              		.thumb
 504              		.thumb_func
 505              		.type	Counter_PID_ReadCounter, %function
 506              	Counter_PID_ReadCounter:
 507              	.LFB9:
 334:.\Generated_Source\PSoC5/Counter_PID.c **** #endif /* (!(Counter_PID_UsingFixedFunction && (CY_PSOC5A))) */
 335:.\Generated_Source\PSoC5/Counter_PID.c **** 
 336:.\Generated_Source\PSoC5/Counter_PID.c **** 
 337:.\Generated_Source\PSoC5/Counter_PID.c **** /*******************************************************************************
 338:.\Generated_Source\PSoC5/Counter_PID.c **** * Function Name: Counter_PID_ReadCounter
 339:.\Generated_Source\PSoC5/Counter_PID.c **** ********************************************************************************
 340:.\Generated_Source\PSoC5/Counter_PID.c **** * Summary:
 341:.\Generated_Source\PSoC5/Counter_PID.c **** * Returns the current value of the counter.  It doesn't matter
 342:.\Generated_Source\PSoC5/Counter_PID.c **** * if the counter is enabled or running.
 343:.\Generated_Source\PSoC5/Counter_PID.c **** *
 344:.\Generated_Source\PSoC5/Counter_PID.c **** * Parameters:  
ARM GAS  C:\Users\bccho\AppData\Local\Temp\ccizFp25.s 			page 16


 345:.\Generated_Source\PSoC5/Counter_PID.c **** *  void:  
 346:.\Generated_Source\PSoC5/Counter_PID.c **** *
 347:.\Generated_Source\PSoC5/Counter_PID.c **** * Return: 
 348:.\Generated_Source\PSoC5/Counter_PID.c **** *  (uint16) The present value of the counter.
 349:.\Generated_Source\PSoC5/Counter_PID.c **** *
 350:.\Generated_Source\PSoC5/Counter_PID.c **** *******************************************************************************/
 351:.\Generated_Source\PSoC5/Counter_PID.c **** uint16 Counter_PID_ReadCounter(void) 
 352:.\Generated_Source\PSoC5/Counter_PID.c **** {
 508              		.loc 1 352 0
 509              		.cfi_startproc
 510              		@ args = 0, pretend = 0, frame = 0
 511              		@ frame_needed = 1, uses_anonymous_args = 0
 512              		@ link register save eliminated.
 513 0000 80B4     		push	{r7}
 514              	.LCFI21:
 515              		.cfi_def_cfa_offset 4
 516 0002 00AF     		add	r7, sp, #0
 517              		.cfi_offset 7, -4
 518              	.LCFI22:
 519              		.cfi_def_cfa_register 7
 353:.\Generated_Source\PSoC5/Counter_PID.c ****     /* Force capture by reading Accumulator */
 354:.\Generated_Source\PSoC5/Counter_PID.c ****     /* Must first do a software capture to be able to read the counter */
 355:.\Generated_Source\PSoC5/Counter_PID.c ****     /* It is up to the user code to make sure there isn't already captured data in the FIFO */
 356:.\Generated_Source\PSoC5/Counter_PID.c ****     CY_GET_REG8(Counter_PID_COUNTER_LSB_PTR);
 520              		.loc 1 356 0
 521 0004 44F60673 		movw	r3, #:lower16:1073762054
 522 0008 C4F20003 		movt	r3, #:upper16:1073762054
 523 000c 1B78     		ldrb	r3, [r3, #0]
 357:.\Generated_Source\PSoC5/Counter_PID.c ****     
 358:.\Generated_Source\PSoC5/Counter_PID.c ****     /* Read the data from the FIFO (or capture register for Fixed Function)*/
 359:.\Generated_Source\PSoC5/Counter_PID.c ****     return (CY_GET_REG16(Counter_PID_STATICCOUNT_LSB_PTR));
 524              		.loc 1 359 0
 525 000e 44F60873 		movw	r3, #:lower16:1073762056
 526 0012 C4F20003 		movt	r3, #:upper16:1073762056
 527 0016 1B88     		ldrh	r3, [r3, #0]	@ movhi
 528 0018 9BB2     		uxth	r3, r3
 360:.\Generated_Source\PSoC5/Counter_PID.c **** }
 529              		.loc 1 360 0
 530 001a 1846     		mov	r0, r3
 531 001c BD46     		mov	sp, r7
 532 001e 80BC     		pop	{r7}
 533 0020 7047     		bx	lr
 534              		.cfi_endproc
 535              	.LFE9:
 536              		.size	Counter_PID_ReadCounter, .-Counter_PID_ReadCounter
 537 0022 00BF     		.section	.text.Counter_PID_ReadCapture,"ax",%progbits
 538              		.align	2
 539              		.global	Counter_PID_ReadCapture
 540              		.thumb
 541              		.thumb_func
 542              		.type	Counter_PID_ReadCapture, %function
 543              	Counter_PID_ReadCapture:
 544              	.LFB10:
 361:.\Generated_Source\PSoC5/Counter_PID.c **** 
 362:.\Generated_Source\PSoC5/Counter_PID.c **** 
 363:.\Generated_Source\PSoC5/Counter_PID.c **** /*******************************************************************************
 364:.\Generated_Source\PSoC5/Counter_PID.c **** * Function Name: Counter_PID_ReadCapture
ARM GAS  C:\Users\bccho\AppData\Local\Temp\ccizFp25.s 			page 17


 365:.\Generated_Source\PSoC5/Counter_PID.c **** ********************************************************************************
 366:.\Generated_Source\PSoC5/Counter_PID.c **** * Summary:
 367:.\Generated_Source\PSoC5/Counter_PID.c **** *   This function returns the last value captured.
 368:.\Generated_Source\PSoC5/Counter_PID.c **** *
 369:.\Generated_Source\PSoC5/Counter_PID.c **** * Parameters:  
 370:.\Generated_Source\PSoC5/Counter_PID.c **** *  void
 371:.\Generated_Source\PSoC5/Counter_PID.c **** *
 372:.\Generated_Source\PSoC5/Counter_PID.c **** * Return: 
 373:.\Generated_Source\PSoC5/Counter_PID.c **** *  (uint16) Present Capture value.
 374:.\Generated_Source\PSoC5/Counter_PID.c **** *
 375:.\Generated_Source\PSoC5/Counter_PID.c **** *******************************************************************************/
 376:.\Generated_Source\PSoC5/Counter_PID.c **** uint16 Counter_PID_ReadCapture(void) 
 377:.\Generated_Source\PSoC5/Counter_PID.c **** {
 545              		.loc 1 377 0
 546              		.cfi_startproc
 547              		@ args = 0, pretend = 0, frame = 0
 548              		@ frame_needed = 1, uses_anonymous_args = 0
 549              		@ link register save eliminated.
 550 0000 80B4     		push	{r7}
 551              	.LCFI23:
 552              		.cfi_def_cfa_offset 4
 553 0002 00AF     		add	r7, sp, #0
 554              		.cfi_offset 7, -4
 555              	.LCFI24:
 556              		.cfi_def_cfa_register 7
 378:.\Generated_Source\PSoC5/Counter_PID.c ****    return ( CY_GET_REG16(Counter_PID_STATICCOUNT_LSB_PTR) );  
 557              		.loc 1 378 0
 558 0004 44F60873 		movw	r3, #:lower16:1073762056
 559 0008 C4F20003 		movt	r3, #:upper16:1073762056
 560 000c 1B88     		ldrh	r3, [r3, #0]	@ movhi
 561 000e 9BB2     		uxth	r3, r3
 379:.\Generated_Source\PSoC5/Counter_PID.c **** }
 562              		.loc 1 379 0
 563 0010 1846     		mov	r0, r3
 564 0012 BD46     		mov	sp, r7
 565 0014 80BC     		pop	{r7}
 566 0016 7047     		bx	lr
 567              		.cfi_endproc
 568              	.LFE10:
 569              		.size	Counter_PID_ReadCapture, .-Counter_PID_ReadCapture
 570              		.section	.text.Counter_PID_WritePeriod,"ax",%progbits
 571              		.align	2
 572              		.global	Counter_PID_WritePeriod
 573              		.thumb
 574              		.thumb_func
 575              		.type	Counter_PID_WritePeriod, %function
 576              	Counter_PID_WritePeriod:
 577              	.LFB11:
 380:.\Generated_Source\PSoC5/Counter_PID.c **** 
 381:.\Generated_Source\PSoC5/Counter_PID.c **** 
 382:.\Generated_Source\PSoC5/Counter_PID.c **** /*******************************************************************************
 383:.\Generated_Source\PSoC5/Counter_PID.c **** * Function Name: Counter_PID_WritePeriod
 384:.\Generated_Source\PSoC5/Counter_PID.c **** ********************************************************************************
 385:.\Generated_Source\PSoC5/Counter_PID.c **** * Summary:
 386:.\Generated_Source\PSoC5/Counter_PID.c **** * Changes the period of the counter.  The new period 
 387:.\Generated_Source\PSoC5/Counter_PID.c **** * will be loaded the next time terminal count is detected.
 388:.\Generated_Source\PSoC5/Counter_PID.c **** *
ARM GAS  C:\Users\bccho\AppData\Local\Temp\ccizFp25.s 			page 18


 389:.\Generated_Source\PSoC5/Counter_PID.c **** * Parameters:  
 390:.\Generated_Source\PSoC5/Counter_PID.c **** *  period: (uint16) A value of 0 will result in
 391:.\Generated_Source\PSoC5/Counter_PID.c **** *         the counter remaining at zero.  
 392:.\Generated_Source\PSoC5/Counter_PID.c **** *
 393:.\Generated_Source\PSoC5/Counter_PID.c **** * Return: 
 394:.\Generated_Source\PSoC5/Counter_PID.c **** *  void
 395:.\Generated_Source\PSoC5/Counter_PID.c **** *
 396:.\Generated_Source\PSoC5/Counter_PID.c **** *******************************************************************************/
 397:.\Generated_Source\PSoC5/Counter_PID.c **** void Counter_PID_WritePeriod(uint16 period) 
 398:.\Generated_Source\PSoC5/Counter_PID.c **** {
 578              		.loc 1 398 0
 579              		.cfi_startproc
 580              		@ args = 0, pretend = 0, frame = 8
 581              		@ frame_needed = 1, uses_anonymous_args = 0
 582              		@ link register save eliminated.
 583 0000 80B4     		push	{r7}
 584              	.LCFI25:
 585              		.cfi_def_cfa_offset 4
 586 0002 83B0     		sub	sp, sp, #12
 587              	.LCFI26:
 588              		.cfi_def_cfa_offset 16
 589 0004 00AF     		add	r7, sp, #0
 590              		.cfi_offset 7, -4
 591              	.LCFI27:
 592              		.cfi_def_cfa_register 7
 593 0006 0346     		mov	r3, r0
 594 0008 FB80     		strh	r3, [r7, #6]	@ movhi
 399:.\Generated_Source\PSoC5/Counter_PID.c ****     #if(Counter_PID_UsingFixedFunction)
 400:.\Generated_Source\PSoC5/Counter_PID.c ****         CY_SET_REG16(Counter_PID_PERIOD_LSB_PTR,(uint16)period);
 595              		.loc 1 400 0
 596 000a 44F60473 		movw	r3, #:lower16:1073762052
 597 000e C4F20003 		movt	r3, #:upper16:1073762052
 598 0012 FA88     		ldrh	r2, [r7, #6]	@ movhi
 599 0014 1A80     		strh	r2, [r3, #0]	@ movhi
 401:.\Generated_Source\PSoC5/Counter_PID.c ****     #else
 402:.\Generated_Source\PSoC5/Counter_PID.c ****         CY_SET_REG16(Counter_PID_PERIOD_LSB_PTR,period);
 403:.\Generated_Source\PSoC5/Counter_PID.c ****     #endif /* (Counter_PID_UsingFixedFunction) */
 404:.\Generated_Source\PSoC5/Counter_PID.c **** }
 600              		.loc 1 404 0
 601 0016 07F10C07 		add	r7, r7, #12
 602 001a BD46     		mov	sp, r7
 603 001c 80BC     		pop	{r7}
 604 001e 7047     		bx	lr
 605              		.cfi_endproc
 606              	.LFE11:
 607              		.size	Counter_PID_WritePeriod, .-Counter_PID_WritePeriod
 608              		.section	.text.Counter_PID_ReadPeriod,"ax",%progbits
 609              		.align	2
 610              		.global	Counter_PID_ReadPeriod
 611              		.thumb
 612              		.thumb_func
 613              		.type	Counter_PID_ReadPeriod, %function
 614              	Counter_PID_ReadPeriod:
 615              	.LFB12:
 405:.\Generated_Source\PSoC5/Counter_PID.c **** 
 406:.\Generated_Source\PSoC5/Counter_PID.c **** 
 407:.\Generated_Source\PSoC5/Counter_PID.c **** /*******************************************************************************
ARM GAS  C:\Users\bccho\AppData\Local\Temp\ccizFp25.s 			page 19


 408:.\Generated_Source\PSoC5/Counter_PID.c **** * Function Name: Counter_PID_ReadPeriod
 409:.\Generated_Source\PSoC5/Counter_PID.c **** ********************************************************************************
 410:.\Generated_Source\PSoC5/Counter_PID.c **** * Summary:
 411:.\Generated_Source\PSoC5/Counter_PID.c **** * Reads the current period value without affecting counter operation.
 412:.\Generated_Source\PSoC5/Counter_PID.c **** *
 413:.\Generated_Source\PSoC5/Counter_PID.c **** * Parameters:  
 414:.\Generated_Source\PSoC5/Counter_PID.c **** *  void:  
 415:.\Generated_Source\PSoC5/Counter_PID.c **** *
 416:.\Generated_Source\PSoC5/Counter_PID.c **** * Return: 
 417:.\Generated_Source\PSoC5/Counter_PID.c **** *  (uint16) Present period value.
 418:.\Generated_Source\PSoC5/Counter_PID.c **** *
 419:.\Generated_Source\PSoC5/Counter_PID.c **** *******************************************************************************/
 420:.\Generated_Source\PSoC5/Counter_PID.c **** uint16 Counter_PID_ReadPeriod(void) 
 421:.\Generated_Source\PSoC5/Counter_PID.c **** {
 616              		.loc 1 421 0
 617              		.cfi_startproc
 618              		@ args = 0, pretend = 0, frame = 0
 619              		@ frame_needed = 1, uses_anonymous_args = 0
 620              		@ link register save eliminated.
 621 0000 80B4     		push	{r7}
 622              	.LCFI28:
 623              		.cfi_def_cfa_offset 4
 624 0002 00AF     		add	r7, sp, #0
 625              		.cfi_offset 7, -4
 626              	.LCFI29:
 627              		.cfi_def_cfa_register 7
 422:.\Generated_Source\PSoC5/Counter_PID.c ****    return ( CY_GET_REG16(Counter_PID_PERIOD_LSB_PTR));
 628              		.loc 1 422 0
 629 0004 44F60473 		movw	r3, #:lower16:1073762052
 630 0008 C4F20003 		movt	r3, #:upper16:1073762052
 631 000c 1B88     		ldrh	r3, [r3, #0]	@ movhi
 632 000e 9BB2     		uxth	r3, r3
 423:.\Generated_Source\PSoC5/Counter_PID.c **** }
 633              		.loc 1 423 0
 634 0010 1846     		mov	r0, r3
 635 0012 BD46     		mov	sp, r7
 636 0014 80BC     		pop	{r7}
 637 0016 7047     		bx	lr
 638              		.cfi_endproc
 639              	.LFE12:
 640              		.size	Counter_PID_ReadPeriod, .-Counter_PID_ReadPeriod
 641              		.text
 642              	.Letext0: