ARM GAS  C:\Users\bccho\AppData\Local\Temp\ccYpjO8n.s 			page 1


   1              		.syntax unified
   2              		.cpu cortex-m3
   3              		.fpu softvfp
   4              		.eabi_attribute 20, 1
   5              		.eabi_attribute 21, 1
   6              		.eabi_attribute 23, 3
   7              		.eabi_attribute 24, 1
   8              		.eabi_attribute 25, 1
   9              		.eabi_attribute 26, 1
  10              		.eabi_attribute 30, 6
  11              		.eabi_attribute 18, 4
  12              		.thumb
  13              		.file	"serial.c"
  20 0000 96000000 		.text
  20      02004800 
  20      00000201 
  20      FB0E0D00 
  20      01010101 
  21              	.Ltext0:
  22              		.cfi_sections	.debug_frame
  23              		.bss
  24              		.align	2
  25              	bufRx:
  26 0000 00000000 		.space	100
  26      00000000 
  26      00000000 
  26      00000000 
  26      00000000 
  27              		.align	2
  28              	bufRxPos:
  29 0064 00000000 		.space	4
  30              		.align	2
  31              	needReset:
  32 0068 00000000 		.space	4
  33              		.section	.text.Serial_init,"ax",%progbits
  34              		.align	2
  35              		.global	Serial_init
  36              		.thumb
  37              		.thumb_func
  38              		.type	Serial_init, %function
  39              	Serial_init:
  40              	.LFB29:
  41              		.file 1 ".\\serial.c"
   1:.\serial.c    **** /*-----------------------------------------------------------------*/
   2:.\serial.c    **** /* serial.c                                                        */
   3:.\serial.c    **** /*                                                                 */
   4:.\serial.c    **** /* BC Cho (bccho@) and TJ Smith (tjs8@)                            */
   5:.\serial.c    **** /*-----------------------------------------------------------------*/
   6:.\serial.c    **** #include <serial.h>
   7:.\serial.c    **** #include <device.h>
   8:.\serial.c    **** 
ARM GAS  C:\Users\bccho\AppData\Local\Temp\ccYpjO8n.s 			page 2


   9:.\serial.c    **** /*-----------------------------------------------------------------*/
  10:.\serial.c    **** 
  11:.\serial.c    **** #define BUF_RX_SIZE 100
  12:.\serial.c    **** static char bufRx[BUF_RX_SIZE];
  13:.\serial.c    **** static int bufRxPos = 0;
  14:.\serial.c    **** static int needReset = 0;
  15:.\serial.c    **** 
  16:.\serial.c    **** /*-----------------------------------------------------------------*/
  17:.\serial.c    **** 
  18:.\serial.c    **** static void resetRx();
  19:.\serial.c    **** 
  20:.\serial.c    **** /*-----------------------------------------------------------------*/
  21:.\serial.c    **** 
  22:.\serial.c    **** /* Initializes serial communications */
  23:.\serial.c    **** void Serial_init() {
  42              		.loc 1 23 0
  43              		.cfi_startproc
  44              		@ args = 0, pretend = 0, frame = 0
  45              		@ frame_needed = 1, uses_anonymous_args = 0
  46 0000 80B5     		push	{r7, lr}
  47              	.LCFI0:
  48              		.cfi_def_cfa_offset 8
  49 0002 00AF     		add	r7, sp, #0
  50              		.cfi_offset 14, -4
  51              		.cfi_offset 7, -8
  52              	.LCFI1:
  53              		.cfi_def_cfa_register 7
  24:.\serial.c    ****     resetRx();
  54              		.loc 1 24 0
  55 0004 FFF7FEFF 		bl	resetRx
  25:.\serial.c    **** }
  56              		.loc 1 25 0
  57 0008 80BD     		pop	{r7, pc}
  58              		.cfi_endproc
  59              	.LFE29:
  60              		.size	Serial_init, .-Serial_init
  61 000a 00BF     		.section	.rodata
  62              		.align	2
  63              	.LC0:
  64 0000 21204275 		.ascii	"! Buffer Overflow !\000"
  64      66666572 
  64      204F7665 
  64      72666C6F 
  64      77202100 
  65              		.section	.text.Serial_handleData,"ax",%progbits
  66              		.align	2
  67              		.global	Serial_handleData
  68              		.thumb
  69              		.thumb_func
  70              		.type	Serial_handleData, %function
  71              	Serial_handleData:
  72              	.LFB30:
  26:.\serial.c    **** 
  27:.\serial.c    **** 
  28:.\serial.c    **** /* Handles incoming serial data 
  29:.\serial.c    ****    Returns: null if transmission is not complete, the transmitted
  30:.\serial.c    ****             string otherwise */
ARM GAS  C:\Users\bccho\AppData\Local\Temp\ccYpjO8n.s 			page 3


  31:.\serial.c    **** char *Serial_handleData() {
  73              		.loc 1 31 0
  74              		.cfi_startproc
  75              		@ args = 0, pretend = 0, frame = 8
  76              		@ frame_needed = 1, uses_anonymous_args = 0
  77 0000 80B5     		push	{r7, lr}
  78              	.LCFI2:
  79              		.cfi_def_cfa_offset 8
  80 0002 82B0     		sub	sp, sp, #8
  81              	.LCFI3:
  82              		.cfi_def_cfa_offset 16
  83 0004 00AF     		add	r7, sp, #0
  84              		.cfi_offset 14, -4
  85              		.cfi_offset 7, -8
  86              	.LCFI4:
  87              		.cfi_def_cfa_register 7
  32:.\serial.c    ****     // reset the buffer if needed (last call completed a message)
  33:.\serial.c    ****     if (needReset) {
  88              		.loc 1 33 0
  89 0006 40F20003 		movw	r3, #:lower16:needReset
  90 000a C0F20003 		movt	r3, #:upper16:needReset
  91 000e 1B68     		ldr	r3, [r3, #0]
  92 0010 002B     		cmp	r3, #0
  93 0012 08D0     		beq	.L4
  34:.\serial.c    ****         resetRx();
  94              		.loc 1 34 0
  95 0014 FFF7FEFF 		bl	resetRx
  35:.\serial.c    ****         needReset = 0;
  96              		.loc 1 35 0
  97 0018 40F20003 		movw	r3, #:lower16:needReset
  98 001c C0F20003 		movt	r3, #:upper16:needReset
  99 0020 4FF00002 		mov	r2, #0
 100 0024 1A60     		str	r2, [r3, #0]
 101              	.L4:
  36:.\serial.c    ****     }
  37:.\serial.c    ****     
  38:.\serial.c    ****     // get char
  39:.\serial.c    ****     char recByte = UART_GetChar();
 102              		.loc 1 39 0
 103 0026 FFF7FEFF 		bl	UART_GetChar
 104 002a 0346     		mov	r3, r0
 105 002c FB71     		strb	r3, [r7, #7]
  40:.\serial.c    ****     
  41:.\serial.c    ****     // if NL, CR, or EOT, indicate end of message and echo back special char
  42:.\serial.c    ****     if (recByte == 0xA || recByte == 0xD || recByte == 0x4) {
 106              		.loc 1 42 0
 107 002e FB79     		ldrb	r3, [r7, #7]	@ zero_extendqisi2
 108 0030 0A2B     		cmp	r3, #10
 109 0032 05D0     		beq	.L5
 110 0034 FB79     		ldrb	r3, [r7, #7]	@ zero_extendqisi2
 111 0036 0D2B     		cmp	r3, #13
 112 0038 02D0     		beq	.L5
 113 003a FB79     		ldrb	r3, [r7, #7]	@ zero_extendqisi2
 114 003c 042B     		cmp	r3, #4
 115 003e 13D1     		bne	.L6
 116              	.L5:
  43:.\serial.c    ****         UART_PutChar('$');
ARM GAS  C:\Users\bccho\AppData\Local\Temp\ccYpjO8n.s 			page 4


 117              		.loc 1 43 0
 118 0040 4FF02400 		mov	r0, #36
 119 0044 FFF7FEFF 		bl	UART_PutChar
  44:.\serial.c    ****         UART_PutChar(recByte);
 120              		.loc 1 44 0
 121 0048 FB79     		ldrb	r3, [r7, #7]	@ zero_extendqisi2
 122 004a 1846     		mov	r0, r3
 123 004c FFF7FEFF 		bl	UART_PutChar
  45:.\serial.c    ****         needReset = 1;
 124              		.loc 1 45 0
 125 0050 40F20003 		movw	r3, #:lower16:needReset
 126 0054 C0F20003 		movt	r3, #:upper16:needReset
 127 0058 4FF00102 		mov	r2, #1
 128 005c 1A60     		str	r2, [r3, #0]
  46:.\serial.c    ****         return bufRx;
 129              		.loc 1 46 0
 130 005e 40F20003 		movw	r3, #:lower16:bufRx
 131 0062 C0F20003 		movt	r3, #:upper16:bufRx
 132 0066 3DE0     		b	.L7
 133              	.L6:
  47:.\serial.c    ****     } else if (recByte > 0) {
 134              		.loc 1 47 0
 135 0068 FB79     		ldrb	r3, [r7, #7]	@ zero_extendqisi2
 136 006a 002B     		cmp	r3, #0
 137 006c 34D0     		beq	.L8
  48:.\serial.c    ****         // if we have reached max buffer size, indicate overflow error
  49:.\serial.c    ****         if (bufRxPos == BUF_RX_SIZE) {
 138              		.loc 1 49 0
 139 006e 40F20003 		movw	r3, #:lower16:bufRxPos
 140 0072 C0F20003 		movt	r3, #:upper16:bufRxPos
 141 0076 1B68     		ldr	r3, [r3, #0]
 142 0078 642B     		cmp	r3, #100
 143 007a 11D1     		bne	.L9
  50:.\serial.c    ****             UART_PutString("! Buffer Overflow !");
 144              		.loc 1 50 0
 145 007c 40F20000 		movw	r0, #:lower16:.LC0
 146 0080 C0F20000 		movt	r0, #:upper16:.LC0
 147 0084 FFF7FEFF 		bl	UART_PutString
  51:.\serial.c    ****             needReset = 1;
 148              		.loc 1 51 0
 149 0088 40F20003 		movw	r3, #:lower16:needReset
 150 008c C0F20003 		movt	r3, #:upper16:needReset
 151 0090 4FF00102 		mov	r2, #1
 152 0094 1A60     		str	r2, [r3, #0]
  52:.\serial.c    ****             return bufRx;
 153              		.loc 1 52 0
 154 0096 40F20003 		movw	r3, #:lower16:bufRx
 155 009a C0F20003 		movt	r3, #:upper16:bufRx
 156 009e 21E0     		b	.L7
 157              	.L9:
  53:.\serial.c    ****         // for normal bytes, put byte in buffer and echo the byte
  54:.\serial.c    ****         } else {
  55:.\serial.c    ****             bufRx[bufRxPos] = recByte;
 158              		.loc 1 55 0
 159 00a0 40F20003 		movw	r3, #:lower16:bufRxPos
 160 00a4 C0F20003 		movt	r3, #:upper16:bufRxPos
 161 00a8 1A68     		ldr	r2, [r3, #0]
ARM GAS  C:\Users\bccho\AppData\Local\Temp\ccYpjO8n.s 			page 5


 162 00aa 40F20003 		movw	r3, #:lower16:bufRx
 163 00ae C0F20003 		movt	r3, #:upper16:bufRx
 164 00b2 F979     		ldrb	r1, [r7, #7]
 165 00b4 9954     		strb	r1, [r3, r2]
  56:.\serial.c    ****             bufRxPos++;
 166              		.loc 1 56 0
 167 00b6 40F20003 		movw	r3, #:lower16:bufRxPos
 168 00ba C0F20003 		movt	r3, #:upper16:bufRxPos
 169 00be 1B68     		ldr	r3, [r3, #0]
 170 00c0 03F10102 		add	r2, r3, #1
 171 00c4 40F20003 		movw	r3, #:lower16:bufRxPos
 172 00c8 C0F20003 		movt	r3, #:upper16:bufRxPos
 173 00cc 1A60     		str	r2, [r3, #0]
  57:.\serial.c    ****             UART_PutChar(recByte);
 174              		.loc 1 57 0
 175 00ce FB79     		ldrb	r3, [r7, #7]	@ zero_extendqisi2
 176 00d0 1846     		mov	r0, r3
 177 00d2 FFF7FEFF 		bl	UART_PutChar
 178 00d6 03E0     		b	.L10
 179              	.L8:
  58:.\serial.c    ****         }
  59:.\serial.c    ****     // byte should never be zero, so print error char if it is
  60:.\serial.c    ****     } else {
  61:.\serial.c    ****         UART_PutChar('!');
 180              		.loc 1 61 0
 181 00d8 4FF02100 		mov	r0, #33
 182 00dc FFF7FEFF 		bl	UART_PutChar
 183              	.L10:
  62:.\serial.c    ****     }
  63:.\serial.c    ****     return NULL;
 184              		.loc 1 63 0
 185 00e0 4FF00003 		mov	r3, #0
 186              	.L7:
  64:.\serial.c    **** }
 187              		.loc 1 64 0
 188 00e4 1846     		mov	r0, r3
 189 00e6 07F10807 		add	r7, r7, #8
 190 00ea BD46     		mov	sp, r7
 191 00ec 80BD     		pop	{r7, pc}
 192              		.cfi_endproc
 193              	.LFE30:
 194              		.size	Serial_handleData, .-Serial_handleData
 195 00ee 00BF     		.section	.text.resetRx,"ax",%progbits
 196              		.align	2
 197              		.thumb
 198              		.thumb_func
 199              		.type	resetRx, %function
 200              	resetRx:
 201              	.LFB31:
  65:.\serial.c    **** 
  66:.\serial.c    **** 
  67:.\serial.c    **** 
  68:.\serial.c    **** /*-----------------------------------------------------------------*/
  69:.\serial.c    **** 
  70:.\serial.c    **** 
  71:.\serial.c    **** static void resetRx() {
 202              		.loc 1 71 0
ARM GAS  C:\Users\bccho\AppData\Local\Temp\ccYpjO8n.s 			page 6


 203              		.cfi_startproc
 204              		@ args = 0, pretend = 0, frame = 8
 205              		@ frame_needed = 1, uses_anonymous_args = 0
 206              		@ link register save eliminated.
 207 0000 80B4     		push	{r7}
 208              	.LCFI5:
 209              		.cfi_def_cfa_offset 4
 210 0002 83B0     		sub	sp, sp, #12
 211              	.LCFI6:
 212              		.cfi_def_cfa_offset 16
 213 0004 00AF     		add	r7, sp, #0
 214              		.cfi_offset 7, -4
 215              	.LCFI7:
 216              		.cfi_def_cfa_register 7
  72:.\serial.c    ****     // Clear mesage buffer and reset position
  73:.\serial.c    ****     int i;
  74:.\serial.c    ****     for (i = 0; i < bufRxPos; i++) bufRx[i] = 0;
 217              		.loc 1 74 0
 218 0006 4FF00003 		mov	r3, #0
 219 000a 7B60     		str	r3, [r7, #4]
 220 000c 0BE0     		b	.L13
 221              	.L14:
 222 000e 7A68     		ldr	r2, [r7, #4]
 223 0010 40F20003 		movw	r3, #:lower16:bufRx
 224 0014 C0F20003 		movt	r3, #:upper16:bufRx
 225 0018 4FF00001 		mov	r1, #0
 226 001c 9954     		strb	r1, [r3, r2]
 227 001e 7B68     		ldr	r3, [r7, #4]
 228 0020 03F10103 		add	r3, r3, #1
 229 0024 7B60     		str	r3, [r7, #4]
 230              	.L13:
 231 0026 40F20003 		movw	r3, #:lower16:bufRxPos
 232 002a C0F20003 		movt	r3, #:upper16:bufRxPos
 233 002e 1B68     		ldr	r3, [r3, #0]
 234 0030 7A68     		ldr	r2, [r7, #4]
 235 0032 9A42     		cmp	r2, r3
 236 0034 EBDB     		blt	.L14
  75:.\serial.c    ****     bufRxPos = 0;
 237              		.loc 1 75 0
 238 0036 40F20003 		movw	r3, #:lower16:bufRxPos
 239 003a C0F20003 		movt	r3, #:upper16:bufRxPos
 240 003e 4FF00002 		mov	r2, #0
 241 0042 1A60     		str	r2, [r3, #0]
  76:.\serial.c    **** }
 242              		.loc 1 76 0
 243 0044 07F10C07 		add	r7, r7, #12
 244 0048 BD46     		mov	sp, r7
 245 004a 80BC     		pop	{r7}
 246 004c 7047     		bx	lr
 247              		.cfi_endproc
 248              	.LFE31:
 249              		.size	resetRx, .-resetRx
 250 004e 00BF     		.text
 251              	.Letext0: