ARM GAS  C:\Users\tjs8\AppData\Local\Temp\cchqEM3h.s 			page 1


   1              		.syntax unified
   2              		.cpu cortex-m3
   3              		.fpu softvfp
   4              		.eabi_attribute 20, 1
   5              		.eabi_attribute 21, 1
   6              		.eabi_attribute 23, 3
   7              		.eabi_attribute 24, 1
   8              		.eabi_attribute 25, 1
   9              		.eabi_attribute 26, 1
  10              		.eabi_attribute 30, 6
  11              		.eabi_attribute 18, 4
  12              		.thumb
  13              		.file	"main.c"
  20 0000 BE010000 		.text
  20      02005300 
  20      00000201 
  20      FB0E0D00 
  20      01010101 
  21              	.Ltext0:
  22              		.cfi_sections	.debug_frame
  23              		.global	buildVersion
  24              		.data
  25              		.align	2
  26              		.type	buildVersion, %object
  27              		.size	buildVersion, 8
  28              	buildVersion:
  29 0000 4275696C 		.ascii	"Build 1\000"
  29      64203100 
  30              		.global	MAX_THROTTLE
  31              		.section	.rodata
  32              		.align	2
  33              		.type	MAX_THROTTLE, %object
  34              		.size	MAX_THROTTLE, 4
  35              	MAX_THROTTLE:
  36 0000 FF000000 		.word	255
  37              		.global	CLK_FREQ
  38              		.align	2
  39              		.type	CLK_FREQ, %object
  40              		.size	CLK_FREQ, 4
  41              	CLK_FREQ:
  42 0004 A0860100 		.word	100000
  43              		.global	TIMER_PERIOD
  44              		.align	2
  45              		.type	TIMER_PERIOD, %object
  46              		.size	TIMER_PERIOD, 4
  47              	TIMER_PERIOD:
  48 0008 00000100 		.word	65536
  49              		.global	WHEEL_DIAM
  50 000c 00000000 		.align	3
  51              		.type	WHEEL_DIAM, %object
  52              		.size	WHEEL_DIAM, 8
ARM GAS  C:\Users\tjs8\AppData\Local\Temp\cchqEM3h.s 			page 2


  53              	WHEEL_DIAM:
  54 0010 00000000 		.word	0
  55 0014 00000440 		.word	1074003968
  56              		.global	TARGET_SPEED
  57              		.align	3
  58              		.type	TARGET_SPEED, %object
  59              		.size	TARGET_SPEED, 8
  60              	TARGET_SPEED:
  61 0018 00000000 		.word	0
  62 001c 00001040 		.word	1074790400
  63              		.global	ss_throttle
  64              		.bss
  65              		.align	2
  66              		.type	ss_throttle, %object
  67              		.size	ss_throttle, 4
  68              	ss_throttle:
  69 0000 00000000 		.space	4
  70              		.global	PID_integral
  71 0004 00000000 		.align	3
  72              		.type	PID_integral, %object
  73              		.size	PID_integral, 8
  74              	PID_integral:
  75 0008 00000000 		.space	8
  75      00000000 
  76              		.global	speed_buf_pos
  77              		.align	2
  78              		.type	speed_buf_pos, %object
  79              		.size	speed_buf_pos, 4
  80              	speed_buf_pos:
  81 0010 00000000 		.space	4
  82              		.global	speed_buf_last_pos
  83              		.align	2
  84              		.type	speed_buf_last_pos, %object
  85              		.size	speed_buf_last_pos, 4
  86              	speed_buf_last_pos:
  87 0014 00000000 		.space	4
  88              		.comm	speed_buf,80,8
  89              		.global	COEFF_P
  90              		.data
  91              		.align	3
  92              		.type	COEFF_P, %object
  93              		.size	COEFF_P, 8
  94              	COEFF_P:
  95 0008 00000000 		.word	0
  96 000c 00004940 		.word	1078525952
  97              		.global	COEFF_I
  98              		.align	3
  99              		.type	COEFF_I, %object
 100              		.size	COEFF_I, 8
 101              	COEFF_I:
 102 0010 00000000 		.word	0
 103 0014 00002440 		.word	1076101120
 104              		.global	COEFF_D
 105              		.align	3
 106              		.type	COEFF_D, %object
 107              		.size	COEFF_D, 8
 108              	COEFF_D:
ARM GAS  C:\Users\tjs8\AppData\Local\Temp\cchqEM3h.s 			page 3


 109 0018 00000000 		.word	0
 110 001c 00002440 		.word	1076101120
 111              		.global	throttlePIDon
 112              		.bss
 113              		.align	2
 114              		.type	throttlePIDon, %object
 115              		.size	throttlePIDon, 4
 116              	throttlePIDon:
 117 0018 00000000 		.space	4
 118              		.global	buttonInterrupted
 119              		.align	2
 120              		.type	buttonInterrupted, %object
 121              		.size	buttonInterrupted, 4
 122              	buttonInterrupted:
 123 001c 00000000 		.space	4
 124              		.global	rxInterrupted
 125              		.align	2
 126              		.type	rxInterrupted, %object
 127              		.size	rxInterrupted, 4
 128              	rxInterrupted:
 129 0020 00000000 		.space	4
 130              		.global	wheelTickInterrupted
 131              		.align	2
 132              		.type	wheelTickInterrupted, %object
 133              		.size	wheelTickInterrupted, 4
 134              	wheelTickInterrupted:
 135 0024 00000000 		.space	4
 136              		.global	tickTimeoutInterrupted
 137              		.align	2
 138              		.type	tickTimeoutInterrupted, %object
 139              		.size	tickTimeoutInterrupted, 4
 140              	tickTimeoutInterrupted:
 141 0028 00000000 		.space	4
 142              		.global	throttleUpdateInterrupted
 143              		.align	2
 144              		.type	throttleUpdateInterrupted, %object
 145              		.size	throttleUpdateInterrupted, 4
 146              	throttleUpdateInterrupted:
 147 002c 00000000 		.space	4
 148              		.comm	throttle,4,4
 149              		.comm	recByte,1,1
 150              		.comm	rx_buf,100,4
 151              		.global	rx_buf_pos
 152              		.align	2
 153              		.type	rx_buf_pos, %object
 154              		.size	rx_buf_pos, 4
 155              	rx_buf_pos:
 156 0030 00000000 		.space	4
 157              		.global	msgReceived
 158              		.align	2
 159              		.type	msgReceived, %object
 160              		.size	msgReceived, 4
 161              	msgReceived:
 162 0034 00000000 		.space	4
 163              		.comm	wheel_tick_buf,12,4
 164              		.global	wheel_tick_buf_pos
 165              		.align	2
ARM GAS  C:\Users\tjs8\AppData\Local\Temp\cchqEM3h.s 			page 4


 166              		.type	wheel_tick_buf_pos, %object
 167              		.size	wheel_tick_buf_pos, 4
 168              	wheel_tick_buf_pos:
 169 0038 00000000 		.space	4
 170              		.global	wheel_tick_buf_cur_size
 171              		.align	2
 172              		.type	wheel_tick_buf_cur_size, %object
 173              		.size	wheel_tick_buf_cur_size, 4
 174              	wheel_tick_buf_cur_size:
 175 003c 00000000 		.space	4
 176              		.global	oldTickCount
 177              		.align	2
 178              		.type	oldTickCount, %object
 179              		.size	oldTickCount, 4
 180              	oldTickCount:
 181 0040 00000000 		.space	4
 182 0044 00000000 		.section	.rodata
 183              		.align	2
 184              	.LC0:
 185 0020 25336900 		.ascii	"%3i\000"
 186              		.section	.text.setThrottle,"ax",%progbits
 187              		.align	2
 188              		.global	setThrottle
 189              		.thumb
 190              		.thumb_func
 191              		.type	setThrottle, %function
 192              	setThrottle:
 193              	.LFB29:
 194              		.file 1 ".\\main.c"
   1:.\main.c      **** /* ========================================
   2:.\main.c      ****  *
   3:.\main.c      ****  * Copyright YOUR COMPANY, THE YEAR
   4:.\main.c      ****  * All Rights Reserved
   5:.\main.c      ****  * UNPUBLISHED, LICENSED SOFTWARE.
   6:.\main.c      ****  *
   7:.\main.c      ****  * CONFIDENTIAL AND PROPRIETARY INFORMATION
   8:.\main.c      ****  * WHICH IS THE PROPERTY OF your company.
   9:.\main.c      ****  *
  10:.\main.c      ****  * ========================================
  11:.\main.c      **** */
  12:.\main.c      **** #include <device.h>
  13:.\main.c      **** #include <stdio.h>
  14:.\main.c      **** #include <math.h>
  15:.\main.c      **** 
  16:.\main.c      **** char buildVersion[] = "Build 1";
  17:.\main.c      **** 
  18:.\main.c      **** const int MAX_THROTTLE = 255;
  19:.\main.c      **** const int CLK_FREQ = 100000;
  20:.\main.c      **** const int TIMER_PERIOD = 65536;
  21:.\main.c      **** const double WHEEL_DIAM = 2.5; // in inches
  22:.\main.c      **** #define RX_BUF_SIZE 100
  23:.\main.c      **** #define WHEEL_TICK_BUF_SIZE 3
  24:.\main.c      **** 
  25:.\main.c      **** const double TARGET_SPEED = 4.0; // in feet per second
  26:.\main.c      **** int ss_throttle = 0;
  27:.\main.c      **** double PID_integral = 0.0;
  28:.\main.c      **** #define SPEED_BUF_SIZE 10
ARM GAS  C:\Users\tjs8\AppData\Local\Temp\cchqEM3h.s 			page 5


  29:.\main.c      **** int speed_buf_pos = 0;
  30:.\main.c      **** int speed_buf_last_pos = 0;
  31:.\main.c      **** double speed_buf[SPEED_BUF_SIZE];
  32:.\main.c      **** 
  33:.\main.c      **** // PID coefficients
  34:.\main.c      **** double COEFF_P = 50.0;
  35:.\main.c      **** double COEFF_I = 10.0;
  36:.\main.c      **** double COEFF_D = 10.0;
  37:.\main.c      **** 
  38:.\main.c      **** int throttlePIDon = 0;
  39:.\main.c      **** 
  40:.\main.c      **** int buttonInterrupted = 0;
  41:.\main.c      **** int rxInterrupted = 0;
  42:.\main.c      **** int wheelTickInterrupted = 0;
  43:.\main.c      **** int tickTimeoutInterrupted = 0;
  44:.\main.c      **** int throttleUpdateInterrupted = 0;
  45:.\main.c      **** 
  46:.\main.c      **** int throttle;
  47:.\main.c      **** 
  48:.\main.c      **** uint8 recByte;
  49:.\main.c      **** uint8 rx_buf[RX_BUF_SIZE];
  50:.\main.c      **** int rx_buf_pos = 0;
  51:.\main.c      **** int msgReceived = 0;
  52:.\main.c      **** 
  53:.\main.c      **** int wheel_tick_buf[WHEEL_TICK_BUF_SIZE];
  54:.\main.c      **** int wheel_tick_buf_pos = 0;
  55:.\main.c      **** int wheel_tick_buf_cur_size = 0;
  56:.\main.c      **** int oldTickCount = 0;
  57:.\main.c      **** 
  58:.\main.c      **** void setThrottle(int thr) {
 195              		.loc 1 58 0
 196              		.cfi_startproc
 197              		@ args = 0, pretend = 0, frame = 16
 198              		@ frame_needed = 1, uses_anonymous_args = 0
 199 0000 80B5     		push	{r7, lr}
 200              	.LCFI0:
 201              		.cfi_def_cfa_offset 8
 202 0002 84B0     		sub	sp, sp, #16
 203              	.LCFI1:
 204              		.cfi_def_cfa_offset 24
 205 0004 00AF     		add	r7, sp, #0
 206              		.cfi_offset 14, -4
 207              		.cfi_offset 7, -8
 208              	.LCFI2:
 209              		.cfi_def_cfa_register 7
 210 0006 7860     		str	r0, [r7, #4]
  59:.\main.c      ****     if (thr < 0)
 211              		.loc 1 59 0
 212 0008 7B68     		ldr	r3, [r7, #4]
 213 000a 002B     		cmp	r3, #0
 214 000c 02DA     		bge	.L2
  60:.\main.c      ****         thr = 0;
 215              		.loc 1 60 0
 216 000e 4FF00003 		mov	r3, #0
 217 0012 7B60     		str	r3, [r7, #4]
 218              	.L2:
  61:.\main.c      ****     if (thr > MAX_THROTTLE)
ARM GAS  C:\Users\tjs8\AppData\Local\Temp\cchqEM3h.s 			page 6


 219              		.loc 1 61 0
 220 0014 40F20003 		movw	r3, #:lower16:MAX_THROTTLE
 221 0018 C0F20003 		movt	r3, #:upper16:MAX_THROTTLE
 222 001c 1B68     		ldr	r3, [r3, #0]
 223 001e 7A68     		ldr	r2, [r7, #4]
 224 0020 9A42     		cmp	r2, r3
 225 0022 05DD     		ble	.L3
  62:.\main.c      ****         thr = MAX_THROTTLE;
 226              		.loc 1 62 0
 227 0024 40F20003 		movw	r3, #:lower16:MAX_THROTTLE
 228 0028 C0F20003 		movt	r3, #:upper16:MAX_THROTTLE
 229 002c 1B68     		ldr	r3, [r3, #0]
 230 002e 7B60     		str	r3, [r7, #4]
 231              	.L3:
  63:.\main.c      ****     
  64:.\main.c      ****     throttle = thr;
 232              		.loc 1 64 0
 233 0030 40F20003 		movw	r3, #:lower16:throttle
 234 0034 C0F20003 		movt	r3, #:upper16:throttle
 235 0038 7A68     		ldr	r2, [r7, #4]
 236 003a 1A60     		str	r2, [r3, #0]
  65:.\main.c      ****     
  66:.\main.c      ****     PWM_WriteCompare(throttle);
 237              		.loc 1 66 0
 238 003c 40F20003 		movw	r3, #:lower16:throttle
 239 0040 C0F20003 		movt	r3, #:upper16:throttle
 240 0044 1B68     		ldr	r3, [r3, #0]
 241 0046 9BB2     		uxth	r3, r3
 242 0048 1846     		mov	r0, r3
 243 004a FFF7FEFF 		bl	PWM_WriteCompare
  67:.\main.c      ****     
  68:.\main.c      ****     LCD_Position(1,0);
 244              		.loc 1 68 0
 245 004e 4FF00100 		mov	r0, #1
 246 0052 4FF00001 		mov	r1, #0
 247 0056 FFF7FEFF 		bl	LCD_Position
  69:.\main.c      ****     char strbuffer[4];
  70:.\main.c      ****     sprintf(strbuffer, "%3i", throttle);
 248              		.loc 1 70 0
 249 005a 40F20003 		movw	r3, #:lower16:throttle
 250 005e C0F20003 		movt	r3, #:upper16:throttle
 251 0062 1B68     		ldr	r3, [r3, #0]
 252 0064 07F10C02 		add	r2, r7, #12
 253 0068 1046     		mov	r0, r2
 254 006a 40F20001 		movw	r1, #:lower16:.LC0
 255 006e C0F20001 		movt	r1, #:upper16:.LC0
 256 0072 1A46     		mov	r2, r3
 257 0074 FFF7FEFF 		bl	sprintf
  71:.\main.c      ****     LCD_PrintString(strbuffer);
 258              		.loc 1 71 0
 259 0078 07F10C03 		add	r3, r7, #12
 260 007c 1846     		mov	r0, r3
 261 007e FFF7FEFF 		bl	LCD_PrintString
  72:.\main.c      **** }
 262              		.loc 1 72 0
 263 0082 07F11007 		add	r7, r7, #16
 264 0086 BD46     		mov	sp, r7
ARM GAS  C:\Users\tjs8\AppData\Local\Temp\cchqEM3h.s 			page 7


 265 0088 80BD     		pop	{r7, pc}
 266              		.cfi_endproc
 267              	.LFE29:
 268              		.size	setThrottle, .-setThrottle
 269              		.global	__aeabi_i2d
 270              		.global	__aeabi_dadd
 271              		.global	__aeabi_ddiv
 272              		.global	__aeabi_dmul
 273 008a 00BF     		.section	.text.getSpeed,"ax",%progbits
 274              		.align	2
 275              		.global	getSpeed
 276              		.thumb
 277              		.thumb_func
 278              		.type	getSpeed, %function
 279              	getSpeed:
 280              	.LFB30:
  73:.\main.c      **** 
  74:.\main.c      **** double getSpeed() {
 281              		.loc 1 74 0
 282              		.cfi_startproc
 283              		@ args = 0, pretend = 0, frame = 40
 284              		@ frame_needed = 1, uses_anonymous_args = 0
 285 0000 80B5     		push	{r7, lr}
 286              	.LCFI3:
 287              		.cfi_def_cfa_offset 8
 288 0002 8AB0     		sub	sp, sp, #40
 289              	.LCFI4:
 290              		.cfi_def_cfa_offset 48
 291 0004 00AF     		add	r7, sp, #0
 292              		.cfi_offset 14, -4
 293              		.cfi_offset 7, -8
 294              	.LCFI5:
 295              		.cfi_def_cfa_register 7
  75:.\main.c      ****     double cumSum = 0;
 296              		.loc 1 75 0
 297 0006 4FF00002 		mov	r2, #0
 298 000a 4FF00003 		mov	r3, #0
 299 000e C7E90023 		strd	r2, [r7]
  76:.\main.c      ****     int i;
  77:.\main.c      ****     if (wheel_tick_buf_cur_size == 0) return 0;
 300              		.loc 1 77 0
 301 0012 40F20003 		movw	r3, #:lower16:wheel_tick_buf_cur_size
 302 0016 C0F20003 		movt	r3, #:upper16:wheel_tick_buf_cur_size
 303 001a 1B68     		ldr	r3, [r3, #0]
 304 001c 002B     		cmp	r3, #0
 305 001e 04D1     		bne	.L6
 306 0020 4FF00002 		mov	r2, #0
 307 0024 4FF00003 		mov	r3, #0
 308 0028 74E0     		b	.L7
 309              	.L6:
  78:.\main.c      ****     for (i = 0; i < WHEEL_TICK_BUF_SIZE; i++) {
 310              		.loc 1 78 0
 311 002a 4FF00003 		mov	r3, #0
 312 002e FB60     		str	r3, [r7, #12]
 313 0030 17E0     		b	.L8
 314              	.L9:
  79:.\main.c      ****         cumSum += (double) wheel_tick_buf[i];
ARM GAS  C:\Users\tjs8\AppData\Local\Temp\cchqEM3h.s 			page 8


 315              		.loc 1 79 0
 316 0032 FA68     		ldr	r2, [r7, #12]
 317 0034 40F20003 		movw	r3, #:lower16:wheel_tick_buf
 318 0038 C0F20003 		movt	r3, #:upper16:wheel_tick_buf
 319 003c 53F82230 		ldr	r3, [r3, r2, lsl #2]
 320 0040 1846     		mov	r0, r3
 321 0042 FFF7FEFF 		bl	__aeabi_i2d
 322 0046 0246     		mov	r2, r0
 323 0048 0B46     		mov	r3, r1
 324 004a D7E90001 		ldrd	r0, [r7]
 325 004e FFF7FEFF 		bl	__aeabi_dadd
 326 0052 0246     		mov	r2, r0
 327 0054 0B46     		mov	r3, r1
 328 0056 C7E90023 		strd	r2, [r7]
 329              		.loc 1 78 0
 330 005a FB68     		ldr	r3, [r7, #12]
 331 005c 03F10103 		add	r3, r3, #1
 332 0060 FB60     		str	r3, [r7, #12]
 333              	.L8:
 334 0062 FB68     		ldr	r3, [r7, #12]
 335 0064 022B     		cmp	r3, #2
 336 0066 E4DD     		ble	.L9
  80:.\main.c      ****     }
  81:.\main.c      ****     double averageCount = cumSum / wheel_tick_buf_cur_size;
 337              		.loc 1 81 0
 338 0068 40F20003 		movw	r3, #:lower16:wheel_tick_buf_cur_size
 339 006c C0F20003 		movt	r3, #:upper16:wheel_tick_buf_cur_size
 340 0070 1B68     		ldr	r3, [r3, #0]
 341 0072 1846     		mov	r0, r3
 342 0074 FFF7FEFF 		bl	__aeabi_i2d
 343 0078 0246     		mov	r2, r0
 344 007a 0B46     		mov	r3, r1
 345 007c D7E90001 		ldrd	r0, [r7]
 346 0080 FFF7FEFF 		bl	__aeabi_ddiv
 347 0084 0246     		mov	r2, r0
 348 0086 0B46     		mov	r3, r1
 349 0088 C7E90423 		strd	r2, [r7, #16]
  82:.\main.c      ****     double ticksPerSec = CLK_FREQ / averageCount;
 350              		.loc 1 82 0
 351 008c 40F20003 		movw	r3, #:lower16:CLK_FREQ
 352 0090 C0F20003 		movt	r3, #:upper16:CLK_FREQ
 353 0094 1B68     		ldr	r3, [r3, #0]
 354 0096 1846     		mov	r0, r3
 355 0098 FFF7FEFF 		bl	__aeabi_i2d
 356 009c 0246     		mov	r2, r0
 357 009e 0B46     		mov	r3, r1
 358 00a0 1046     		mov	r0, r2
 359 00a2 1946     		mov	r1, r3
 360 00a4 D7E90423 		ldrd	r2, [r7, #16]
 361 00a8 FFF7FEFF 		bl	__aeabi_ddiv
 362 00ac 0246     		mov	r2, r0
 363 00ae 0B46     		mov	r3, r1
 364 00b0 C7E90623 		strd	r2, [r7, #24]
  83:.\main.c      ****     double speed = ticksPerSec * ((M_PI * WHEEL_DIAM) / 5) * (1.0/12.0);
 365              		.loc 1 83 0
 366 00b4 40F20003 		movw	r3, #:lower16:WHEEL_DIAM
 367 00b8 C0F20003 		movt	r3, #:upper16:WHEEL_DIAM
ARM GAS  C:\Users\tjs8\AppData\Local\Temp\cchqEM3h.s 			page 9


 368 00bc D3E90023 		ldrd	r2, [r3]
 369 00c0 1046     		mov	r0, r2
 370 00c2 1946     		mov	r1, r3
 371 00c4 16A3     		adr	r3, .L11
 372 00c6 D3E90023 		ldrd	r2, [r3]
 373 00ca FFF7FEFF 		bl	__aeabi_dmul
 374 00ce 0246     		mov	r2, r0
 375 00d0 0B46     		mov	r3, r1
 376 00d2 1046     		mov	r0, r2
 377 00d4 1946     		mov	r1, r3
 378 00d6 4FF00002 		mov	r2, #0
 379 00da 4FF08043 		mov	r3, #1073741824
 380 00de 03F5A013 		add	r3, r3, #1310720
 381 00e2 FFF7FEFF 		bl	__aeabi_ddiv
 382 00e6 0246     		mov	r2, r0
 383 00e8 0B46     		mov	r3, r1
 384 00ea 1046     		mov	r0, r2
 385 00ec 1946     		mov	r1, r3
 386 00ee D7E90623 		ldrd	r2, [r7, #24]
 387 00f2 FFF7FEFF 		bl	__aeabi_dmul
 388 00f6 0246     		mov	r2, r0
 389 00f8 0B46     		mov	r3, r1
 390 00fa 1046     		mov	r0, r2
 391 00fc 1946     		mov	r1, r3
 392 00fe 0AA3     		adr	r3, .L11+8
 393 0100 D3E90023 		ldrd	r2, [r3]
 394 0104 FFF7FEFF 		bl	__aeabi_dmul
 395 0108 0246     		mov	r2, r0
 396 010a 0B46     		mov	r3, r1
 397 010c C7E90823 		strd	r2, [r7, #32]
  84:.\main.c      ****     
  85:.\main.c      **** //    char strbuffer[20];
  86:.\main.c      **** //    sprintf(strbuffer, "cnt: %f\n", averageCount);
  87:.\main.c      **** //    UART_1_PutString(strbuffer);
  88:.\main.c      ****     
  89:.\main.c      ****     return speed;
 398              		.loc 1 89 0
 399 0110 D7E90823 		ldrd	r2, [r7, #32]
 400              	.L7:
  90:.\main.c      **** }
 401              		.loc 1 90 0
 402 0114 1046     		mov	r0, r2
 403 0116 1946     		mov	r1, r3
 404 0118 07F12807 		add	r7, r7, #40
 405 011c BD46     		mov	sp, r7
 406 011e 80BD     		pop	{r7, pc}
 407              	.L12:
 408              		.align	3
 409              	.L11:
 410 0120 182D4454 		.word	1413754136
 411 0124 FB210940 		.word	1074340347
 412 0128 55555555 		.word	1431655765
 413 012c 5555B53F 		.word	1068848469
 414              		.cfi_endproc
 415              	.LFE30:
 416              		.size	getSpeed, .-getSpeed
 417              		.global	__aeabi_dsub
ARM GAS  C:\Users\tjs8\AppData\Local\Temp\cchqEM3h.s 			page 10


 418              		.section	.rodata
 419              		.align	2
 420              	.LC1:
 421 0024 25362E32 		.ascii	"%6.2f, %6.2f, %6.2f, %6.5f\012\000"
 421      662C2025 
 421      362E3266 
 421      2C202536 
 421      2E32662C 
 422              		.global	__aeabi_d2iz
 423              		.section	.text.controlThrottle,"ax",%progbits
 424              		.align	2
 425              		.global	controlThrottle
 426              		.thumb
 427              		.thumb_func
 428              		.type	controlThrottle, %function
 429              	controlThrottle:
 430              	.LFB31:
  91:.\main.c      **** 
  92:.\main.c      **** int controlThrottle(double speed) {
 431              		.loc 1 92 0
 432              		.cfi_startproc
 433              		@ args = 0, pretend = 0, frame = 64
 434              		@ frame_needed = 1, uses_anonymous_args = 0
 435 0000 B0B5     		push	{r4, r5, r7, lr}
 436              	.LCFI6:
 437              		.cfi_def_cfa_offset 16
 438 0002 96B0     		sub	sp, sp, #88
 439              	.LCFI7:
 440              		.cfi_def_cfa_offset 104
 441 0004 06AF     		add	r7, sp, #24
 442              		.cfi_offset 14, -4
 443              		.cfi_offset 7, -8
 444              		.cfi_offset 5, -12
 445              		.cfi_offset 4, -16
 446              	.LCFI8:
 447              		.cfi_def_cfa 7, 80
 448 0006 C7E90001 		strd	r0, [r7]
  93:.\main.c      ****     double spd_error = TARGET_SPEED - speed;
 449              		.loc 1 93 0
 450 000a 40F20003 		movw	r3, #:lower16:TARGET_SPEED
 451 000e C0F20003 		movt	r3, #:upper16:TARGET_SPEED
 452 0012 D3E90023 		ldrd	r2, [r3]
 453 0016 1046     		mov	r0, r2
 454 0018 1946     		mov	r1, r3
 455 001a D7E90023 		ldrd	r2, [r7]
 456 001e FFF7FEFF 		bl	__aeabi_dsub
 457 0022 0246     		mov	r2, r0
 458 0024 0B46     		mov	r3, r1
 459 0026 C7E90C23 		strd	r2, [r7, #48]
  94:.\main.c      ****     speed_buf[speed_buf_pos] = spd_error;
 460              		.loc 1 94 0
 461 002a 40F20003 		movw	r3, #:lower16:speed_buf_pos
 462 002e C0F20003 		movt	r3, #:upper16:speed_buf_pos
 463 0032 1A68     		ldr	r2, [r3, #0]
 464 0034 40F20003 		movw	r3, #:lower16:speed_buf
 465 0038 C0F20003 		movt	r3, #:upper16:speed_buf
 466 003c 4FEAC202 		lsl	r2, r2, #3
ARM GAS  C:\Users\tjs8\AppData\Local\Temp\cchqEM3h.s 			page 11


 467 0040 02EB0301 		add	r1, r2, r3
 468 0044 D7E90C23 		ldrd	r2, [r7, #48]
 469 0048 C1E90023 		strd	r2, [r1]
  95:.\main.c      ****     double PID_deriv = (speed_buf[speed_buf_pos] - speed_buf[speed_buf_last_pos]) / (double) SPEED_
 470              		.loc 1 95 0
 471 004c 40F20003 		movw	r3, #:lower16:speed_buf_pos
 472 0050 C0F20003 		movt	r3, #:upper16:speed_buf_pos
 473 0054 1A68     		ldr	r2, [r3, #0]
 474 0056 40F20003 		movw	r3, #:lower16:speed_buf
 475 005a C0F20003 		movt	r3, #:upper16:speed_buf
 476 005e 4FEAC202 		lsl	r2, r2, #3
 477 0062 1344     		add	r3, r2, r3
 478 0064 D3E90001 		ldrd	r0, [r3]
 479 0068 40F20003 		movw	r3, #:lower16:speed_buf_last_pos
 480 006c C0F20003 		movt	r3, #:upper16:speed_buf_last_pos
 481 0070 1A68     		ldr	r2, [r3, #0]
 482 0072 40F20003 		movw	r3, #:lower16:speed_buf
 483 0076 C0F20003 		movt	r3, #:upper16:speed_buf
 484 007a 4FEAC202 		lsl	r2, r2, #3
 485 007e 1344     		add	r3, r2, r3
 486 0080 D3E90023 		ldrd	r2, [r3]
 487 0084 FFF7FEFF 		bl	__aeabi_dsub
 488 0088 0246     		mov	r2, r0
 489 008a 0B46     		mov	r3, r1
 490 008c 1046     		mov	r0, r2
 491 008e 1946     		mov	r1, r3
 492 0090 4FF00002 		mov	r2, #0
 493 0094 4FF08043 		mov	r3, #1073741824
 494 0098 03F51013 		add	r3, r3, #2359296
 495 009c FFF7FEFF 		bl	__aeabi_ddiv
 496 00a0 0246     		mov	r2, r0
 497 00a2 0B46     		mov	r3, r1
 498 00a4 C7E90E23 		strd	r2, [r7, #56]
  96:.\main.c      ****     speed_buf_pos = (speed_buf_pos + 1) % SPEED_BUF_SIZE;
 499              		.loc 1 96 0
 500 00a8 40F20003 		movw	r3, #:lower16:speed_buf_pos
 501 00ac C0F20003 		movt	r3, #:upper16:speed_buf_pos
 502 00b0 1B68     		ldr	r3, [r3, #0]
 503 00b2 03F10101 		add	r1, r3, #1
 504 00b6 46F26763 		movw	r3, #:lower16:1717986919
 505 00ba C6F26663 		movt	r3, #:upper16:1717986919
 506 00be 83FB0123 		smull	r2, r3, r3, r1
 507 00c2 4FEAA302 		asr	r2, r3, #2
 508 00c6 4FEAE173 		asr	r3, r1, #31
 509 00ca C3EB0202 		rsb	r2, r3, r2
 510 00ce 1346     		mov	r3, r2
 511 00d0 4FEA8303 		lsl	r3, r3, #2
 512 00d4 1344     		add	r3, r3, r2
 513 00d6 4FEA4303 		lsl	r3, r3, #1
 514 00da C3EB0102 		rsb	r2, r3, r1
 515 00de 40F20003 		movw	r3, #:lower16:speed_buf_pos
 516 00e2 C0F20003 		movt	r3, #:upper16:speed_buf_pos
 517 00e6 1A60     		str	r2, [r3, #0]
  97:.\main.c      ****     if (speed_buf_pos == speed_buf_last_pos) { // this gets activated when speed_buf_pos has made o
 518              		.loc 1 97 0
 519 00e8 40F20003 		movw	r3, #:lower16:speed_buf_pos
 520 00ec C0F20003 		movt	r3, #:upper16:speed_buf_pos
ARM GAS  C:\Users\tjs8\AppData\Local\Temp\cchqEM3h.s 			page 12


 521 00f0 1A68     		ldr	r2, [r3, #0]
 522 00f2 40F20003 		movw	r3, #:lower16:speed_buf_last_pos
 523 00f6 C0F20003 		movt	r3, #:upper16:speed_buf_last_pos
 524 00fa 1B68     		ldr	r3, [r3, #0]
 525 00fc 9A42     		cmp	r2, r3
 526 00fe 1FD1     		bne	.L14
  98:.\main.c      ****         speed_buf_last_pos = (speed_buf_last_pos + 1) % SPEED_BUF_SIZE;
 527              		.loc 1 98 0
 528 0100 40F20003 		movw	r3, #:lower16:speed_buf_last_pos
 529 0104 C0F20003 		movt	r3, #:upper16:speed_buf_last_pos
 530 0108 1B68     		ldr	r3, [r3, #0]
 531 010a 03F10101 		add	r1, r3, #1
 532 010e 46F26763 		movw	r3, #:lower16:1717986919
 533 0112 C6F26663 		movt	r3, #:upper16:1717986919
 534 0116 83FB0123 		smull	r2, r3, r3, r1
 535 011a 4FEAA302 		asr	r2, r3, #2
 536 011e 4FEAE173 		asr	r3, r1, #31
 537 0122 C3EB0202 		rsb	r2, r3, r2
 538 0126 1346     		mov	r3, r2
 539 0128 4FEA8303 		lsl	r3, r3, #2
 540 012c 1344     		add	r3, r3, r2
 541 012e 4FEA4303 		lsl	r3, r3, #1
 542 0132 C3EB0102 		rsb	r2, r3, r1
 543 0136 40F20003 		movw	r3, #:lower16:speed_buf_last_pos
 544 013a C0F20003 		movt	r3, #:upper16:speed_buf_last_pos
 545 013e 1A60     		str	r2, [r3, #0]
 546              	.L14:
  99:.\main.c      ****     }
 100:.\main.c      ****     PID_integral /= 1.1;
 547              		.loc 1 100 0
 548 0140 40F20003 		movw	r3, #:lower16:PID_integral
 549 0144 C0F20003 		movt	r3, #:upper16:PID_integral
 550 0148 D3E90023 		ldrd	r2, [r3]
 551 014c 1046     		mov	r0, r2
 552 014e 1946     		mov	r1, r3
 553 0150 49A3     		adr	r3, .L16
 554 0152 D3E90023 		ldrd	r2, [r3]
 555 0156 FFF7FEFF 		bl	__aeabi_ddiv
 556 015a 0246     		mov	r2, r0
 557 015c 0B46     		mov	r3, r1
 558 015e 1046     		mov	r0, r2
 559 0160 1946     		mov	r1, r3
 560 0162 40F20003 		movw	r3, #:lower16:PID_integral
 561 0166 C0F20003 		movt	r3, #:upper16:PID_integral
 562 016a C3E90001 		strd	r0, [r3]
 101:.\main.c      ****     PID_integral += spd_error;
 563              		.loc 1 101 0
 564 016e 40F20003 		movw	r3, #:lower16:PID_integral
 565 0172 C0F20003 		movt	r3, #:upper16:PID_integral
 566 0176 D3E90023 		ldrd	r2, [r3]
 567 017a 1046     		mov	r0, r2
 568 017c 1946     		mov	r1, r3
 569 017e D7E90C23 		ldrd	r2, [r7, #48]
 570 0182 FFF7FEFF 		bl	__aeabi_dadd
 571 0186 0246     		mov	r2, r0
 572 0188 0B46     		mov	r3, r1
 573 018a 1046     		mov	r0, r2
ARM GAS  C:\Users\tjs8\AppData\Local\Temp\cchqEM3h.s 			page 13


 574 018c 1946     		mov	r1, r3
 575 018e 40F20003 		movw	r3, #:lower16:PID_integral
 576 0192 C0F20003 		movt	r3, #:upper16:PID_integral
 577 0196 C3E90001 		strd	r0, [r3]
 102:.\main.c      ****     
 103:.\main.c      ****     char str_buffer[35];
 104:.\main.c      ****     sprintf(str_buffer, "%6.2f, %6.2f, %6.2f, %6.5f\n", speed, spd_error, PID_integral, PID_deriv);
 578              		.loc 1 104 0
 579 019a 40F20003 		movw	r3, #:lower16:PID_integral
 580 019e C0F20003 		movt	r3, #:upper16:PID_integral
 581 01a2 D3E90023 		ldrd	r2, [r3]
 582 01a6 07F10C0C 		add	ip, r7, #12
 583 01aa D7E90C01 		ldrd	r0, [r7, #48]
 584 01ae CDE90001 		strd	r0, [sp]
 585 01b2 CDE90223 		strd	r2, [sp, #8]
 586 01b6 D7E90E23 		ldrd	r2, [r7, #56]
 587 01ba CDE90423 		strd	r2, [sp, #16]
 588 01be 6046     		mov	r0, ip
 589 01c0 40F20001 		movw	r1, #:lower16:.LC1
 590 01c4 C0F20001 		movt	r1, #:upper16:.LC1
 591 01c8 D7E90023 		ldrd	r2, [r7]
 592 01cc FFF7FEFF 		bl	sprintf
 105:.\main.c      ****     UART_1_PutString(str_buffer);
 593              		.loc 1 105 0
 594 01d0 07F10C03 		add	r3, r7, #12
 595 01d4 1846     		mov	r0, r3
 596 01d6 FFF7FEFF 		bl	UART_1_PutString
 106:.\main.c      ****     
 107:.\main.c      ****     return ss_throttle + (int) (spd_error * COEFF_P + PID_integral * COEFF_I - PID_deriv * COEFF_D)
 597              		.loc 1 107 0
 598 01da 40F20003 		movw	r3, #:lower16:COEFF_P
 599 01de C0F20003 		movt	r3, #:upper16:COEFF_P
 600 01e2 D3E90023 		ldrd	r2, [r3]
 601 01e6 1046     		mov	r0, r2
 602 01e8 1946     		mov	r1, r3
 603 01ea D7E90C23 		ldrd	r2, [r7, #48]
 604 01ee FFF7FEFF 		bl	__aeabi_dmul
 605 01f2 0246     		mov	r2, r0
 606 01f4 0B46     		mov	r3, r1
 607 01f6 1446     		mov	r4, r2
 608 01f8 1D46     		mov	r5, r3
 609 01fa 40F20003 		movw	r3, #:lower16:PID_integral
 610 01fe C0F20003 		movt	r3, #:upper16:PID_integral
 611 0202 D3E90001 		ldrd	r0, [r3]
 612 0206 40F20003 		movw	r3, #:lower16:COEFF_I
 613 020a C0F20003 		movt	r3, #:upper16:COEFF_I
 614 020e D3E90023 		ldrd	r2, [r3]
 615 0212 FFF7FEFF 		bl	__aeabi_dmul
 616 0216 0246     		mov	r2, r0
 617 0218 0B46     		mov	r3, r1
 618 021a 2046     		mov	r0, r4
 619 021c 2946     		mov	r1, r5
 620 021e FFF7FEFF 		bl	__aeabi_dadd
 621 0222 0246     		mov	r2, r0
 622 0224 0B46     		mov	r3, r1
 623 0226 1446     		mov	r4, r2
 624 0228 1D46     		mov	r5, r3
ARM GAS  C:\Users\tjs8\AppData\Local\Temp\cchqEM3h.s 			page 14


 625 022a 40F20003 		movw	r3, #:lower16:COEFF_D
 626 022e C0F20003 		movt	r3, #:upper16:COEFF_D
 627 0232 D3E90023 		ldrd	r2, [r3]
 628 0236 1046     		mov	r0, r2
 629 0238 1946     		mov	r1, r3
 630 023a D7E90E23 		ldrd	r2, [r7, #56]
 631 023e FFF7FEFF 		bl	__aeabi_dmul
 632 0242 0246     		mov	r2, r0
 633 0244 0B46     		mov	r3, r1
 634 0246 2046     		mov	r0, r4
 635 0248 2946     		mov	r1, r5
 636 024a FFF7FEFF 		bl	__aeabi_dsub
 637 024e 0246     		mov	r2, r0
 638 0250 0B46     		mov	r3, r1
 639 0252 1046     		mov	r0, r2
 640 0254 1946     		mov	r1, r3
 641 0256 FFF7FEFF 		bl	__aeabi_d2iz
 642 025a 0246     		mov	r2, r0
 643 025c 40F20003 		movw	r3, #:lower16:ss_throttle
 644 0260 C0F20003 		movt	r3, #:upper16:ss_throttle
 645 0264 1B68     		ldr	r3, [r3, #0]
 646 0266 1344     		add	r3, r2, r3
 108:.\main.c      **** }
 647              		.loc 1 108 0
 648 0268 1846     		mov	r0, r3
 649 026a 07F14007 		add	r7, r7, #64
 650 026e BD46     		mov	sp, r7
 651 0270 B0BD     		pop	{r4, r5, r7, pc}
 652              	.L17:
 653 0272 00BFAFF3 		.align	3
 653      0080
 654              	.L16:
 655 0278 9A999999 		.word	-1717986918
 656 027c 9999F13F 		.word	1072798105
 657              		.cfi_endproc
 658              	.LFE31:
 659              		.size	controlThrottle, .-controlThrottle
 660              		.section	.text.button_inter,"ax",%progbits
 661              		.align	2
 662              		.global	button_inter
 663              		.thumb
 664              		.thumb_func
 665              		.type	button_inter, %function
 666              	button_inter:
 667              	.LFB32:
 109:.\main.c      **** 
 110:.\main.c      **** /* Button interrupt */
 111:.\main.c      **** CY_ISR(button_inter) {
 668              		.loc 1 111 0
 669              		.cfi_startproc
 670              		@ args = 0, pretend = 0, frame = 0
 671              		@ frame_needed = 1, uses_anonymous_args = 0
 672              		@ link register save eliminated.
 673 0000 80B4     		push	{r7}
 674              	.LCFI9:
 675              		.cfi_def_cfa_offset 4
 676 0002 00AF     		add	r7, sp, #0
ARM GAS  C:\Users\tjs8\AppData\Local\Temp\cchqEM3h.s 			page 15


 677              		.cfi_offset 7, -4
 678              	.LCFI10:
 679              		.cfi_def_cfa_register 7
 112:.\main.c      ****     buttonInterrupted = 1;
 680              		.loc 1 112 0
 681 0004 40F20003 		movw	r3, #:lower16:buttonInterrupted
 682 0008 C0F20003 		movt	r3, #:upper16:buttonInterrupted
 683 000c 4FF00102 		mov	r2, #1
 684 0010 1A60     		str	r2, [r3, #0]
 113:.\main.c      **** }
 685              		.loc 1 113 0
 686 0012 BD46     		mov	sp, r7
 687 0014 80BC     		pop	{r7}
 688 0016 7047     		bx	lr
 689              		.cfi_endproc
 690              	.LFE32:
 691              		.size	button_inter, .-button_inter
 692              		.section	.text.rx_inter,"ax",%progbits
 693              		.align	2
 694              		.global	rx_inter
 695              		.thumb
 696              		.thumb_func
 697              		.type	rx_inter, %function
 698              	rx_inter:
 699              	.LFB33:
 114:.\main.c      **** 
 115:.\main.c      **** /* Recieved data interrupt */
 116:.\main.c      **** CY_ISR(rx_inter) {
 700              		.loc 1 116 0
 701              		.cfi_startproc
 702              		@ args = 0, pretend = 0, frame = 0
 703              		@ frame_needed = 1, uses_anonymous_args = 0
 704              		@ link register save eliminated.
 705 0000 80B4     		push	{r7}
 706              	.LCFI11:
 707              		.cfi_def_cfa_offset 4
 708 0002 00AF     		add	r7, sp, #0
 709              		.cfi_offset 7, -4
 710              	.LCFI12:
 711              		.cfi_def_cfa_register 7
 117:.\main.c      ****     rxInterrupted = 1;
 712              		.loc 1 117 0
 713 0004 40F20003 		movw	r3, #:lower16:rxInterrupted
 714 0008 C0F20003 		movt	r3, #:upper16:rxInterrupted
 715 000c 4FF00102 		mov	r2, #1
 716 0010 1A60     		str	r2, [r3, #0]
 118:.\main.c      **** }
 717              		.loc 1 118 0
 718 0012 BD46     		mov	sp, r7
 719 0014 80BC     		pop	{r7}
 720 0016 7047     		bx	lr
 721              		.cfi_endproc
 722              	.LFE33:
 723              		.size	rx_inter, .-rx_inter
 724              		.section	.text.wheel_inter,"ax",%progbits
 725              		.align	2
 726              		.global	wheel_inter
ARM GAS  C:\Users\tjs8\AppData\Local\Temp\cchqEM3h.s 			page 16


 727              		.thumb
 728              		.thumb_func
 729              		.type	wheel_inter, %function
 730              	wheel_inter:
 731              	.LFB34:
 119:.\main.c      **** 
 120:.\main.c      **** /* Wheel tick interrupt */
 121:.\main.c      **** CY_ISR(wheel_inter) {
 732              		.loc 1 121 0
 733              		.cfi_startproc
 734              		@ args = 0, pretend = 0, frame = 0
 735              		@ frame_needed = 1, uses_anonymous_args = 0
 736              		@ link register save eliminated.
 737 0000 80B4     		push	{r7}
 738              	.LCFI13:
 739              		.cfi_def_cfa_offset 4
 740 0002 00AF     		add	r7, sp, #0
 741              		.cfi_offset 7, -4
 742              	.LCFI14:
 743              		.cfi_def_cfa_register 7
 122:.\main.c      ****     wheelTickInterrupted = 1;
 744              		.loc 1 122 0
 745 0004 40F20003 		movw	r3, #:lower16:wheelTickInterrupted
 746 0008 C0F20003 		movt	r3, #:upper16:wheelTickInterrupted
 747 000c 4FF00102 		mov	r2, #1
 748 0010 1A60     		str	r2, [r3, #0]
 123:.\main.c      **** }
 749              		.loc 1 123 0
 750 0012 BD46     		mov	sp, r7
 751 0014 80BC     		pop	{r7}
 752 0016 7047     		bx	lr
 753              		.cfi_endproc
 754              	.LFE34:
 755              		.size	wheel_inter, .-wheel_inter
 756              		.section	.text.timeout_inter,"ax",%progbits
 757              		.align	2
 758              		.global	timeout_inter
 759              		.thumb
 760              		.thumb_func
 761              		.type	timeout_inter, %function
 762              	timeout_inter:
 763              	.LFB35:
 124:.\main.c      **** 
 125:.\main.c      **** /* Wheel tick timeout interrupt */
 126:.\main.c      **** CY_ISR(timeout_inter) {
 764              		.loc 1 126 0
 765              		.cfi_startproc
 766              		@ args = 0, pretend = 0, frame = 0
 767              		@ frame_needed = 1, uses_anonymous_args = 0
 768              		@ link register save eliminated.
 769 0000 80B4     		push	{r7}
 770              	.LCFI15:
 771              		.cfi_def_cfa_offset 4
 772 0002 00AF     		add	r7, sp, #0
 773              		.cfi_offset 7, -4
 774              	.LCFI16:
 775              		.cfi_def_cfa_register 7
ARM GAS  C:\Users\tjs8\AppData\Local\Temp\cchqEM3h.s 			page 17


 127:.\main.c      ****     tickTimeoutInterrupted = 1;
 776              		.loc 1 127 0
 777 0004 40F20003 		movw	r3, #:lower16:tickTimeoutInterrupted
 778 0008 C0F20003 		movt	r3, #:upper16:tickTimeoutInterrupted
 779 000c 4FF00102 		mov	r2, #1
 780 0010 1A60     		str	r2, [r3, #0]
 128:.\main.c      **** }
 781              		.loc 1 128 0
 782 0012 BD46     		mov	sp, r7
 783 0014 80BC     		pop	{r7}
 784 0016 7047     		bx	lr
 785              		.cfi_endproc
 786              	.LFE35:
 787              		.size	timeout_inter, .-timeout_inter
 788              		.section	.text.throttle_inter,"ax",%progbits
 789              		.align	2
 790              		.global	throttle_inter
 791              		.thumb
 792              		.thumb_func
 793              		.type	throttle_inter, %function
 794              	throttle_inter:
 795              	.LFB36:
 129:.\main.c      **** 
 130:.\main.c      **** /* Throttle update timeout interrupt */
 131:.\main.c      **** CY_ISR(throttle_inter) {
 796              		.loc 1 131 0
 797              		.cfi_startproc
 798              		@ args = 0, pretend = 0, frame = 0
 799              		@ frame_needed = 1, uses_anonymous_args = 0
 800              		@ link register save eliminated.
 801 0000 80B4     		push	{r7}
 802              	.LCFI17:
 803              		.cfi_def_cfa_offset 4
 804 0002 00AF     		add	r7, sp, #0
 805              		.cfi_offset 7, -4
 806              	.LCFI18:
 807              		.cfi_def_cfa_register 7
 132:.\main.c      ****     throttleUpdateInterrupted = 1;
 808              		.loc 1 132 0
 809 0004 40F20003 		movw	r3, #:lower16:throttleUpdateInterrupted
 810 0008 C0F20003 		movt	r3, #:upper16:throttleUpdateInterrupted
 811 000c 4FF00102 		mov	r2, #1
 812 0010 1A60     		str	r2, [r3, #0]
 133:.\main.c      **** }
 813              		.loc 1 133 0
 814 0012 BD46     		mov	sp, r7
 815 0014 80BC     		pop	{r7}
 816 0016 7047     		bx	lr
 817              		.cfi_endproc
 818              	.LFE36:
 819              		.size	throttle_inter, .-throttle_inter
 820              		.section	.rodata
 821              		.align	2
 822              	.LC2:
 823 0040 21204275 		.ascii	"! Buffer Overwrite !\000"
 823      66666572 
 823      204F7665 
ARM GAS  C:\Users\tjs8\AppData\Local\Temp\cchqEM3h.s 			page 18


 823      72777269 
 823      74652021 
 824 0055 000000   		.align	2
 825              	.LC3:
 826 0058 21204275 		.ascii	"! Buffer Overflow !\000"
 826      66666572 
 826      204F7665 
 826      72666C6F 
 826      77202100 
 827              		.align	2
 828              	.LC4:
 829 006c 5468726F 		.ascii	"Throttle: %d\012Speed: %f ft/s\012P = %.2f\011I = %"
 829      74746C65 
 829      3A202564 
 829      0A537065 
 829      65643A20 
 830 0096 2E326609 		.ascii	".2f\011D = %.2f\012\000"
 830      44203D20 
 830      252E3266 
 830      0A00
 831              		.align	2
 832              	.LC5:
 833 00a4 50494420 		.ascii	"PID control on\012\000"
 833      636F6E74 
 833      726F6C20 
 833      6F6E0A00 
 834              		.align	2
 835              	.LC6:
 836 00b4 50494420 		.ascii	"PID control off\012\000"
 836      636F6E74 
 836      726F6C20 
 836      6F66660A 
 836      00
 837 00c5 000000   		.align	2
 838              	.LC7:
 839 00c8 50203D20 		.ascii	"P = %.2f\012\000"
 839      252E3266 
 839      0A00
 840 00d2 0000     		.align	2
 841              	.LC8:
 842 00d4 49203D20 		.ascii	"I = %.2f\012\000"
 842      252E3266 
 842      0A00
 843 00de 0000     		.align	2
 844              	.LC9:
 845 00e0 44203D20 		.ascii	"D = %.2f\012\000"
 845      252E3266 
 845      0A00
 846 00ea 0000     		.align	2
 847              	.LC10:
 848 00ec 41626F72 		.ascii	"Aborted!\012\000"
 848      74656421 
 848      0A00
 849 00f6 0000     		.align	2
 850              	.LC11:
 851 00f8 57686565 		.ascii	"Wheel timeout\012\000"
 851      6C207469 
ARM GAS  C:\Users\tjs8\AppData\Local\Temp\cchqEM3h.s 			page 19


 851      6D656F75 
 851      740A00
 852 0107 00       		.section	.text.main,"ax",%progbits
 853              		.align	2
 854              		.global	main
 855              		.thumb
 856              		.thumb_func
 857              		.type	main, %function
 858              	main:
 859              	.LFB37:
 134:.\main.c      **** 
 135:.\main.c      **** int main() {
 860              		.loc 1 135 0
 861              		.cfi_startproc
 862              		@ args = 0, pretend = 0, frame = 160
 863              		@ frame_needed = 1, uses_anonymous_args = 0
 864 0000 2DE9F043 		push	{r4, r5, r6, r7, r8, r9, lr}
 865              	.LCFI19:
 866              		.cfi_def_cfa_offset 28
 867 0004 B1B0     		sub	sp, sp, #196
 868              	.LCFI20:
 869              		.cfi_def_cfa_offset 224
 870 0006 08AF     		add	r7, sp, #32
 871              		.cfi_offset 14, -4
 872              		.cfi_offset 9, -8
 873              		.cfi_offset 8, -12
 874              		.cfi_offset 7, -16
 875              		.cfi_offset 6, -20
 876              		.cfi_offset 5, -24
 877              		.cfi_offset 4, -28
 878              	.LCFI21:
 879              		.cfi_def_cfa 7, 192
 136:.\main.c      ****     /* Initialization */
 137:.\main.c      ****     CyGlobalIntEnable; // Enable global interrupts
 880              		.loc 1 137 0
 881              	@ 137 ".\main.c" 1
 882 0008 62B6     		CPSIE   i
 883              	@ 0 "" 2
 138:.\main.c      ****     
 139:.\main.c      ****     LCD_Start();
 884              		.loc 1 139 0
 885              		.thumb
 886 000a FFF7FEFF 		bl	LCD_Start
 140:.\main.c      ****     inter_button_Start();
 887              		.loc 1 140 0
 888 000e FFF7FEFF 		bl	inter_button_Start
 141:.\main.c      ****     inter_button_SetVector(button_inter);
 889              		.loc 1 141 0
 890 0012 40F20000 		movw	r0, #:lower16:button_inter
 891 0016 C0F20000 		movt	r0, #:upper16:button_inter
 892 001a FFF7FEFF 		bl	inter_button_SetVector
 142:.\main.c      ****     PWM_Start();
 893              		.loc 1 142 0
 894 001e FFF7FEFF 		bl	PWM_Start
 143:.\main.c      ****     
 144:.\main.c      ****     UART_1_Start();
 895              		.loc 1 144 0
ARM GAS  C:\Users\tjs8\AppData\Local\Temp\cchqEM3h.s 			page 20


 896 0022 FFF7FEFF 		bl	UART_1_Start
 145:.\main.c      ****     rx_rcvd_Start();
 897              		.loc 1 145 0
 898 0026 FFF7FEFF 		bl	rx_rcvd_Start
 146:.\main.c      ****     rx_rcvd_SetVector(rx_inter);
 899              		.loc 1 146 0
 900 002a 40F20000 		movw	r0, #:lower16:rx_inter
 901 002e C0F20000 		movt	r0, #:upper16:rx_inter
 902 0032 FFF7FEFF 		bl	rx_rcvd_SetVector
 147:.\main.c      ****     
 148:.\main.c      ****     Timer_1_Start();
 903              		.loc 1 148 0
 904 0036 FFF7FEFF 		bl	Timer_1_Start
 149:.\main.c      ****     wheel_tick_Start();
 905              		.loc 1 149 0
 906 003a FFF7FEFF 		bl	wheel_tick_Start
 150:.\main.c      ****     wheel_tick_SetVector(wheel_inter);
 907              		.loc 1 150 0
 908 003e 40F20000 		movw	r0, #:lower16:wheel_inter
 909 0042 C0F20000 		movt	r0, #:upper16:wheel_inter
 910 0046 FFF7FEFF 		bl	wheel_tick_SetVector
 151:.\main.c      ****     
 152:.\main.c      ****     Counter_1_Start();
 911              		.loc 1 152 0
 912 004a FFF7FEFF 		bl	Counter_1_Start
 153:.\main.c      ****     ShiftReg_1_Start();
 913              		.loc 1 153 0
 914 004e FFF7FEFF 		bl	ShiftReg_1_Start
 154:.\main.c      ****     tick_timeout_Start();
 915              		.loc 1 154 0
 916 0052 FFF7FEFF 		bl	tick_timeout_Start
 155:.\main.c      ****     tick_timeout_SetVector(timeout_inter);
 917              		.loc 1 155 0
 918 0056 40F20000 		movw	r0, #:lower16:timeout_inter
 919 005a C0F20000 		movt	r0, #:upper16:timeout_inter
 920 005e FFF7FEFF 		bl	tick_timeout_SetVector
 156:.\main.c      ****     
 157:.\main.c      ****     Counter_2_Start();
 921              		.loc 1 157 0
 922 0062 FFF7FEFF 		bl	Counter_2_Start
 158:.\main.c      ****     throttle_update_Start();
 923              		.loc 1 158 0
 924 0066 FFF7FEFF 		bl	throttle_update_Start
 159:.\main.c      ****     throttle_update_SetVector(throttle_inter);
 925              		.loc 1 159 0
 926 006a 40F20000 		movw	r0, #:lower16:throttle_inter
 927 006e C0F20000 		movt	r0, #:upper16:throttle_inter
 928 0072 FFF7FEFF 		bl	throttle_update_SetVector
 160:.\main.c      ****     
 161:.\main.c      ****     throttle = 0;
 929              		.loc 1 161 0
 930 0076 40F20003 		movw	r3, #:lower16:throttle
 931 007a C0F20003 		movt	r3, #:upper16:throttle
 932 007e 4FF00002 		mov	r2, #0
 933 0082 1A60     		str	r2, [r3, #0]
 162:.\main.c      ****     PWM_WriteCompare(throttle);
 934              		.loc 1 162 0
ARM GAS  C:\Users\tjs8\AppData\Local\Temp\cchqEM3h.s 			page 21


 935 0084 40F20003 		movw	r3, #:lower16:throttle
 936 0088 C0F20003 		movt	r3, #:upper16:throttle
 937 008c 1B68     		ldr	r3, [r3, #0]
 938 008e 9BB2     		uxth	r3, r3
 939 0090 1846     		mov	r0, r3
 940 0092 FFF7FEFF 		bl	PWM_WriteCompare
 163:.\main.c      ****     
 164:.\main.c      ****     // LCD initial text
 165:.\main.c      ****     LCD_Position(0, 0);
 941              		.loc 1 165 0
 942 0096 4FF00000 		mov	r0, #0
 943 009a 4FF00001 		mov	r1, #0
 944 009e FFF7FEFF 		bl	LCD_Position
 166:.\main.c      ****     LCD_PrintString(buildVersion);
 945              		.loc 1 166 0
 946 00a2 40F20000 		movw	r0, #:lower16:buildVersion
 947 00a6 C0F20000 		movt	r0, #:upper16:buildVersion
 948 00aa FFF7FEFF 		bl	LCD_PrintString
 167:.\main.c      ****     
 168:.\main.c      ****     // Init RX buffer
 169:.\main.c      ****     int i;
 170:.\main.c      ****     for (i = 0; i < RX_BUF_SIZE; i++) rx_buf[i] = 0;
 949              		.loc 1 170 0
 950 00ae 4FF00003 		mov	r3, #0
 951 00b2 C7F89030 		str	r3, [r7, #144]
 952 00b6 0EE0     		b	.L29
 953              	.L30:
 954 00b8 D7F89020 		ldr	r2, [r7, #144]
 955 00bc 40F20003 		movw	r3, #:lower16:rx_buf
 956 00c0 C0F20003 		movt	r3, #:upper16:rx_buf
 957 00c4 4FF00001 		mov	r1, #0
 958 00c8 9954     		strb	r1, [r3, r2]
 959 00ca D7F89030 		ldr	r3, [r7, #144]
 960 00ce 03F10103 		add	r3, r3, #1
 961 00d2 C7F89030 		str	r3, [r7, #144]
 962              	.L29:
 963 00d6 D7F89030 		ldr	r3, [r7, #144]
 964 00da 632B     		cmp	r3, #99
 965 00dc ECDD     		ble	.L30
 171:.\main.c      ****     
 172:.\main.c      ****     // Init wheel tick buffer
 173:.\main.c      ****     for (i = 0; i < WHEEL_TICK_BUF_SIZE; i++) wheel_tick_buf[i] = 0;
 966              		.loc 1 173 0
 967 00de 4FF00003 		mov	r3, #0
 968 00e2 C7F89030 		str	r3, [r7, #144]
 969 00e6 0FE0     		b	.L31
 970              	.L32:
 971 00e8 D7F89020 		ldr	r2, [r7, #144]
 972 00ec 40F20003 		movw	r3, #:lower16:wheel_tick_buf
 973 00f0 C0F20003 		movt	r3, #:upper16:wheel_tick_buf
 974 00f4 4FF00001 		mov	r1, #0
 975 00f8 43F82210 		str	r1, [r3, r2, lsl #2]
 976 00fc D7F89030 		ldr	r3, [r7, #144]
 977 0100 03F10103 		add	r3, r3, #1
 978 0104 C7F89030 		str	r3, [r7, #144]
 979              	.L31:
 980 0108 D7F89030 		ldr	r3, [r7, #144]
ARM GAS  C:\Users\tjs8\AppData\Local\Temp\cchqEM3h.s 			page 22


 981 010c 022B     		cmp	r3, #2
 982 010e EBDD     		ble	.L32
 174:.\main.c      ****     
 175:.\main.c      ****     // Init speed buffer
 176:.\main.c      ****     for (i = 0; i < SPEED_BUF_SIZE; i++) speed_buf[i] = 0.0;
 983              		.loc 1 176 0
 984 0110 4FF00003 		mov	r3, #0
 985 0114 C7F89030 		str	r3, [r7, #144]
 986 0118 15E0     		b	.L33
 987              	.L34:
 988 011a D7F89020 		ldr	r2, [r7, #144]
 989 011e 40F20003 		movw	r3, #:lower16:speed_buf
 990 0122 C0F20003 		movt	r3, #:upper16:speed_buf
 991 0126 4FEAC202 		lsl	r2, r2, #3
 992 012a 02EB0301 		add	r1, r2, r3
 993 012e 4FF00002 		mov	r2, #0
 994 0132 4FF00003 		mov	r3, #0
 995 0136 C1E90023 		strd	r2, [r1]
 996 013a D7F89030 		ldr	r3, [r7, #144]
 997 013e 03F10103 		add	r3, r3, #1
 998 0142 C7F89030 		str	r3, [r7, #144]
 999              	.L33:
 1000 0146 D7F89030 		ldr	r3, [r7, #144]
 1001 014a 092B     		cmp	r3, #9
 1002 014c E5DD     		ble	.L34
 1003 014e 02E0     		b	.L73
 1004              	.L75:
 177:.\main.c      ****     
 178:.\main.c      ****     for(;;)
 179:.\main.c      ****     {
 180:.\main.c      ****         /* Place your application code here. */
 181:.\main.c      ****         if (buttonInterrupted) {
 182:.\main.c      ****             if (throttle == 0) setThrottle(40);
 183:.\main.c      ****             else setThrottle(0);
 184:.\main.c      ****             buttonInterrupted = 0;
 185:.\main.c      ****         }
 186:.\main.c      ****         
 187:.\main.c      ****         // Handle incoming serial data
 188:.\main.c      ****         if (rxInterrupted) {
 189:.\main.c      ****             if (msgReceived) {
 190:.\main.c      ****                 UART_1_PutString("! Buffer Overwrite !");
 191:.\main.c      ****             } else {
 192:.\main.c      ****                 recByte = UART_1_GetChar();
 193:.\main.c      ****                 if (recByte == 0xA || recByte == 0xD || recByte == 0x4) {
 194:.\main.c      ****                     msgReceived = 1;
 195:.\main.c      ****                     UART_1_PutChar('$');
 196:.\main.c      ****                     UART_1_PutChar(recByte);
 197:.\main.c      ****                 } else if (recByte > 0) {
 198:.\main.c      ****                     if (rx_buf_pos == RX_BUF_SIZE) {
 199:.\main.c      ****                         msgReceived = 1;
 200:.\main.c      ****                         UART_1_PutString("! Buffer Overflow !");
 201:.\main.c      ****                     } else {
 202:.\main.c      ****                         rx_buf[rx_buf_pos] = recByte;
 203:.\main.c      ****                         rx_buf_pos++;
 204:.\main.c      ****                         UART_1_PutChar(recByte);
 205:.\main.c      ****                     }
 206:.\main.c      ****                 } else {
ARM GAS  C:\Users\tjs8\AppData\Local\Temp\cchqEM3h.s 			page 23


 207:.\main.c      ****                     UART_1_PutChar('!');
 208:.\main.c      ****                 }
 209:.\main.c      ****                 rxInterrupted = 0;
 210:.\main.c      ****             }
 211:.\main.c      ****         }
 212:.\main.c      ****         
 213:.\main.c      ****         // Parse received strings
 214:.\main.c      ****         if (msgReceived) {
 215:.\main.c      ****             // Messages of the form "Sxx" set the duty cycle to xx out of MAX_THROTTLE
 216:.\main.c      ****             if (rx_buf[0] == 'S' && rx_buf[1] != 'S') {
 217:.\main.c      ****                 int thr = 0; // kill throttle unless input is valid
 218:.\main.c      ****                 if ('0' <= rx_buf[1] && rx_buf[1] <= '9' && '0' <= rx_buf[2] && rx_buf[2] <= '9' &&
 219:.\main.c      ****                     thr = 100*(rx_buf[1]-'0') + 10*(rx_buf[2]-'0') + (rx_buf[3]-'0');
 220:.\main.c      ****                 }
 221:.\main.c      ****                 setThrottle(thr);
 222:.\main.c      ****             }
 223:.\main.c      ****             
 224:.\main.c      ****             // Messages of the form "G" return the speed of the car and PID controls
 225:.\main.c      ****             if (rx_buf[0] == 'G') {
 226:.\main.c      ****                 char strbuffer[80];
 227:.\main.c      ****                 sprintf(strbuffer, "Throttle: %d\nSpeed: %f ft/s\nP = %.2f\tI = %.2f\tD = %.2f\n", 
 228:.\main.c      ****                 UART_1_PutString(strbuffer);
 229:.\main.c      ****             }
 230:.\main.c      ****             
 231:.\main.c      ****             // Messages of the form "T" toggle PID control
 232:.\main.c      ****             if (rx_buf[0] == 'T') {
 233:.\main.c      ****                 throttlePIDon = throttlePIDon ? 0 : 1;
 234:.\main.c      ****                 if (throttlePIDon) {
 235:.\main.c      ****                     throttleUpdateInterrupted = 1;
 236:.\main.c      ****                     UART_1_PutString("PID control on\n");
 237:.\main.c      ****                 } else {
 238:.\main.c      ****                     throttleUpdateInterrupted = 0;
 239:.\main.c      ****                     UART_1_PutString("PID control off\n");
 240:.\main.c      ****                 }
 241:.\main.c      ****             }
 242:.\main.c      ****             
 243:.\main.c      ****             // Messages of the form "P" change the proportional term to value
 244:.\main.c      ****             if (rx_buf[0] == 'P') {
 245:.\main.c      ****                 if ('0' <= rx_buf[1] && rx_buf[1] <= '9' && '0' <= rx_buf[2] && rx_buf[2] <= '9' &&
 246:.\main.c      ****                     COEFF_P = 100*(rx_buf[1]-'0') + 10*(rx_buf[2]-'0') + (rx_buf[3]-'0');
 247:.\main.c      ****                 }
 248:.\main.c      ****                 char strbuffer[15];
 249:.\main.c      ****                 sprintf(strbuffer, "P = %.2f\n", COEFF_P);
 250:.\main.c      ****                 UART_1_PutString(strbuffer);
 251:.\main.c      ****             }
 252:.\main.c      ****             
 253:.\main.c      ****             // Messages of the form "I" change the integral term to value / 10
 254:.\main.c      ****             if (rx_buf[0] == 'I') {
 255:.\main.c      ****                 if ('0' <= rx_buf[1] && rx_buf[1] <= '9' && '0' <= rx_buf[2] && rx_buf[2] <= '9' &&
 256:.\main.c      ****                     COEFF_I = 100*(rx_buf[1]-'0') + 10*(rx_buf[2]-'0') + (rx_buf[3]-'0');
 257:.\main.c      ****                     COEFF_I /= 10;
 258:.\main.c      ****                 }
 259:.\main.c      ****                 char strbuffer[15];
 260:.\main.c      ****                 sprintf(strbuffer, "I = %.2f\n", COEFF_I);
 261:.\main.c      ****                 UART_1_PutString(strbuffer);
 262:.\main.c      ****             }
 263:.\main.c      ****             
ARM GAS  C:\Users\tjs8\AppData\Local\Temp\cchqEM3h.s 			page 24


 264:.\main.c      ****             // Messages of the form "D" change the derivative term
 265:.\main.c      ****             if (rx_buf[0] == 'D') {
 266:.\main.c      ****                 if ('0' <= rx_buf[1] && rx_buf[1] <= '9' && '0' <= rx_buf[2] && rx_buf[2] <= '9' &&
 267:.\main.c      ****                     COEFF_D = 100*(rx_buf[1]-'0') + 10*(rx_buf[2]-'0') + (rx_buf[3]-'0');
 268:.\main.c      ****                 }
 269:.\main.c      ****                 char strbuffer[15];
 270:.\main.c      ****                 sprintf(strbuffer, "D = %.2f\n", COEFF_D);
 271:.\main.c      ****                 UART_1_PutString(strbuffer);
 272:.\main.c      ****             }
 273:.\main.c      ****             
 274:.\main.c      ****             // Message with "A" will abort
 275:.\main.c      ****             if (rx_buf[0] == 'A') {
 276:.\main.c      ****                 setThrottle(0);
 277:.\main.c      ****                 throttlePIDon = 0;
 278:.\main.c      ****                 throttleUpdateInterrupted = 0;
 279:.\main.c      ****                 UART_1_PutString("Aborted!\n");
 280:.\main.c      ****             }
 281:.\main.c      ****             
 282:.\main.c      ****             // Message with "SS" will change steady state throttle
 283:.\main.c      ****             if (rx_buf[0] == 'S' && rx_buf[1] == 'S') {
 284:.\main.c      ****                 if ('0' <= rx_buf[2] && rx_buf[2] <= '9' && '0' <= rx_buf[3] && rx_buf[3] <= '9' &&
 285:.\main.c      ****                     COEFF_D = 100*(rx_buf[2]-'0') + 10*(rx_buf[3]-'0') + (rx_buf[4]-'0');
 286:.\main.c      ****                 }
 287:.\main.c      ****                 char strbuffer[15];
 288:.\main.c      ****                 sprintf(strbuffer, "D = %.2f\n", COEFF_D);
 289:.\main.c      ****                 UART_1_PutString(strbuffer);
 290:.\main.c      ****             }
 291:.\main.c      ****             
 292:.\main.c      ****             // Reset buffer
 293:.\main.c      ****             for (i = 0; i < rx_buf_pos; i++) rx_buf[i] = 0;
 294:.\main.c      ****             rx_buf_pos = 0;
 295:.\main.c      ****             msgReceived = 0;
 296:.\main.c      ****         }
 297:.\main.c      ****         
 298:.\main.c      ****         // Handle wheel ticks
 299:.\main.c      ****         if (wheelTickInterrupted) {
 300:.\main.c      ****             // int tickCount = Counter_1_ReadCapture();
 301:.\main.c      ****             int tickCount = Timer_1_ReadCapture();
 302:.\main.c      ****             int tickDelta = oldTickCount - tickCount;
 303:.\main.c      ****             
 304:.\main.c      ****             tickDelta = tickDelta < 0 ? TIMER_PERIOD + tickDelta : tickDelta;
 305:.\main.c      ****             wheel_tick_buf[wheel_tick_buf_pos] = tickDelta;
 306:.\main.c      ****             
 307:.\main.c      **** //            char strbuffer[15];
 308:.\main.c      **** //            sprintf(strbuffer, "Count: %i\n", tickCount);
 309:.\main.c      **** //            UART_1_PutString(strbuffer);
 310:.\main.c      **** //            sprintf(strbuffer, "Old Count: %i\n", oldTickCount);
 311:.\main.c      **** //            UART_1_PutString(strbuffer);
 312:.\main.c      **** //            sprintf(strbuffer, "Delta: %i\n\n", tickDelta);
 313:.\main.c      **** //            UART_1_PutString(strbuffer);
 314:.\main.c      ****             
 315:.\main.c      ****             wheel_tick_buf_pos = (wheel_tick_buf_pos + 1) % WHEEL_TICK_BUF_SIZE;
 316:.\main.c      ****             if (wheel_tick_buf_cur_size < WHEEL_TICK_BUF_SIZE) wheel_tick_buf_cur_size++;
 317:.\main.c      ****             oldTickCount = tickCount;
 318:.\main.c      ****             wheelTickInterrupted = 0;
 319:.\main.c      ****         }
 320:.\main.c      ****         
ARM GAS  C:\Users\tjs8\AppData\Local\Temp\cchqEM3h.s 			page 25


 321:.\main.c      ****         // Handle wheel tick timeout
 322:.\main.c      ****         if (tickTimeoutInterrupted) {
 323:.\main.c      ****             UART_1_PutString("Wheel timeout\n");
 324:.\main.c      ****             // Clear wheel tick buffer
 325:.\main.c      ****             wheel_tick_buf_pos = 0;
 326:.\main.c      ****             wheel_tick_buf_cur_size = 0;
 327:.\main.c      ****             for (i = 0; i < WHEEL_TICK_BUF_SIZE; i++) wheel_tick_buf[i] = 0;
 328:.\main.c      ****             // Clear speed buffer
 329:.\main.c      ****             speed_buf_pos = 0;
 330:.\main.c      ****             speed_buf_last_pos = 0;
 331:.\main.c      ****             for (i = 0; i < SPEED_BUF_SIZE; i++) speed_buf[i] = 0.0;
 332:.\main.c      ****             
 333:.\main.c      ****             tickTimeoutInterrupted = 0;
 334:.\main.c      ****         }
 335:.\main.c      ****             
 336:.\main.c      ****         
 337:.\main.c      ****         // Perform PID update
 338:.\main.c      ****         if (throttlePIDon && throttleUpdateInterrupted) {
 339:.\main.c      ****             setThrottle(controlThrottle(getSpeed()));
 340:.\main.c      ****             throttleUpdateInterrupted = 0;
 341:.\main.c      ****         }
 342:.\main.c      ****             
 343:.\main.c      ****     }
 1005              		.loc 1 343 0
 1006 0150 00BF     		nop
 1007 0152 00E0     		b	.L73
 1008              	.L76:
 1009 0154 00BF     		nop
 1010              	.L73:
 1011              		.loc 1 181 0
 1012 0156 40F20003 		movw	r3, #:lower16:buttonInterrupted
 1013 015a C0F20003 		movt	r3, #:upper16:buttonInterrupted
 1014 015e 1B68     		ldr	r3, [r3, #0]
 1015 0160 002B     		cmp	r3, #0
 1016 0162 16D0     		beq	.L35
 1017              		.loc 1 182 0
 1018 0164 40F20003 		movw	r3, #:lower16:throttle
 1019 0168 C0F20003 		movt	r3, #:upper16:throttle
 1020 016c 1B68     		ldr	r3, [r3, #0]
 1021 016e 002B     		cmp	r3, #0
 1022 0170 04D1     		bne	.L36
 1023 0172 4FF02800 		mov	r0, #40
 1024 0176 FFF7FEFF 		bl	setThrottle
 1025 017a 03E0     		b	.L37
 1026              	.L36:
 1027              		.loc 1 183 0
 1028 017c 4FF00000 		mov	r0, #0
 1029 0180 FFF7FEFF 		bl	setThrottle
 1030              	.L37:
 1031              		.loc 1 184 0
 1032 0184 40F20003 		movw	r3, #:lower16:buttonInterrupted
 1033 0188 C0F20003 		movt	r3, #:upper16:buttonInterrupted
 1034 018c 4FF00002 		mov	r2, #0
 1035 0190 1A60     		str	r2, [r3, #0]
 1036              	.L35:
 1037              		.loc 1 188 0
 1038 0192 40F20003 		movw	r3, #:lower16:rxInterrupted
ARM GAS  C:\Users\tjs8\AppData\Local\Temp\cchqEM3h.s 			page 26


 1039 0196 C0F20003 		movt	r3, #:upper16:rxInterrupted
 1040 019a 1B68     		ldr	r3, [r3, #0]
 1041 019c 002B     		cmp	r3, #0
 1042 019e 00F08B80 		beq	.L38
 1043              		.loc 1 189 0
 1044 01a2 40F20003 		movw	r3, #:lower16:msgReceived
 1045 01a6 C0F20003 		movt	r3, #:upper16:msgReceived
 1046 01aa 1B68     		ldr	r3, [r3, #0]
 1047 01ac 002B     		cmp	r3, #0
 1048 01ae 06D0     		beq	.L39
 1049              		.loc 1 190 0
 1050 01b0 40F20000 		movw	r0, #:lower16:.LC2
 1051 01b4 C0F20000 		movt	r0, #:upper16:.LC2
 1052 01b8 FFF7FEFF 		bl	UART_1_PutString
 1053 01bc 7CE0     		b	.L38
 1054              	.L39:
 1055              		.loc 1 192 0
 1056 01be FFF7FEFF 		bl	UART_1_GetChar
 1057 01c2 0346     		mov	r3, r0
 1058 01c4 1A46     		mov	r2, r3
 1059 01c6 40F20003 		movw	r3, #:lower16:recByte
 1060 01ca C0F20003 		movt	r3, #:upper16:recByte
 1061 01ce 1A70     		strb	r2, [r3, #0]
 1062              		.loc 1 193 0
 1063 01d0 40F20003 		movw	r3, #:lower16:recByte
 1064 01d4 C0F20003 		movt	r3, #:upper16:recByte
 1065 01d8 1B78     		ldrb	r3, [r3, #0]	@ zero_extendqisi2
 1066 01da 0A2B     		cmp	r3, #10
 1067 01dc 0DD0     		beq	.L40
 1068 01de 40F20003 		movw	r3, #:lower16:recByte
 1069 01e2 C0F20003 		movt	r3, #:upper16:recByte
 1070 01e6 1B78     		ldrb	r3, [r3, #0]	@ zero_extendqisi2
 1071 01e8 0D2B     		cmp	r3, #13
 1072 01ea 06D0     		beq	.L40
 1073 01ec 40F20003 		movw	r3, #:lower16:recByte
 1074 01f0 C0F20003 		movt	r3, #:upper16:recByte
 1075 01f4 1B78     		ldrb	r3, [r3, #0]	@ zero_extendqisi2
 1076 01f6 042B     		cmp	r3, #4
 1077 01f8 13D1     		bne	.L41
 1078              	.L40:
 1079              		.loc 1 194 0
 1080 01fa 40F20003 		movw	r3, #:lower16:msgReceived
 1081 01fe C0F20003 		movt	r3, #:upper16:msgReceived
 1082 0202 4FF00102 		mov	r2, #1
 1083 0206 1A60     		str	r2, [r3, #0]
 1084              		.loc 1 195 0
 1085 0208 4FF02400 		mov	r0, #36
 1086 020c FFF7FEFF 		bl	UART_1_PutChar
 1087              		.loc 1 196 0
 1088 0210 40F20003 		movw	r3, #:lower16:recByte
 1089 0214 C0F20003 		movt	r3, #:upper16:recByte
 1090 0218 1B78     		ldrb	r3, [r3, #0]	@ zero_extendqisi2
 1091 021a 1846     		mov	r0, r3
 1092 021c FFF7FEFF 		bl	UART_1_PutChar
 1093              		.loc 1 193 0
 1094 0220 43E0     		b	.L42
 1095              	.L41:
ARM GAS  C:\Users\tjs8\AppData\Local\Temp\cchqEM3h.s 			page 27


 1096              		.loc 1 197 0
 1097 0222 40F20003 		movw	r3, #:lower16:recByte
 1098 0226 C0F20003 		movt	r3, #:upper16:recByte
 1099 022a 1B78     		ldrb	r3, [r3, #0]	@ zero_extendqisi2
 1100 022c 002B     		cmp	r3, #0
 1101 022e 38D0     		beq	.L43
 1102              		.loc 1 198 0
 1103 0230 40F20003 		movw	r3, #:lower16:rx_buf_pos
 1104 0234 C0F20003 		movt	r3, #:upper16:rx_buf_pos
 1105 0238 1B68     		ldr	r3, [r3, #0]
 1106 023a 642B     		cmp	r3, #100
 1107 023c 0DD1     		bne	.L44
 1108              		.loc 1 199 0
 1109 023e 40F20003 		movw	r3, #:lower16:msgReceived
 1110 0242 C0F20003 		movt	r3, #:upper16:msgReceived
 1111 0246 4FF00102 		mov	r2, #1
 1112 024a 1A60     		str	r2, [r3, #0]
 1113              		.loc 1 200 0
 1114 024c 40F20000 		movw	r0, #:lower16:.LC3
 1115 0250 C0F20000 		movt	r0, #:upper16:.LC3
 1116 0254 FFF7FEFF 		bl	UART_1_PutString
 1117              		.loc 1 204 0
 1118 0258 27E0     		b	.L42
 1119              	.L44:
 1120              		.loc 1 202 0
 1121 025a 40F20003 		movw	r3, #:lower16:rx_buf_pos
 1122 025e C0F20003 		movt	r3, #:upper16:rx_buf_pos
 1123 0262 1A68     		ldr	r2, [r3, #0]
 1124 0264 40F20003 		movw	r3, #:lower16:recByte
 1125 0268 C0F20003 		movt	r3, #:upper16:recByte
 1126 026c 1978     		ldrb	r1, [r3, #0]	@ zero_extendqisi2
 1127 026e 40F20003 		movw	r3, #:lower16:rx_buf
 1128 0272 C0F20003 		movt	r3, #:upper16:rx_buf
 1129 0276 9954     		strb	r1, [r3, r2]
 1130              		.loc 1 203 0
 1131 0278 40F20003 		movw	r3, #:lower16:rx_buf_pos
 1132 027c C0F20003 		movt	r3, #:upper16:rx_buf_pos
 1133 0280 1B68     		ldr	r3, [r3, #0]
 1134 0282 03F10102 		add	r2, r3, #1
 1135 0286 40F20003 		movw	r3, #:lower16:rx_buf_pos
 1136 028a C0F20003 		movt	r3, #:upper16:rx_buf_pos
 1137 028e 1A60     		str	r2, [r3, #0]
 1138              		.loc 1 204 0
 1139 0290 40F20003 		movw	r3, #:lower16:recByte
 1140 0294 C0F20003 		movt	r3, #:upper16:recByte
 1141 0298 1B78     		ldrb	r3, [r3, #0]	@ zero_extendqisi2
 1142 029a 1846     		mov	r0, r3
 1143 029c FFF7FEFF 		bl	UART_1_PutChar
 1144 02a0 03E0     		b	.L42
 1145              	.L43:
 1146              		.loc 1 207 0
 1147 02a2 4FF02100 		mov	r0, #33
 1148 02a6 FFF7FEFF 		bl	UART_1_PutChar
 1149              	.L42:
 1150              		.loc 1 209 0
 1151 02aa 40F20003 		movw	r3, #:lower16:rxInterrupted
 1152 02ae C0F20003 		movt	r3, #:upper16:rxInterrupted
ARM GAS  C:\Users\tjs8\AppData\Local\Temp\cchqEM3h.s 			page 28


 1153 02b2 4FF00002 		mov	r2, #0
 1154 02b6 1A60     		str	r2, [r3, #0]
 1155              	.L38:
 1156              		.loc 1 214 0
 1157 02b8 40F20003 		movw	r3, #:lower16:msgReceived
 1158 02bc C0F20003 		movt	r3, #:upper16:msgReceived
 1159 02c0 1B68     		ldr	r3, [r3, #0]
 1160 02c2 002B     		cmp	r3, #0
 1161 02c4 00F00383 		beq	.L46
 1162              		.loc 1 216 0
 1163 02c8 40F20003 		movw	r3, #:lower16:rx_buf
 1164 02cc C0F20003 		movt	r3, #:upper16:rx_buf
 1165 02d0 1B78     		ldrb	r3, [r3, #0]	@ zero_extendqisi2
 1166 02d2 532B     		cmp	r3, #83
 1167 02d4 5DD1     		bne	.L47
 1168 02d6 40F20003 		movw	r3, #:lower16:rx_buf
 1169 02da C0F20003 		movt	r3, #:upper16:rx_buf
 1170 02de 5B78     		ldrb	r3, [r3, #1]	@ zero_extendqisi2
 1171 02e0 532B     		cmp	r3, #83
 1172 02e2 56D0     		beq	.L47
 1173              	.LBB2:
 1174              		.loc 1 217 0
 1175 02e4 4FF00003 		mov	r3, #0
 1176 02e8 C7F89430 		str	r3, [r7, #148]
 1177              		.loc 1 218 0
 1178 02ec 40F20003 		movw	r3, #:lower16:rx_buf
 1179 02f0 C0F20003 		movt	r3, #:upper16:rx_buf
 1180 02f4 5B78     		ldrb	r3, [r3, #1]	@ zero_extendqisi2
 1181 02f6 2F2B     		cmp	r3, #47
 1182 02f8 47D9     		bls	.L48
 1183 02fa 40F20003 		movw	r3, #:lower16:rx_buf
 1184 02fe C0F20003 		movt	r3, #:upper16:rx_buf
 1185 0302 5B78     		ldrb	r3, [r3, #1]	@ zero_extendqisi2
 1186 0304 392B     		cmp	r3, #57
 1187 0306 40D8     		bhi	.L48
 1188 0308 40F20003 		movw	r3, #:lower16:rx_buf
 1189 030c C0F20003 		movt	r3, #:upper16:rx_buf
 1190 0310 9B78     		ldrb	r3, [r3, #2]	@ zero_extendqisi2
 1191 0312 2F2B     		cmp	r3, #47
 1192 0314 39D9     		bls	.L48
 1193 0316 40F20003 		movw	r3, #:lower16:rx_buf
 1194 031a C0F20003 		movt	r3, #:upper16:rx_buf
 1195 031e 9B78     		ldrb	r3, [r3, #2]	@ zero_extendqisi2
 1196 0320 392B     		cmp	r3, #57
 1197 0322 32D8     		bhi	.L48
 1198 0324 40F20003 		movw	r3, #:lower16:rx_buf
 1199 0328 C0F20003 		movt	r3, #:upper16:rx_buf
 1200 032c DB78     		ldrb	r3, [r3, #3]	@ zero_extendqisi2
 1201 032e 2F2B     		cmp	r3, #47
 1202 0330 2BD9     		bls	.L48
 1203 0332 40F20003 		movw	r3, #:lower16:rx_buf
 1204 0336 C0F20003 		movt	r3, #:upper16:rx_buf
 1205 033a DB78     		ldrb	r3, [r3, #3]	@ zero_extendqisi2
 1206 033c 392B     		cmp	r3, #57
 1207 033e 24D8     		bhi	.L48
 1208              		.loc 1 219 0
 1209 0340 40F20003 		movw	r3, #:lower16:rx_buf
ARM GAS  C:\Users\tjs8\AppData\Local\Temp\cchqEM3h.s 			page 29


 1210 0344 C0F20003 		movt	r3, #:upper16:rx_buf
 1211 0348 5B78     		ldrb	r3, [r3, #1]	@ zero_extendqisi2
 1212 034a 4FF06402 		mov	r2, #100
 1213 034e 02FB03F3 		mul	r3, r2, r3
 1214 0352 A3F59651 		sub	r1, r3, #4800
 1215 0356 40F20003 		movw	r3, #:lower16:rx_buf
 1216 035a C0F20003 		movt	r3, #:upper16:rx_buf
 1217 035e 9B78     		ldrb	r3, [r3, #2]	@ zero_extendqisi2
 1218 0360 1A46     		mov	r2, r3
 1219 0362 1346     		mov	r3, r2
 1220 0364 4FEA8303 		lsl	r3, r3, #2
 1221 0368 1344     		add	r3, r3, r2
 1222 036a 4FEA4303 		lsl	r3, r3, #1
 1223 036e A3F5F073 		sub	r3, r3, #480
 1224 0372 01EB0302 		add	r2, r1, r3
 1225 0376 40F20003 		movw	r3, #:lower16:rx_buf
 1226 037a C0F20003 		movt	r3, #:upper16:rx_buf
 1227 037e DB78     		ldrb	r3, [r3, #3]	@ zero_extendqisi2
 1228 0380 A3F13003 		sub	r3, r3, #48
 1229 0384 1344     		add	r3, r2, r3
 1230 0386 C7F89430 		str	r3, [r7, #148]
 1231              	.L48:
 1232              		.loc 1 221 0
 1233 038a D7F89400 		ldr	r0, [r7, #148]
 1234 038e FFF7FEFF 		bl	setThrottle
 1235              	.L47:
 1236              	.LBE2:
 1237              		.loc 1 225 0
 1238 0392 40F20003 		movw	r3, #:lower16:rx_buf
 1239 0396 C0F20003 		movt	r3, #:upper16:rx_buf
 1240 039a 1B78     		ldrb	r3, [r3, #0]	@ zero_extendqisi2
 1241 039c 472B     		cmp	r3, #71
 1242 039e 2FD1     		bne	.L49
 1243              	.LBB3:
 1244              		.loc 1 227 0
 1245 03a0 40F20003 		movw	r3, #:lower16:throttle
 1246 03a4 C0F20003 		movt	r3, #:upper16:throttle
 1247 03a8 1E68     		ldr	r6, [r3, #0]
 1248 03aa FFF7FEFF 		bl	getSpeed
 1249 03ae 8046     		mov	r8, r0
 1250 03b0 8946     		mov	r9, r1
 1251 03b2 40F20003 		movw	r3, #:lower16:COEFF_P
 1252 03b6 C0F20003 		movt	r3, #:upper16:COEFF_P
 1253 03ba D3E90045 		ldrd	r4, [r3]
 1254 03be 40F20003 		movw	r3, #:lower16:COEFF_I
 1255 03c2 C0F20003 		movt	r3, #:upper16:COEFF_I
 1256 03c6 D3E90001 		ldrd	r0, [r3]
 1257 03ca 40F20003 		movw	r3, #:lower16:COEFF_D
 1258 03ce C0F20003 		movt	r3, #:upper16:COEFF_D
 1259 03d2 D3E90023 		ldrd	r2, [r3]
 1260 03d6 BC46     		mov	ip, r7
 1261 03d8 CDE90089 		strd	r8, [sp]
 1262 03dc CDE90245 		strd	r4, [sp, #8]
 1263 03e0 CDE90401 		strd	r0, [sp, #16]
 1264 03e4 CDE90623 		strd	r2, [sp, #24]
 1265 03e8 6046     		mov	r0, ip
 1266 03ea 40F20001 		movw	r1, #:lower16:.LC4
ARM GAS  C:\Users\tjs8\AppData\Local\Temp\cchqEM3h.s 			page 30


 1267 03ee C0F20001 		movt	r1, #:upper16:.LC4
 1268 03f2 3246     		mov	r2, r6
 1269 03f4 FFF7FEFF 		bl	sprintf
 1270              		.loc 1 228 0
 1271 03f8 3B46     		mov	r3, r7
 1272 03fa 1846     		mov	r0, r3
 1273 03fc FFF7FEFF 		bl	UART_1_PutString
 1274              	.L49:
 1275              	.LBE3:
 1276              		.loc 1 232 0
 1277 0400 40F20003 		movw	r3, #:lower16:rx_buf
 1278 0404 C0F20003 		movt	r3, #:upper16:rx_buf
 1279 0408 1B78     		ldrb	r3, [r3, #0]	@ zero_extendqisi2
 1280 040a 542B     		cmp	r3, #84
 1281 040c 2FD1     		bne	.L50
 1282              		.loc 1 233 0
 1283 040e 40F20003 		movw	r3, #:lower16:throttlePIDon
 1284 0412 C0F20003 		movt	r3, #:upper16:throttlePIDon
 1285 0416 1B68     		ldr	r3, [r3, #0]
 1286 0418 002B     		cmp	r3, #0
 1287 041a 14BF     		ite	ne
 1288 041c 0022     		movne	r2, #0
 1289 041e 0122     		moveq	r2, #1
 1290 0420 40F20003 		movw	r3, #:lower16:throttlePIDon
 1291 0424 C0F20003 		movt	r3, #:upper16:throttlePIDon
 1292 0428 1A60     		str	r2, [r3, #0]
 1293              		.loc 1 234 0
 1294 042a 40F20003 		movw	r3, #:lower16:throttlePIDon
 1295 042e C0F20003 		movt	r3, #:upper16:throttlePIDon
 1296 0432 1B68     		ldr	r3, [r3, #0]
 1297 0434 002B     		cmp	r3, #0
 1298 0436 0DD0     		beq	.L51
 1299              		.loc 1 235 0
 1300 0438 40F20003 		movw	r3, #:lower16:throttleUpdateInterrupted
 1301 043c C0F20003 		movt	r3, #:upper16:throttleUpdateInterrupted
 1302 0440 4FF00102 		mov	r2, #1
 1303 0444 1A60     		str	r2, [r3, #0]
 1304              		.loc 1 236 0
 1305 0446 40F20000 		movw	r0, #:lower16:.LC5
 1306 044a C0F20000 		movt	r0, #:upper16:.LC5
 1307 044e FFF7FEFF 		bl	UART_1_PutString
 1308 0452 0CE0     		b	.L50
 1309              	.L51:
 1310              		.loc 1 238 0
 1311 0454 40F20003 		movw	r3, #:lower16:throttleUpdateInterrupted
 1312 0458 C0F20003 		movt	r3, #:upper16:throttleUpdateInterrupted
 1313 045c 4FF00002 		mov	r2, #0
 1314 0460 1A60     		str	r2, [r3, #0]
 1315              		.loc 1 239 0
 1316 0462 40F20000 		movw	r0, #:lower16:.LC6
 1317 0466 C0F20000 		movt	r0, #:upper16:.LC6
 1318 046a FFF7FEFF 		bl	UART_1_PutString
 1319              	.L50:
 1320              		.loc 1 244 0
 1321 046e 40F20003 		movw	r3, #:lower16:rx_buf
 1322 0472 C0F20003 		movt	r3, #:upper16:rx_buf
 1323 0476 1B78     		ldrb	r3, [r3, #0]	@ zero_extendqisi2
ARM GAS  C:\Users\tjs8\AppData\Local\Temp\cchqEM3h.s 			page 31


 1324 0478 502B     		cmp	r3, #80
 1325 047a 69D1     		bne	.L52
 1326              	.LBB4:
 1327              		.loc 1 245 0
 1328 047c 40F20003 		movw	r3, #:lower16:rx_buf
 1329 0480 C0F20003 		movt	r3, #:upper16:rx_buf
 1330 0484 5B78     		ldrb	r3, [r3, #1]	@ zero_extendqisi2
 1331 0486 2F2B     		cmp	r3, #47
 1332 0488 4ED9     		bls	.L53
 1333 048a 40F20003 		movw	r3, #:lower16:rx_buf
 1334 048e C0F20003 		movt	r3, #:upper16:rx_buf
 1335 0492 5B78     		ldrb	r3, [r3, #1]	@ zero_extendqisi2
 1336 0494 392B     		cmp	r3, #57
 1337 0496 47D8     		bhi	.L53
 1338 0498 40F20003 		movw	r3, #:lower16:rx_buf
 1339 049c C0F20003 		movt	r3, #:upper16:rx_buf
 1340 04a0 9B78     		ldrb	r3, [r3, #2]	@ zero_extendqisi2
 1341 04a2 2F2B     		cmp	r3, #47
 1342 04a4 40D9     		bls	.L53
 1343 04a6 40F20003 		movw	r3, #:lower16:rx_buf
 1344 04aa C0F20003 		movt	r3, #:upper16:rx_buf
 1345 04ae 9B78     		ldrb	r3, [r3, #2]	@ zero_extendqisi2
 1346 04b0 392B     		cmp	r3, #57
 1347 04b2 39D8     		bhi	.L53
 1348 04b4 40F20003 		movw	r3, #:lower16:rx_buf
 1349 04b8 C0F20003 		movt	r3, #:upper16:rx_buf
 1350 04bc DB78     		ldrb	r3, [r3, #3]	@ zero_extendqisi2
 1351 04be 2F2B     		cmp	r3, #47
 1352 04c0 32D9     		bls	.L53
 1353 04c2 40F20003 		movw	r3, #:lower16:rx_buf
 1354 04c6 C0F20003 		movt	r3, #:upper16:rx_buf
 1355 04ca DB78     		ldrb	r3, [r3, #3]	@ zero_extendqisi2
 1356 04cc 392B     		cmp	r3, #57
 1357 04ce 2BD8     		bhi	.L53
 1358              		.loc 1 246 0
 1359 04d0 40F20003 		movw	r3, #:lower16:rx_buf
 1360 04d4 C0F20003 		movt	r3, #:upper16:rx_buf
 1361 04d8 5B78     		ldrb	r3, [r3, #1]	@ zero_extendqisi2
 1362 04da 4FF06402 		mov	r2, #100
 1363 04de 02FB03F3 		mul	r3, r2, r3
 1364 04e2 A3F59651 		sub	r1, r3, #4800
 1365 04e6 40F20003 		movw	r3, #:lower16:rx_buf
 1366 04ea C0F20003 		movt	r3, #:upper16:rx_buf
 1367 04ee 9B78     		ldrb	r3, [r3, #2]	@ zero_extendqisi2
 1368 04f0 1A46     		mov	r2, r3
 1369 04f2 1346     		mov	r3, r2
 1370 04f4 4FEA8303 		lsl	r3, r3, #2
 1371 04f8 1344     		add	r3, r3, r2
 1372 04fa 4FEA4303 		lsl	r3, r3, #1
 1373 04fe A3F5F073 		sub	r3, r3, #480
 1374 0502 01EB0302 		add	r2, r1, r3
 1375 0506 40F20003 		movw	r3, #:lower16:rx_buf
 1376 050a C0F20003 		movt	r3, #:upper16:rx_buf
 1377 050e DB78     		ldrb	r3, [r3, #3]	@ zero_extendqisi2
 1378 0510 A3F13003 		sub	r3, r3, #48
 1379 0514 1344     		add	r3, r2, r3
 1380 0516 1846     		mov	r0, r3
ARM GAS  C:\Users\tjs8\AppData\Local\Temp\cchqEM3h.s 			page 32


 1381 0518 FFF7FEFF 		bl	__aeabi_i2d
 1382 051c 40F20003 		movw	r3, #:lower16:COEFF_P
 1383 0520 C0F20003 		movt	r3, #:upper16:COEFF_P
 1384 0524 C3E90001 		strd	r0, [r3]
 1385              	.L53:
 1386              		.loc 1 249 0
 1387 0528 40F20003 		movw	r3, #:lower16:COEFF_P
 1388 052c C0F20003 		movt	r3, #:upper16:COEFF_P
 1389 0530 D3E90023 		ldrd	r2, [r3]
 1390 0534 07F18001 		add	r1, r7, #128
 1391 0538 0846     		mov	r0, r1
 1392 053a 40F20001 		movw	r1, #:lower16:.LC7
 1393 053e C0F20001 		movt	r1, #:upper16:.LC7
 1394 0542 FFF7FEFF 		bl	sprintf
 1395              		.loc 1 250 0
 1396 0546 07F18003 		add	r3, r7, #128
 1397 054a 1846     		mov	r0, r3
 1398 054c FFF7FEFF 		bl	UART_1_PutString
 1399              	.L52:
 1400              	.LBE4:
 1401              		.loc 1 254 0
 1402 0550 40F20003 		movw	r3, #:lower16:rx_buf
 1403 0554 C0F20003 		movt	r3, #:upper16:rx_buf
 1404 0558 1B78     		ldrb	r3, [r3, #0]	@ zero_extendqisi2
 1405 055a 492B     		cmp	r3, #73
 1406 055c 40F08480 		bne	.L54
 1407              	.LBB5:
 1408              		.loc 1 255 0
 1409 0560 40F20003 		movw	r3, #:lower16:rx_buf
 1410 0564 C0F20003 		movt	r3, #:upper16:rx_buf
 1411 0568 5B78     		ldrb	r3, [r3, #1]	@ zero_extendqisi2
 1412 056a 2F2B     		cmp	r3, #47
 1413 056c 68D9     		bls	.L55
 1414 056e 40F20003 		movw	r3, #:lower16:rx_buf
 1415 0572 C0F20003 		movt	r3, #:upper16:rx_buf
 1416 0576 5B78     		ldrb	r3, [r3, #1]	@ zero_extendqisi2
 1417 0578 392B     		cmp	r3, #57
 1418 057a 61D8     		bhi	.L55
 1419 057c 40F20003 		movw	r3, #:lower16:rx_buf
 1420 0580 C0F20003 		movt	r3, #:upper16:rx_buf
 1421 0584 9B78     		ldrb	r3, [r3, #2]	@ zero_extendqisi2
 1422 0586 2F2B     		cmp	r3, #47
 1423 0588 5AD9     		bls	.L55
 1424 058a 40F20003 		movw	r3, #:lower16:rx_buf
 1425 058e C0F20003 		movt	r3, #:upper16:rx_buf
 1426 0592 9B78     		ldrb	r3, [r3, #2]	@ zero_extendqisi2
 1427 0594 392B     		cmp	r3, #57
 1428 0596 53D8     		bhi	.L55
 1429 0598 40F20003 		movw	r3, #:lower16:rx_buf
 1430 059c C0F20003 		movt	r3, #:upper16:rx_buf
 1431 05a0 DB78     		ldrb	r3, [r3, #3]	@ zero_extendqisi2
 1432 05a2 2F2B     		cmp	r3, #47
 1433 05a4 4CD9     		bls	.L55
 1434 05a6 40F20003 		movw	r3, #:lower16:rx_buf
 1435 05aa C0F20003 		movt	r3, #:upper16:rx_buf
 1436 05ae DB78     		ldrb	r3, [r3, #3]	@ zero_extendqisi2
 1437 05b0 392B     		cmp	r3, #57
ARM GAS  C:\Users\tjs8\AppData\Local\Temp\cchqEM3h.s 			page 33


 1438 05b2 45D8     		bhi	.L55
 1439              		.loc 1 256 0
 1440 05b4 40F20003 		movw	r3, #:lower16:rx_buf
 1441 05b8 C0F20003 		movt	r3, #:upper16:rx_buf
 1442 05bc 5B78     		ldrb	r3, [r3, #1]	@ zero_extendqisi2
 1443 05be 4FF06402 		mov	r2, #100
 1444 05c2 02FB03F3 		mul	r3, r2, r3
 1445 05c6 A3F59651 		sub	r1, r3, #4800
 1446 05ca 40F20003 		movw	r3, #:lower16:rx_buf
 1447 05ce C0F20003 		movt	r3, #:upper16:rx_buf
 1448 05d2 9B78     		ldrb	r3, [r3, #2]	@ zero_extendqisi2
 1449 05d4 1A46     		mov	r2, r3
 1450 05d6 1346     		mov	r3, r2
 1451 05d8 4FEA8303 		lsl	r3, r3, #2
 1452 05dc 1344     		add	r3, r3, r2
 1453 05de 4FEA4303 		lsl	r3, r3, #1
 1454 05e2 A3F5F073 		sub	r3, r3, #480
 1455 05e6 01EB0302 		add	r2, r1, r3
 1456 05ea 40F20003 		movw	r3, #:lower16:rx_buf
 1457 05ee C0F20003 		movt	r3, #:upper16:rx_buf
 1458 05f2 DB78     		ldrb	r3, [r3, #3]	@ zero_extendqisi2
 1459 05f4 A3F13003 		sub	r3, r3, #48
 1460 05f8 1344     		add	r3, r2, r3
 1461 05fa 1846     		mov	r0, r3
 1462 05fc FFF7FEFF 		bl	__aeabi_i2d
 1463 0600 40F20003 		movw	r3, #:lower16:COEFF_I
 1464 0604 C0F20003 		movt	r3, #:upper16:COEFF_I
 1465 0608 C3E90001 		strd	r0, [r3]
 1466              		.loc 1 257 0
 1467 060c 40F20003 		movw	r3, #:lower16:COEFF_I
 1468 0610 C0F20003 		movt	r3, #:upper16:COEFF_I
 1469 0614 D3E90023 		ldrd	r2, [r3]
 1470 0618 1046     		mov	r0, r2
 1471 061a 1946     		mov	r1, r3
 1472 061c 4FF00002 		mov	r2, #0
 1473 0620 4FF08043 		mov	r3, #1073741824
 1474 0624 03F51013 		add	r3, r3, #2359296
 1475 0628 FFF7FEFF 		bl	__aeabi_ddiv
 1476 062c 0246     		mov	r2, r0
 1477 062e 0B46     		mov	r3, r1
 1478 0630 1046     		mov	r0, r2
 1479 0632 1946     		mov	r1, r3
 1480 0634 40F20003 		movw	r3, #:lower16:COEFF_I
 1481 0638 C0F20003 		movt	r3, #:upper16:COEFF_I
 1482 063c C3E90001 		strd	r0, [r3]
 1483              	.L55:
 1484              		.loc 1 260 0
 1485 0640 40F20003 		movw	r3, #:lower16:COEFF_I
 1486 0644 C0F20003 		movt	r3, #:upper16:COEFF_I
 1487 0648 D3E90023 		ldrd	r2, [r3]
 1488 064c 07F17001 		add	r1, r7, #112
 1489 0650 0846     		mov	r0, r1
 1490 0652 40F20001 		movw	r1, #:lower16:.LC8
 1491 0656 C0F20001 		movt	r1, #:upper16:.LC8
 1492 065a FFF7FEFF 		bl	sprintf
 1493              		.loc 1 261 0
 1494 065e 07F17003 		add	r3, r7, #112
ARM GAS  C:\Users\tjs8\AppData\Local\Temp\cchqEM3h.s 			page 34


 1495 0662 1846     		mov	r0, r3
 1496 0664 FFF7FEFF 		bl	UART_1_PutString
 1497              	.L54:
 1498              	.LBE5:
 1499              		.loc 1 265 0
 1500 0668 40F20003 		movw	r3, #:lower16:rx_buf
 1501 066c C0F20003 		movt	r3, #:upper16:rx_buf
 1502 0670 1B78     		ldrb	r3, [r3, #0]	@ zero_extendqisi2
 1503 0672 442B     		cmp	r3, #68
 1504 0674 69D1     		bne	.L56
 1505              	.LBB6:
 1506              		.loc 1 266 0
 1507 0676 40F20003 		movw	r3, #:lower16:rx_buf
 1508 067a C0F20003 		movt	r3, #:upper16:rx_buf
 1509 067e 5B78     		ldrb	r3, [r3, #1]	@ zero_extendqisi2
 1510 0680 2F2B     		cmp	r3, #47
 1511 0682 4ED9     		bls	.L57
 1512 0684 40F20003 		movw	r3, #:lower16:rx_buf
 1513 0688 C0F20003 		movt	r3, #:upper16:rx_buf
 1514 068c 5B78     		ldrb	r3, [r3, #1]	@ zero_extendqisi2
 1515 068e 392B     		cmp	r3, #57
 1516 0690 47D8     		bhi	.L57
 1517 0692 40F20003 		movw	r3, #:lower16:rx_buf
 1518 0696 C0F20003 		movt	r3, #:upper16:rx_buf
 1519 069a 9B78     		ldrb	r3, [r3, #2]	@ zero_extendqisi2
 1520 069c 2F2B     		cmp	r3, #47
 1521 069e 40D9     		bls	.L57
 1522 06a0 40F20003 		movw	r3, #:lower16:rx_buf
 1523 06a4 C0F20003 		movt	r3, #:upper16:rx_buf
 1524 06a8 9B78     		ldrb	r3, [r3, #2]	@ zero_extendqisi2
 1525 06aa 392B     		cmp	r3, #57
 1526 06ac 39D8     		bhi	.L57
 1527 06ae 40F20003 		movw	r3, #:lower16:rx_buf
 1528 06b2 C0F20003 		movt	r3, #:upper16:rx_buf
 1529 06b6 DB78     		ldrb	r3, [r3, #3]	@ zero_extendqisi2
 1530 06b8 2F2B     		cmp	r3, #47
 1531 06ba 32D9     		bls	.L57
 1532 06bc 40F20003 		movw	r3, #:lower16:rx_buf
 1533 06c0 C0F20003 		movt	r3, #:upper16:rx_buf
 1534 06c4 DB78     		ldrb	r3, [r3, #3]	@ zero_extendqisi2
 1535 06c6 392B     		cmp	r3, #57
 1536 06c8 2BD8     		bhi	.L57
 1537              		.loc 1 267 0
 1538 06ca 40F20003 		movw	r3, #:lower16:rx_buf
 1539 06ce C0F20003 		movt	r3, #:upper16:rx_buf
 1540 06d2 5B78     		ldrb	r3, [r3, #1]	@ zero_extendqisi2
 1541 06d4 4FF06402 		mov	r2, #100
 1542 06d8 02FB03F3 		mul	r3, r2, r3
 1543 06dc A3F59651 		sub	r1, r3, #4800
 1544 06e0 40F20003 		movw	r3, #:lower16:rx_buf
 1545 06e4 C0F20003 		movt	r3, #:upper16:rx_buf
 1546 06e8 9B78     		ldrb	r3, [r3, #2]	@ zero_extendqisi2
 1547 06ea 1A46     		mov	r2, r3
 1548 06ec 1346     		mov	r3, r2
 1549 06ee 4FEA8303 		lsl	r3, r3, #2
 1550 06f2 1344     		add	r3, r3, r2
 1551 06f4 4FEA4303 		lsl	r3, r3, #1
ARM GAS  C:\Users\tjs8\AppData\Local\Temp\cchqEM3h.s 			page 35


 1552 06f8 A3F5F073 		sub	r3, r3, #480
 1553 06fc 01EB0302 		add	r2, r1, r3
 1554 0700 40F20003 		movw	r3, #:lower16:rx_buf
 1555 0704 C0F20003 		movt	r3, #:upper16:rx_buf
 1556 0708 DB78     		ldrb	r3, [r3, #3]	@ zero_extendqisi2
 1557 070a A3F13003 		sub	r3, r3, #48
 1558 070e 1344     		add	r3, r2, r3
 1559 0710 1846     		mov	r0, r3
 1560 0712 FFF7FEFF 		bl	__aeabi_i2d
 1561 0716 40F20003 		movw	r3, #:lower16:COEFF_D
 1562 071a C0F20003 		movt	r3, #:upper16:COEFF_D
 1563 071e C3E90001 		strd	r0, [r3]
 1564              	.L57:
 1565              		.loc 1 270 0
 1566 0722 40F20003 		movw	r3, #:lower16:COEFF_D
 1567 0726 C0F20003 		movt	r3, #:upper16:COEFF_D
 1568 072a D3E90023 		ldrd	r2, [r3]
 1569 072e 07F16001 		add	r1, r7, #96
 1570 0732 0846     		mov	r0, r1
 1571 0734 40F20001 		movw	r1, #:lower16:.LC9
 1572 0738 C0F20001 		movt	r1, #:upper16:.LC9
 1573 073c FFF7FEFF 		bl	sprintf
 1574              		.loc 1 271 0
 1575 0740 07F16003 		add	r3, r7, #96
 1576 0744 1846     		mov	r0, r3
 1577 0746 FFF7FEFF 		bl	UART_1_PutString
 1578              	.L56:
 1579              	.LBE6:
 1580              		.loc 1 275 0
 1581 074a 40F20003 		movw	r3, #:lower16:rx_buf
 1582 074e C0F20003 		movt	r3, #:upper16:rx_buf
 1583 0752 1B78     		ldrb	r3, [r3, #0]	@ zero_extendqisi2
 1584 0754 412B     		cmp	r3, #65
 1585 0756 17D1     		bne	.L58
 1586              		.loc 1 276 0
 1587 0758 4FF00000 		mov	r0, #0
 1588 075c FFF7FEFF 		bl	setThrottle
 1589              		.loc 1 277 0
 1590 0760 40F20003 		movw	r3, #:lower16:throttlePIDon
 1591 0764 C0F20003 		movt	r3, #:upper16:throttlePIDon
 1592 0768 4FF00002 		mov	r2, #0
 1593 076c 1A60     		str	r2, [r3, #0]
 1594              		.loc 1 278 0
 1595 076e 40F20003 		movw	r3, #:lower16:throttleUpdateInterrupted
 1596 0772 C0F20003 		movt	r3, #:upper16:throttleUpdateInterrupted
 1597 0776 4FF00002 		mov	r2, #0
 1598 077a 1A60     		str	r2, [r3, #0]
 1599              		.loc 1 279 0
 1600 077c 40F20000 		movw	r0, #:lower16:.LC10
 1601 0780 C0F20000 		movt	r0, #:upper16:.LC10
 1602 0784 FFF7FEFF 		bl	UART_1_PutString
 1603              	.L58:
 1604              		.loc 1 283 0
 1605 0788 40F20003 		movw	r3, #:lower16:rx_buf
 1606 078c C0F20003 		movt	r3, #:upper16:rx_buf
 1607 0790 1B78     		ldrb	r3, [r3, #0]	@ zero_extendqisi2
 1608 0792 532B     		cmp	r3, #83
ARM GAS  C:\Users\tjs8\AppData\Local\Temp\cchqEM3h.s 			page 36


 1609 0794 70D1     		bne	.L59
 1610 0796 40F20003 		movw	r3, #:lower16:rx_buf
 1611 079a C0F20003 		movt	r3, #:upper16:rx_buf
 1612 079e 5B78     		ldrb	r3, [r3, #1]	@ zero_extendqisi2
 1613 07a0 532B     		cmp	r3, #83
 1614 07a2 69D1     		bne	.L59
 1615              	.LBB7:
 1616              		.loc 1 284 0
 1617 07a4 40F20003 		movw	r3, #:lower16:rx_buf
 1618 07a8 C0F20003 		movt	r3, #:upper16:rx_buf
 1619 07ac 9B78     		ldrb	r3, [r3, #2]	@ zero_extendqisi2
 1620 07ae 2F2B     		cmp	r3, #47
 1621 07b0 4ED9     		bls	.L60
 1622 07b2 40F20003 		movw	r3, #:lower16:rx_buf
 1623 07b6 C0F20003 		movt	r3, #:upper16:rx_buf
 1624 07ba 9B78     		ldrb	r3, [r3, #2]	@ zero_extendqisi2
 1625 07bc 392B     		cmp	r3, #57
 1626 07be 47D8     		bhi	.L60
 1627 07c0 40F20003 		movw	r3, #:lower16:rx_buf
 1628 07c4 C0F20003 		movt	r3, #:upper16:rx_buf
 1629 07c8 DB78     		ldrb	r3, [r3, #3]	@ zero_extendqisi2
 1630 07ca 2F2B     		cmp	r3, #47
 1631 07cc 40D9     		bls	.L60
 1632 07ce 40F20003 		movw	r3, #:lower16:rx_buf
 1633 07d2 C0F20003 		movt	r3, #:upper16:rx_buf
 1634 07d6 DB78     		ldrb	r3, [r3, #3]	@ zero_extendqisi2
 1635 07d8 392B     		cmp	r3, #57
 1636 07da 39D8     		bhi	.L60
 1637 07dc 40F20003 		movw	r3, #:lower16:rx_buf
 1638 07e0 C0F20003 		movt	r3, #:upper16:rx_buf
 1639 07e4 1B79     		ldrb	r3, [r3, #4]	@ zero_extendqisi2
 1640 07e6 2F2B     		cmp	r3, #47
 1641 07e8 32D9     		bls	.L60
 1642 07ea 40F20003 		movw	r3, #:lower16:rx_buf
 1643 07ee C0F20003 		movt	r3, #:upper16:rx_buf
 1644 07f2 1B79     		ldrb	r3, [r3, #4]	@ zero_extendqisi2
 1645 07f4 392B     		cmp	r3, #57
 1646 07f6 2BD8     		bhi	.L60
 1647              		.loc 1 285 0
 1648 07f8 40F20003 		movw	r3, #:lower16:rx_buf
 1649 07fc C0F20003 		movt	r3, #:upper16:rx_buf
 1650 0800 9B78     		ldrb	r3, [r3, #2]	@ zero_extendqisi2
 1651 0802 4FF06402 		mov	r2, #100
 1652 0806 02FB03F3 		mul	r3, r2, r3
 1653 080a A3F59651 		sub	r1, r3, #4800
 1654 080e 40F20003 		movw	r3, #:lower16:rx_buf
 1655 0812 C0F20003 		movt	r3, #:upper16:rx_buf
 1656 0816 DB78     		ldrb	r3, [r3, #3]	@ zero_extendqisi2
 1657 0818 1A46     		mov	r2, r3
 1658 081a 1346     		mov	r3, r2
 1659 081c 4FEA8303 		lsl	r3, r3, #2
 1660 0820 1344     		add	r3, r3, r2
 1661 0822 4FEA4303 		lsl	r3, r3, #1
 1662 0826 A3F5F073 		sub	r3, r3, #480
 1663 082a 01EB0302 		add	r2, r1, r3
 1664 082e 40F20003 		movw	r3, #:lower16:rx_buf
 1665 0832 C0F20003 		movt	r3, #:upper16:rx_buf
ARM GAS  C:\Users\tjs8\AppData\Local\Temp\cchqEM3h.s 			page 37


 1666 0836 1B79     		ldrb	r3, [r3, #4]	@ zero_extendqisi2
 1667 0838 A3F13003 		sub	r3, r3, #48
 1668 083c 1344     		add	r3, r2, r3
 1669 083e 1846     		mov	r0, r3
 1670 0840 FFF7FEFF 		bl	__aeabi_i2d
 1671 0844 40F20003 		movw	r3, #:lower16:COEFF_D
 1672 0848 C0F20003 		movt	r3, #:upper16:COEFF_D
 1673 084c C3E90001 		strd	r0, [r3]
 1674              	.L60:
 1675              		.loc 1 288 0
 1676 0850 40F20003 		movw	r3, #:lower16:COEFF_D
 1677 0854 C0F20003 		movt	r3, #:upper16:COEFF_D
 1678 0858 D3E90023 		ldrd	r2, [r3]
 1679 085c 07F15001 		add	r1, r7, #80
 1680 0860 0846     		mov	r0, r1
 1681 0862 40F20001 		movw	r1, #:lower16:.LC9
 1682 0866 C0F20001 		movt	r1, #:upper16:.LC9
 1683 086a FFF7FEFF 		bl	sprintf
 1684              		.loc 1 289 0
 1685 086e 07F15003 		add	r3, r7, #80
 1686 0872 1846     		mov	r0, r3
 1687 0874 FFF7FEFF 		bl	UART_1_PutString
 1688              	.L59:
 1689              	.LBE7:
 1690              		.loc 1 293 0
 1691 0878 4FF00003 		mov	r3, #0
 1692 087c C7F89030 		str	r3, [r7, #144]
 1693 0880 0EE0     		b	.L61
 1694              	.L62:
 1695 0882 D7F89020 		ldr	r2, [r7, #144]
 1696 0886 40F20003 		movw	r3, #:lower16:rx_buf
 1697 088a C0F20003 		movt	r3, #:upper16:rx_buf
 1698 088e 4FF00001 		mov	r1, #0
 1699 0892 9954     		strb	r1, [r3, r2]
 1700 0894 D7F89030 		ldr	r3, [r7, #144]
 1701 0898 03F10103 		add	r3, r3, #1
 1702 089c C7F89030 		str	r3, [r7, #144]
 1703              	.L61:
 1704 08a0 40F20003 		movw	r3, #:lower16:rx_buf_pos
 1705 08a4 C0F20003 		movt	r3, #:upper16:rx_buf_pos
 1706 08a8 1B68     		ldr	r3, [r3, #0]
 1707 08aa D7F89020 		ldr	r2, [r7, #144]
 1708 08ae 9A42     		cmp	r2, r3
 1709 08b0 E7DB     		blt	.L62
 1710              		.loc 1 294 0
 1711 08b2 40F20003 		movw	r3, #:lower16:rx_buf_pos
 1712 08b6 C0F20003 		movt	r3, #:upper16:rx_buf_pos
 1713 08ba 4FF00002 		mov	r2, #0
 1714 08be 1A60     		str	r2, [r3, #0]
 1715              		.loc 1 295 0
 1716 08c0 40F20003 		movw	r3, #:lower16:msgReceived
 1717 08c4 C0F20003 		movt	r3, #:upper16:msgReceived
 1718 08c8 4FF00002 		mov	r2, #0
 1719 08cc 1A60     		str	r2, [r3, #0]
 1720              	.L46:
 1721              		.loc 1 299 0
 1722 08ce 40F20003 		movw	r3, #:lower16:wheelTickInterrupted
ARM GAS  C:\Users\tjs8\AppData\Local\Temp\cchqEM3h.s 			page 38


 1723 08d2 C0F20003 		movt	r3, #:upper16:wheelTickInterrupted
 1724 08d6 1B68     		ldr	r3, [r3, #0]
 1725 08d8 002B     		cmp	r3, #0
 1726 08da 6AD0     		beq	.L63
 1727              	.LBB8:
 1728              		.loc 1 301 0
 1729 08dc FFF7FEFF 		bl	Timer_1_ReadCapture
 1730 08e0 0346     		mov	r3, r0
 1731 08e2 C7F89830 		str	r3, [r7, #152]
 1732              		.loc 1 302 0
 1733 08e6 40F20003 		movw	r3, #:lower16:oldTickCount
 1734 08ea C0F20003 		movt	r3, #:upper16:oldTickCount
 1735 08ee 1A68     		ldr	r2, [r3, #0]
 1736 08f0 D7F89830 		ldr	r3, [r7, #152]
 1737 08f4 C3EB0203 		rsb	r3, r3, r2
 1738 08f8 C7F89C30 		str	r3, [r7, #156]
 1739              		.loc 1 304 0
 1740 08fc D7F89C30 		ldr	r3, [r7, #156]
 1741 0900 002B     		cmp	r3, #0
 1742 0902 08DA     		bge	.L64
 1743 0904 40F20003 		movw	r3, #:lower16:TIMER_PERIOD
 1744 0908 C0F20003 		movt	r3, #:upper16:TIMER_PERIOD
 1745 090c 1A68     		ldr	r2, [r3, #0]
 1746 090e D7F89C30 		ldr	r3, [r7, #156]
 1747 0912 1344     		add	r3, r2, r3
 1748 0914 01E0     		b	.L65
 1749              	.L64:
 1750 0916 D7F89C30 		ldr	r3, [r7, #156]
 1751              	.L65:
 1752 091a C7F89C30 		str	r3, [r7, #156]
 1753              		.loc 1 305 0
 1754 091e 40F20003 		movw	r3, #:lower16:wheel_tick_buf_pos
 1755 0922 C0F20003 		movt	r3, #:upper16:wheel_tick_buf_pos
 1756 0926 1A68     		ldr	r2, [r3, #0]
 1757 0928 40F20003 		movw	r3, #:lower16:wheel_tick_buf
 1758 092c C0F20003 		movt	r3, #:upper16:wheel_tick_buf
 1759 0930 D7F89C10 		ldr	r1, [r7, #156]
 1760 0934 43F82210 		str	r1, [r3, r2, lsl #2]
 1761              		.loc 1 315 0
 1762 0938 40F20003 		movw	r3, #:lower16:wheel_tick_buf_pos
 1763 093c C0F20003 		movt	r3, #:upper16:wheel_tick_buf_pos
 1764 0940 1B68     		ldr	r3, [r3, #0]
 1765 0942 03F10101 		add	r1, r3, #1
 1766 0946 45F25653 		movw	r3, #:lower16:1431655766
 1767 094a C5F25553 		movt	r3, #:upper16:1431655766
 1768 094e 83FB0102 		smull	r0, r2, r3, r1
 1769 0952 4FEAE173 		asr	r3, r1, #31
 1770 0956 C3EB0202 		rsb	r2, r3, r2
 1771 095a 1346     		mov	r3, r2
 1772 095c 4FEA4303 		lsl	r3, r3, #1
 1773 0960 1344     		add	r3, r3, r2
 1774 0962 C3EB0102 		rsb	r2, r3, r1
 1775 0966 40F20003 		movw	r3, #:lower16:wheel_tick_buf_pos
 1776 096a C0F20003 		movt	r3, #:upper16:wheel_tick_buf_pos
 1777 096e 1A60     		str	r2, [r3, #0]
 1778              		.loc 1 316 0
 1779 0970 40F20003 		movw	r3, #:lower16:wheel_tick_buf_cur_size
ARM GAS  C:\Users\tjs8\AppData\Local\Temp\cchqEM3h.s 			page 39


 1780 0974 C0F20003 		movt	r3, #:upper16:wheel_tick_buf_cur_size
 1781 0978 1B68     		ldr	r3, [r3, #0]
 1782 097a 022B     		cmp	r3, #2
 1783 097c 0BDC     		bgt	.L66
 1784 097e 40F20003 		movw	r3, #:lower16:wheel_tick_buf_cur_size
 1785 0982 C0F20003 		movt	r3, #:upper16:wheel_tick_buf_cur_size
 1786 0986 1B68     		ldr	r3, [r3, #0]
 1787 0988 03F10102 		add	r2, r3, #1
 1788 098c 40F20003 		movw	r3, #:lower16:wheel_tick_buf_cur_size
 1789 0990 C0F20003 		movt	r3, #:upper16:wheel_tick_buf_cur_size
 1790 0994 1A60     		str	r2, [r3, #0]
 1791              	.L66:
 1792              		.loc 1 317 0
 1793 0996 40F20003 		movw	r3, #:lower16:oldTickCount
 1794 099a C0F20003 		movt	r3, #:upper16:oldTickCount
 1795 099e D7F89820 		ldr	r2, [r7, #152]
 1796 09a2 1A60     		str	r2, [r3, #0]
 1797              		.loc 1 318 0
 1798 09a4 40F20003 		movw	r3, #:lower16:wheelTickInterrupted
 1799 09a8 C0F20003 		movt	r3, #:upper16:wheelTickInterrupted
 1800 09ac 4FF00002 		mov	r2, #0
 1801 09b0 1A60     		str	r2, [r3, #0]
 1802              	.L63:
 1803              	.LBE8:
 1804              		.loc 1 322 0
 1805 09b2 40F20003 		movw	r3, #:lower16:tickTimeoutInterrupted
 1806 09b6 C0F20003 		movt	r3, #:upper16:tickTimeoutInterrupted
 1807 09ba 1B68     		ldr	r3, [r3, #0]
 1808 09bc 002B     		cmp	r3, #0
 1809 09be 60D0     		beq	.L67
 1810              		.loc 1 323 0
 1811 09c0 40F20000 		movw	r0, #:lower16:.LC11
 1812 09c4 C0F20000 		movt	r0, #:upper16:.LC11
 1813 09c8 FFF7FEFF 		bl	UART_1_PutString
 1814              		.loc 1 325 0
 1815 09cc 40F20003 		movw	r3, #:lower16:wheel_tick_buf_pos
 1816 09d0 C0F20003 		movt	r3, #:upper16:wheel_tick_buf_pos
 1817 09d4 4FF00002 		mov	r2, #0
 1818 09d8 1A60     		str	r2, [r3, #0]
 1819              		.loc 1 326 0
 1820 09da 40F20003 		movw	r3, #:lower16:wheel_tick_buf_cur_size
 1821 09de C0F20003 		movt	r3, #:upper16:wheel_tick_buf_cur_size
 1822 09e2 4FF00002 		mov	r2, #0
 1823 09e6 1A60     		str	r2, [r3, #0]
 1824              		.loc 1 327 0
 1825 09e8 4FF00003 		mov	r3, #0
 1826 09ec C7F89030 		str	r3, [r7, #144]
 1827 09f0 0FE0     		b	.L68
 1828              	.L69:
 1829 09f2 D7F89020 		ldr	r2, [r7, #144]
 1830 09f6 40F20003 		movw	r3, #:lower16:wheel_tick_buf
 1831 09fa C0F20003 		movt	r3, #:upper16:wheel_tick_buf
 1832 09fe 4FF00001 		mov	r1, #0
 1833 0a02 43F82210 		str	r1, [r3, r2, lsl #2]
 1834 0a06 D7F89030 		ldr	r3, [r7, #144]
 1835 0a0a 03F10103 		add	r3, r3, #1
 1836 0a0e C7F89030 		str	r3, [r7, #144]
ARM GAS  C:\Users\tjs8\AppData\Local\Temp\cchqEM3h.s 			page 40


 1837              	.L68:
 1838 0a12 D7F89030 		ldr	r3, [r7, #144]
 1839 0a16 022B     		cmp	r3, #2
 1840 0a18 EBDD     		ble	.L69
 1841              		.loc 1 329 0
 1842 0a1a 40F20003 		movw	r3, #:lower16:speed_buf_pos
 1843 0a1e C0F20003 		movt	r3, #:upper16:speed_buf_pos
 1844 0a22 4FF00002 		mov	r2, #0
 1845 0a26 1A60     		str	r2, [r3, #0]
 1846              		.loc 1 330 0
 1847 0a28 40F20003 		movw	r3, #:lower16:speed_buf_last_pos
 1848 0a2c C0F20003 		movt	r3, #:upper16:speed_buf_last_pos
 1849 0a30 4FF00002 		mov	r2, #0
 1850 0a34 1A60     		str	r2, [r3, #0]
 1851              		.loc 1 331 0
 1852 0a36 4FF00003 		mov	r3, #0
 1853 0a3a C7F89030 		str	r3, [r7, #144]
 1854 0a3e 15E0     		b	.L70
 1855              	.L71:
 1856 0a40 D7F89020 		ldr	r2, [r7, #144]
 1857 0a44 40F20003 		movw	r3, #:lower16:speed_buf
 1858 0a48 C0F20003 		movt	r3, #:upper16:speed_buf
 1859 0a4c 4FEAC202 		lsl	r2, r2, #3
 1860 0a50 02EB0301 		add	r1, r2, r3
 1861 0a54 4FF00002 		mov	r2, #0
 1862 0a58 4FF00003 		mov	r3, #0
 1863 0a5c C1E90023 		strd	r2, [r1]
 1864 0a60 D7F89030 		ldr	r3, [r7, #144]
 1865 0a64 03F10103 		add	r3, r3, #1
 1866 0a68 C7F89030 		str	r3, [r7, #144]
 1867              	.L70:
 1868 0a6c D7F89030 		ldr	r3, [r7, #144]
 1869 0a70 092B     		cmp	r3, #9
 1870 0a72 E5DD     		ble	.L71
 1871              		.loc 1 333 0
 1872 0a74 40F20003 		movw	r3, #:lower16:tickTimeoutInterrupted
 1873 0a78 C0F20003 		movt	r3, #:upper16:tickTimeoutInterrupted
 1874 0a7c 4FF00002 		mov	r2, #0
 1875 0a80 1A60     		str	r2, [r3, #0]
 1876              	.L67:
 1877              		.loc 1 338 0
 1878 0a82 40F20003 		movw	r3, #:lower16:throttlePIDon
 1879 0a86 C0F20003 		movt	r3, #:upper16:throttlePIDon
 1880 0a8a 1B68     		ldr	r3, [r3, #0]
 1881 0a8c 002B     		cmp	r3, #0
 1882 0a8e 3FF45FAB 		beq	.L75
 1883 0a92 40F20003 		movw	r3, #:lower16:throttleUpdateInterrupted
 1884 0a96 C0F20003 		movt	r3, #:upper16:throttleUpdateInterrupted
 1885 0a9a 1B68     		ldr	r3, [r3, #0]
 1886 0a9c 002B     		cmp	r3, #0
 1887 0a9e 3FF459AB 		beq	.L76
 1888              		.loc 1 339 0
 1889 0aa2 FFF7FEFF 		bl	getSpeed
 1890 0aa6 0246     		mov	r2, r0
 1891 0aa8 0B46     		mov	r3, r1
 1892 0aaa 1046     		mov	r0, r2
 1893 0aac 1946     		mov	r1, r3
ARM GAS  C:\Users\tjs8\AppData\Local\Temp\cchqEM3h.s 			page 41


 1894 0aae FFF7FEFF 		bl	controlThrottle
 1895 0ab2 0346     		mov	r3, r0
 1896 0ab4 1846     		mov	r0, r3
 1897 0ab6 FFF7FEFF 		bl	setThrottle
 1898              		.loc 1 340 0
 1899 0aba 40F20003 		movw	r3, #:lower16:throttleUpdateInterrupted
 1900 0abe C0F20003 		movt	r3, #:upper16:throttleUpdateInterrupted
 1901 0ac2 4FF00002 		mov	r2, #0
 1902 0ac6 1A60     		str	r2, [r3, #0]
 1903              		.loc 1 343 0
 1904 0ac8 FFF745BB 		b	.L73
 1905              		.cfi_endproc
 1906              	.LFE37:
 1907              		.size	main, .-main
 1908              		.text
 1909              	.Letext0: