ARM GAS  C:\Users\tjs8\AppData\Local\Temp\ccyhxXuh.s 			page 1


   1              		.syntax unified
   2              		.cpu cortex-m3
   3              		.fpu softvfp
   4              		.eabi_attribute 20, 1
   5              		.eabi_attribute 21, 1
   6              		.eabi_attribute 23, 3
   7              		.eabi_attribute 24, 1
   8              		.eabi_attribute 25, 1
   9              		.eabi_attribute 26, 1
  10              		.eabi_attribute 30, 6
  11              		.eabi_attribute 18, 4
  12              		.thumb
  13              		.file	"ShiftReg_1_PM.c"
  20 0000 CD000000 		.text
  20      02007600 
  20      00000201 
  20      FB0E0D00 
  20      01010101 
  21              	.Ltext0:
  22              		.cfi_sections	.debug_frame
  23              		.bss
  24              		.align	2
  25              	ShiftReg_1_backup:
  26 0000 000000   		.space	3
  27 0003 00       		.section	.text.ShiftReg_1_SaveConfig,"ax",%progbits
  28              		.align	2
  29              		.global	ShiftReg_1_SaveConfig
  30              		.thumb
  31              		.thumb_func
  32              		.type	ShiftReg_1_SaveConfig, %function
  33              	ShiftReg_1_SaveConfig:
  34              	.LFB0:
  35              		.file 1 ".\\Generated_Source\\PSoC5\\ShiftReg_1_PM.c"
   1:.\Generated_Source\PSoC5/ShiftReg_1_PM.c **** /*******************************************************************************
   2:.\Generated_Source\PSoC5/ShiftReg_1_PM.c **** * File Name: ShiftReg_1_PM.c
   3:.\Generated_Source\PSoC5/ShiftReg_1_PM.c **** * Version 2.10
   4:.\Generated_Source\PSoC5/ShiftReg_1_PM.c **** *
   5:.\Generated_Source\PSoC5/ShiftReg_1_PM.c **** * Description:
   6:.\Generated_Source\PSoC5/ShiftReg_1_PM.c **** *  This file provides the API source code for sleep mode support for Shift 
   7:.\Generated_Source\PSoC5/ShiftReg_1_PM.c **** *  Register component.
   8:.\Generated_Source\PSoC5/ShiftReg_1_PM.c **** *
   9:.\Generated_Source\PSoC5/ShiftReg_1_PM.c **** * Note:
  10:.\Generated_Source\PSoC5/ShiftReg_1_PM.c **** *
  11:.\Generated_Source\PSoC5/ShiftReg_1_PM.c **** ********************************************************************************
  12:.\Generated_Source\PSoC5/ShiftReg_1_PM.c **** * Copyright 2008-2012, Cypress Semiconductor Corporation.  All rights reserved.
  13:.\Generated_Source\PSoC5/ShiftReg_1_PM.c **** * You may use this file only in accordance with the license, terms, conditions,
  14:.\Generated_Source\PSoC5/ShiftReg_1_PM.c **** * disclaimers, and limitations in the end user license agreement accompanying
  15:.\Generated_Source\PSoC5/ShiftReg_1_PM.c **** * the software package with which this file was provided.
  16:.\Generated_Source\PSoC5/ShiftReg_1_PM.c **** *******************************************************************************/
  17:.\Generated_Source\PSoC5/ShiftReg_1_PM.c **** 
  18:.\Generated_Source\PSoC5/ShiftReg_1_PM.c **** #include "ShiftReg_1.h"
ARM GAS  C:\Users\tjs8\AppData\Local\Temp\ccyhxXuh.s 			page 2


  19:.\Generated_Source\PSoC5/ShiftReg_1_PM.c **** 
  20:.\Generated_Source\PSoC5/ShiftReg_1_PM.c **** 
  21:.\Generated_Source\PSoC5/ShiftReg_1_PM.c **** static ShiftReg_1_BACKUP_STRUCT ShiftReg_1_backup = \
  22:.\Generated_Source\PSoC5/ShiftReg_1_PM.c **** {
  23:.\Generated_Source\PSoC5/ShiftReg_1_PM.c ****     /* enable state - disabled */
  24:.\Generated_Source\PSoC5/ShiftReg_1_PM.c ****     0u
  25:.\Generated_Source\PSoC5/ShiftReg_1_PM.c **** };
  26:.\Generated_Source\PSoC5/ShiftReg_1_PM.c **** 
  27:.\Generated_Source\PSoC5/ShiftReg_1_PM.c **** 
  28:.\Generated_Source\PSoC5/ShiftReg_1_PM.c **** /*******************************************************************************
  29:.\Generated_Source\PSoC5/ShiftReg_1_PM.c **** * Function Name: ShiftReg_1_SaveConfig
  30:.\Generated_Source\PSoC5/ShiftReg_1_PM.c **** ********************************************************************************
  31:.\Generated_Source\PSoC5/ShiftReg_1_PM.c **** *
  32:.\Generated_Source\PSoC5/ShiftReg_1_PM.c **** * Summary:
  33:.\Generated_Source\PSoC5/ShiftReg_1_PM.c **** *  Saves Shift Register configuration.
  34:.\Generated_Source\PSoC5/ShiftReg_1_PM.c **** *
  35:.\Generated_Source\PSoC5/ShiftReg_1_PM.c **** * Parameters:
  36:.\Generated_Source\PSoC5/ShiftReg_1_PM.c **** *  None.
  37:.\Generated_Source\PSoC5/ShiftReg_1_PM.c **** *
  38:.\Generated_Source\PSoC5/ShiftReg_1_PM.c **** * Return:
  39:.\Generated_Source\PSoC5/ShiftReg_1_PM.c **** *  None.
  40:.\Generated_Source\PSoC5/ShiftReg_1_PM.c **** *
  41:.\Generated_Source\PSoC5/ShiftReg_1_PM.c **** * Reentrant:
  42:.\Generated_Source\PSoC5/ShiftReg_1_PM.c **** *  No.
  43:.\Generated_Source\PSoC5/ShiftReg_1_PM.c **** *
  44:.\Generated_Source\PSoC5/ShiftReg_1_PM.c **** *******************************************************************************/
  45:.\Generated_Source\PSoC5/ShiftReg_1_PM.c **** void ShiftReg_1_SaveConfig(void) 
  46:.\Generated_Source\PSoC5/ShiftReg_1_PM.c **** {
  36              		.loc 1 46 0
  37              		.cfi_startproc
  38              		@ args = 0, pretend = 0, frame = 0
  39              		@ frame_needed = 1, uses_anonymous_args = 0
  40              		@ link register save eliminated.
  41 0000 80B4     		push	{r7}
  42              	.LCFI0:
  43              		.cfi_def_cfa_offset 4
  44 0002 00AF     		add	r7, sp, #0
  45              		.cfi_offset 7, -4
  46              	.LCFI1:
  47              		.cfi_def_cfa_register 7
  47:.\Generated_Source\PSoC5/ShiftReg_1_PM.c ****     /* Store A0, A1 and Status Mask registers */
  48:.\Generated_Source\PSoC5/ShiftReg_1_PM.c ****     #if (CY_UDB_V0)
  49:.\Generated_Source\PSoC5/ShiftReg_1_PM.c ****        ShiftReg_1_backup.saveSrA0Reg   = CY_GET_REG8(ShiftReg_1_SHIFT_REG_LSB_PTR);
  50:.\Generated_Source\PSoC5/ShiftReg_1_PM.c ****        ShiftReg_1_backup.saveSrA1Reg   = CY_GET_REG8(ShiftReg_1_SHIFT_REG_VALUE_LSB_PTR);
  51:.\Generated_Source\PSoC5/ShiftReg_1_PM.c ****        ShiftReg_1_backup.saveSrIntMask = ShiftReg_1_SR_STATUS_MASK;
  52:.\Generated_Source\PSoC5/ShiftReg_1_PM.c **** 
  53:.\Generated_Source\PSoC5/ShiftReg_1_PM.c ****     #else
  54:.\Generated_Source\PSoC5/ShiftReg_1_PM.c ****     /* Store A0, A1 only (not need to save Status Mask register  in ES3 silicon) */
  55:.\Generated_Source\PSoC5/ShiftReg_1_PM.c ****        ShiftReg_1_backup.saveSrA0Reg   = CY_GET_REG8(ShiftReg_1_SHIFT_REG_LSB_PTR);
  48              		.loc 1 55 0
  49 0004 46F20453 		movw	r3, #:lower16:1073767684
  50 0008 C4F20003 		movt	r3, #:upper16:1073767684
  51 000c 1B78     		ldrb	r3, [r3, #0]
  52 000e DAB2     		uxtb	r2, r3
  53 0010 40F20003 		movw	r3, #:lower16:ShiftReg_1_backup
  54 0014 C0F20003 		movt	r3, #:upper16:ShiftReg_1_backup
  55 0018 5A70     		strb	r2, [r3, #1]
ARM GAS  C:\Users\tjs8\AppData\Local\Temp\ccyhxXuh.s 			page 3


  56:.\Generated_Source\PSoC5/ShiftReg_1_PM.c ****        ShiftReg_1_backup.saveSrA1Reg   = CY_GET_REG8(ShiftReg_1_SHIFT_REG_VALUE_LSB_PTR);
  56              		.loc 1 56 0
  57 001a 46F21453 		movw	r3, #:lower16:1073767700
  58 001e C4F20003 		movt	r3, #:upper16:1073767700
  59 0022 1B78     		ldrb	r3, [r3, #0]
  60 0024 DAB2     		uxtb	r2, r3
  61 0026 40F20003 		movw	r3, #:lower16:ShiftReg_1_backup
  62 002a C0F20003 		movt	r3, #:upper16:ShiftReg_1_backup
  63 002e 9A70     		strb	r2, [r3, #2]
  57:.\Generated_Source\PSoC5/ShiftReg_1_PM.c **** 
  58:.\Generated_Source\PSoC5/ShiftReg_1_PM.c ****     #endif /* CY_UDB_V0 */
  59:.\Generated_Source\PSoC5/ShiftReg_1_PM.c **** }
  64              		.loc 1 59 0
  65 0030 BD46     		mov	sp, r7
  66 0032 80BC     		pop	{r7}
  67 0034 7047     		bx	lr
  68              		.cfi_endproc
  69              	.LFE0:
  70              		.size	ShiftReg_1_SaveConfig, .-ShiftReg_1_SaveConfig
  71 0036 00BF     		.section	.text.ShiftReg_1_RestoreConfig,"ax",%progbits
  72              		.align	2
  73              		.global	ShiftReg_1_RestoreConfig
  74              		.thumb
  75              		.thumb_func
  76              		.type	ShiftReg_1_RestoreConfig, %function
  77              	ShiftReg_1_RestoreConfig:
  78              	.LFB1:
  60:.\Generated_Source\PSoC5/ShiftReg_1_PM.c **** 
  61:.\Generated_Source\PSoC5/ShiftReg_1_PM.c **** 
  62:.\Generated_Source\PSoC5/ShiftReg_1_PM.c **** /*******************************************************************************
  63:.\Generated_Source\PSoC5/ShiftReg_1_PM.c **** * Function Name: ShiftReg_1_RestoreConfig
  64:.\Generated_Source\PSoC5/ShiftReg_1_PM.c **** ********************************************************************************
  65:.\Generated_Source\PSoC5/ShiftReg_1_PM.c **** *
  66:.\Generated_Source\PSoC5/ShiftReg_1_PM.c **** * Summary:
  67:.\Generated_Source\PSoC5/ShiftReg_1_PM.c **** *  Restores Shift Register configuration.
  68:.\Generated_Source\PSoC5/ShiftReg_1_PM.c **** *
  69:.\Generated_Source\PSoC5/ShiftReg_1_PM.c **** * Parameters:
  70:.\Generated_Source\PSoC5/ShiftReg_1_PM.c **** *  None.
  71:.\Generated_Source\PSoC5/ShiftReg_1_PM.c **** *
  72:.\Generated_Source\PSoC5/ShiftReg_1_PM.c **** * Return:
  73:.\Generated_Source\PSoC5/ShiftReg_1_PM.c **** *  None.
  74:.\Generated_Source\PSoC5/ShiftReg_1_PM.c **** *
  75:.\Generated_Source\PSoC5/ShiftReg_1_PM.c **** *******************************************************************************/
  76:.\Generated_Source\PSoC5/ShiftReg_1_PM.c **** void ShiftReg_1_RestoreConfig(void) 
  77:.\Generated_Source\PSoC5/ShiftReg_1_PM.c **** {
  79              		.loc 1 77 0
  80              		.cfi_startproc
  81              		@ args = 0, pretend = 0, frame = 0
  82              		@ frame_needed = 1, uses_anonymous_args = 0
  83              		@ link register save eliminated.
  84 0000 80B4     		push	{r7}
  85              	.LCFI2:
  86              		.cfi_def_cfa_offset 4
  87 0002 00AF     		add	r7, sp, #0
  88              		.cfi_offset 7, -4
  89              	.LCFI3:
  90              		.cfi_def_cfa_register 7
ARM GAS  C:\Users\tjs8\AppData\Local\Temp\ccyhxXuh.s 			page 4


  78:.\Generated_Source\PSoC5/ShiftReg_1_PM.c ****     /* Restore tha data, saved by SaveConfig()function */
  79:.\Generated_Source\PSoC5/ShiftReg_1_PM.c ****     #if (CY_UDB_V0)
  80:.\Generated_Source\PSoC5/ShiftReg_1_PM.c ****         CY_SET_REG8(ShiftReg_1_SHIFT_REG_LSB_PTR, ShiftReg_1_backup.saveSrA0Reg);
  81:.\Generated_Source\PSoC5/ShiftReg_1_PM.c ****             CY_SET_REG8(ShiftReg_1_SHIFT_REG_VALUE_LSB_PTR, ShiftReg_1_backup.saveSrA1Reg);
  82:.\Generated_Source\PSoC5/ShiftReg_1_PM.c ****             ShiftReg_1_SR_STATUS_MASK = ShiftReg_1_backup.saveSrIntMask;
  83:.\Generated_Source\PSoC5/ShiftReg_1_PM.c ****     #else
  84:.\Generated_Source\PSoC5/ShiftReg_1_PM.c ****             CY_SET_REG8(ShiftReg_1_SHIFT_REG_LSB_PTR, ShiftReg_1_backup.saveSrA0Reg);
  91              		.loc 1 84 0
  92 0004 46F20453 		movw	r3, #:lower16:1073767684
  93 0008 C4F20003 		movt	r3, #:upper16:1073767684
  94 000c 40F20002 		movw	r2, #:lower16:ShiftReg_1_backup
  95 0010 C0F20002 		movt	r2, #:upper16:ShiftReg_1_backup
  96 0014 5278     		ldrb	r2, [r2, #1]	@ zero_extendqisi2
  97 0016 1A70     		strb	r2, [r3, #0]
  85:.\Generated_Source\PSoC5/ShiftReg_1_PM.c ****             CY_SET_REG8(ShiftReg_1_SHIFT_REG_VALUE_LSB_PTR, ShiftReg_1_backup.saveSrA1Reg);
  98              		.loc 1 85 0
  99 0018 46F21453 		movw	r3, #:lower16:1073767700
 100 001c C4F20003 		movt	r3, #:upper16:1073767700
 101 0020 40F20002 		movw	r2, #:lower16:ShiftReg_1_backup
 102 0024 C0F20002 		movt	r2, #:upper16:ShiftReg_1_backup
 103 0028 9278     		ldrb	r2, [r2, #2]	@ zero_extendqisi2
 104 002a 1A70     		strb	r2, [r3, #0]
  86:.\Generated_Source\PSoC5/ShiftReg_1_PM.c **** 
  87:.\Generated_Source\PSoC5/ShiftReg_1_PM.c ****     #endif /* CY_UDB_V0 */
  88:.\Generated_Source\PSoC5/ShiftReg_1_PM.c **** }
 105              		.loc 1 88 0
 106 002c BD46     		mov	sp, r7
 107 002e 80BC     		pop	{r7}
 108 0030 7047     		bx	lr
 109              		.cfi_endproc
 110              	.LFE1:
 111              		.size	ShiftReg_1_RestoreConfig, .-ShiftReg_1_RestoreConfig
 112 0032 00BF     		.section	.text.ShiftReg_1_Sleep,"ax",%progbits
 113              		.align	2
 114              		.global	ShiftReg_1_Sleep
 115              		.thumb
 116              		.thumb_func
 117              		.type	ShiftReg_1_Sleep, %function
 118              	ShiftReg_1_Sleep:
 119              	.LFB2:
  89:.\Generated_Source\PSoC5/ShiftReg_1_PM.c **** 
  90:.\Generated_Source\PSoC5/ShiftReg_1_PM.c **** 
  91:.\Generated_Source\PSoC5/ShiftReg_1_PM.c **** /*******************************************************************************
  92:.\Generated_Source\PSoC5/ShiftReg_1_PM.c **** * Function Name: ShiftReg_1_Sleep
  93:.\Generated_Source\PSoC5/ShiftReg_1_PM.c **** ********************************************************************************
  94:.\Generated_Source\PSoC5/ShiftReg_1_PM.c **** *
  95:.\Generated_Source\PSoC5/ShiftReg_1_PM.c **** * Summary:
  96:.\Generated_Source\PSoC5/ShiftReg_1_PM.c **** *  Prepare the component to enter a Sleep mode.
  97:.\Generated_Source\PSoC5/ShiftReg_1_PM.c **** *
  98:.\Generated_Source\PSoC5/ShiftReg_1_PM.c **** * Parameters:
  99:.\Generated_Source\PSoC5/ShiftReg_1_PM.c **** *  None.
 100:.\Generated_Source\PSoC5/ShiftReg_1_PM.c **** *
 101:.\Generated_Source\PSoC5/ShiftReg_1_PM.c **** * Return:
 102:.\Generated_Source\PSoC5/ShiftReg_1_PM.c **** *  None.
 103:.\Generated_Source\PSoC5/ShiftReg_1_PM.c **** *
 104:.\Generated_Source\PSoC5/ShiftReg_1_PM.c **** * Reentrant:
 105:.\Generated_Source\PSoC5/ShiftReg_1_PM.c **** *  No. 
ARM GAS  C:\Users\tjs8\AppData\Local\Temp\ccyhxXuh.s 			page 5


 106:.\Generated_Source\PSoC5/ShiftReg_1_PM.c **** *
 107:.\Generated_Source\PSoC5/ShiftReg_1_PM.c **** *******************************************************************************/
 108:.\Generated_Source\PSoC5/ShiftReg_1_PM.c **** void ShiftReg_1_Sleep(void) 
 109:.\Generated_Source\PSoC5/ShiftReg_1_PM.c **** {
 120              		.loc 1 109 0
 121              		.cfi_startproc
 122              		@ args = 0, pretend = 0, frame = 0
 123              		@ frame_needed = 1, uses_anonymous_args = 0
 124 0000 80B5     		push	{r7, lr}
 125              	.LCFI4:
 126              		.cfi_def_cfa_offset 8
 127 0002 00AF     		add	r7, sp, #0
 128              		.cfi_offset 14, -4
 129              		.cfi_offset 7, -8
 130              	.LCFI5:
 131              		.cfi_def_cfa_register 7
 110:.\Generated_Source\PSoC5/ShiftReg_1_PM.c ****     if((ShiftReg_1_SR_CONTROL & ShiftReg_1_CLK_EN) == ShiftReg_1_CLK_EN)
 132              		.loc 1 110 0
 133 0004 46F27453 		movw	r3, #:lower16:1073767796
 134 0008 C4F20003 		movt	r3, #:upper16:1073767796
 135 000c 1B78     		ldrb	r3, [r3, #0]
 136 000e DBB2     		uxtb	r3, r3
 137 0010 03F00103 		and	r3, r3, #1
 138 0014 DBB2     		uxtb	r3, r3
 139 0016 002B     		cmp	r3, #0
 140 0018 07D0     		beq	.L6
 111:.\Generated_Source\PSoC5/ShiftReg_1_PM.c ****     {
 112:.\Generated_Source\PSoC5/ShiftReg_1_PM.c ****         ShiftReg_1_backup.enableState = 1u;
 141              		.loc 1 112 0
 142 001a 40F20003 		movw	r3, #:lower16:ShiftReg_1_backup
 143 001e C0F20003 		movt	r3, #:upper16:ShiftReg_1_backup
 144 0022 4FF00102 		mov	r2, #1
 145 0026 1A70     		strb	r2, [r3, #0]
 146 0028 06E0     		b	.L7
 147              	.L6:
 113:.\Generated_Source\PSoC5/ShiftReg_1_PM.c ****     }
 114:.\Generated_Source\PSoC5/ShiftReg_1_PM.c ****     else
 115:.\Generated_Source\PSoC5/ShiftReg_1_PM.c ****     {
 116:.\Generated_Source\PSoC5/ShiftReg_1_PM.c ****         ShiftReg_1_backup.enableState = 0u;
 148              		.loc 1 116 0
 149 002a 40F20003 		movw	r3, #:lower16:ShiftReg_1_backup
 150 002e C0F20003 		movt	r3, #:upper16:ShiftReg_1_backup
 151 0032 4FF00002 		mov	r2, #0
 152 0036 1A70     		strb	r2, [r3, #0]
 153              	.L7:
 117:.\Generated_Source\PSoC5/ShiftReg_1_PM.c ****     }
 118:.\Generated_Source\PSoC5/ShiftReg_1_PM.c ****     
 119:.\Generated_Source\PSoC5/ShiftReg_1_PM.c ****     ShiftReg_1_Stop();
 154              		.loc 1 119 0
 155 0038 FFF7FEFF 		bl	ShiftReg_1_Stop
 120:.\Generated_Source\PSoC5/ShiftReg_1_PM.c ****     ShiftReg_1_SaveConfig();
 156              		.loc 1 120 0
 157 003c FFF7FEFF 		bl	ShiftReg_1_SaveConfig
 121:.\Generated_Source\PSoC5/ShiftReg_1_PM.c **** }
 158              		.loc 1 121 0
 159 0040 80BD     		pop	{r7, pc}
 160              		.cfi_endproc
ARM GAS  C:\Users\tjs8\AppData\Local\Temp\ccyhxXuh.s 			page 6


 161              	.LFE2:
 162              		.size	ShiftReg_1_Sleep, .-ShiftReg_1_Sleep
 163 0042 00BF     		.section	.text.ShiftReg_1_Wakeup,"ax",%progbits
 164              		.align	2
 165              		.global	ShiftReg_1_Wakeup
 166              		.thumb
 167              		.thumb_func
 168              		.type	ShiftReg_1_Wakeup, %function
 169              	ShiftReg_1_Wakeup:
 170              	.LFB3:
 122:.\Generated_Source\PSoC5/ShiftReg_1_PM.c **** 
 123:.\Generated_Source\PSoC5/ShiftReg_1_PM.c **** 
 124:.\Generated_Source\PSoC5/ShiftReg_1_PM.c **** /*******************************************************************************
 125:.\Generated_Source\PSoC5/ShiftReg_1_PM.c **** * Function Name: ShiftReg_1_Wakeup
 126:.\Generated_Source\PSoC5/ShiftReg_1_PM.c **** ********************************************************************************
 127:.\Generated_Source\PSoC5/ShiftReg_1_PM.c **** *
 128:.\Generated_Source\PSoC5/ShiftReg_1_PM.c **** * Summary:
 129:.\Generated_Source\PSoC5/ShiftReg_1_PM.c **** *  Restores and enables the user configuration.
 130:.\Generated_Source\PSoC5/ShiftReg_1_PM.c **** *
 131:.\Generated_Source\PSoC5/ShiftReg_1_PM.c **** * Parameters:
 132:.\Generated_Source\PSoC5/ShiftReg_1_PM.c **** *  None.
 133:.\Generated_Source\PSoC5/ShiftReg_1_PM.c **** *
 134:.\Generated_Source\PSoC5/ShiftReg_1_PM.c **** * Return:
 135:.\Generated_Source\PSoC5/ShiftReg_1_PM.c **** *  None.
 136:.\Generated_Source\PSoC5/ShiftReg_1_PM.c **** *
 137:.\Generated_Source\PSoC5/ShiftReg_1_PM.c **** *******************************************************************************/
 138:.\Generated_Source\PSoC5/ShiftReg_1_PM.c **** void ShiftReg_1_Wakeup(void) 
 139:.\Generated_Source\PSoC5/ShiftReg_1_PM.c **** {
 171              		.loc 1 139 0
 172              		.cfi_startproc
 173              		@ args = 0, pretend = 0, frame = 0
 174              		@ frame_needed = 1, uses_anonymous_args = 0
 175 0000 80B5     		push	{r7, lr}
 176              	.LCFI6:
 177              		.cfi_def_cfa_offset 8
 178 0002 00AF     		add	r7, sp, #0
 179              		.cfi_offset 14, -4
 180              		.cfi_offset 7, -8
 181              	.LCFI7:
 182              		.cfi_def_cfa_register 7
 140:.\Generated_Source\PSoC5/ShiftReg_1_PM.c ****     ShiftReg_1_RestoreConfig();
 183              		.loc 1 140 0
 184 0004 FFF7FEFF 		bl	ShiftReg_1_RestoreConfig
 141:.\Generated_Source\PSoC5/ShiftReg_1_PM.c ****     
 142:.\Generated_Source\PSoC5/ShiftReg_1_PM.c ****     if(ShiftReg_1_backup.enableState == 1u)
 185              		.loc 1 142 0
 186 0008 40F20003 		movw	r3, #:lower16:ShiftReg_1_backup
 187 000c C0F20003 		movt	r3, #:upper16:ShiftReg_1_backup
 188 0010 1B78     		ldrb	r3, [r3, #0]	@ zero_extendqisi2
 189 0012 012B     		cmp	r3, #1
 190 0014 01D1     		bne	.L11
 143:.\Generated_Source\PSoC5/ShiftReg_1_PM.c ****     {
 144:.\Generated_Source\PSoC5/ShiftReg_1_PM.c ****         ShiftReg_1_Enable();   
 191              		.loc 1 144 0
 192 0016 FFF7FEFF 		bl	ShiftReg_1_Enable
 193              	.L11:
 145:.\Generated_Source\PSoC5/ShiftReg_1_PM.c ****     }
ARM GAS  C:\Users\tjs8\AppData\Local\Temp\ccyhxXuh.s 			page 7


 146:.\Generated_Source\PSoC5/ShiftReg_1_PM.c **** }
 194              		.loc 1 146 0
 195 001a 80BD     		pop	{r7, pc}
 196              		.cfi_endproc
 197              	.LFE3:
 198              		.size	ShiftReg_1_Wakeup, .-ShiftReg_1_Wakeup
 199              		.text
 200              	.Letext0: